
out.elf:     file format elf32-tradlittlemips


Disassembly of section .reset:

bd007000 <_reset>:
bd007000:	0f401c02 	jal	bd007008 <_startup>
bd007004:	00000000 	nop

bd007008 <_startup>:
bd007008:	401a6000 	mfc0	k0,c0_status
bd00700c:	7f5a04c0 	ext	k0,k0,0x13,0x1
bd007010:	13400005 	beqz	k0,bd007028 <_no_nmi>
bd007014:	00000000 	nop
bd007018:	3c1a9d01 	lui	k0,0x9d01
bd00701c:	275a1120 	addiu	k0,k0,4384
bd007020:	03400008 	jr	k0
bd007024:	00000000 	nop

bd007028 <_no_nmi>:
bd007028:	3c1da001 	lui	sp,0xa001
bd00702c:	27bdfff0 	addiu	sp,sp,-16
bd007030:	3c1ca000 	lui	gp,0xa000
bd007034:	279c7ff0 	addiu	gp,gp,32752
bd007038:	3c089d01 	lui	t0,0x9d01
bd00703c:	250811b8 	addiu	t0,t0,4536
bd007040:	0100f809 	jalr	t0
bd007044:	00000000 	nop

bd007048 <_start_bss_init>:
bd007048:	3c08a000 	lui	t0,0xa000
bd00704c:	25080004 	addiu	t0,t0,4
bd007050:	3c09a000 	lui	t1,0xa000
bd007054:	25290020 	addiu	t1,t1,32
bd007058:	10000003 	b	bd007068 <_bss_check>
bd00705c:	00000000 	nop

bd007060 <_bss_init>:
bd007060:	ad000000 	sw	zero,0(t0)
bd007064:	25080004 	addiu	t0,t0,4

bd007068 <_bss_check>:
bd007068:	0109082b 	sltu	at,t0,t1
bd00706c:	1420fffc 	bnez	at,bd007060 <_bss_init>
bd007070:	00000000 	nop
bd007074:	3c089d01 	lui	t0,0x9d01
bd007078:	25080ec8 	addiu	t0,t0,3784
bd00707c:	0100f809 	jalr	t0
bd007080:	00000000 	nop
bd007084:	3c090000 	lui	t1,0x0
bd007088:	25290000 	addiu	t1,t1,0
bd00708c:	11200010 	beqz	t1,bd0070d0 <_ramfunc_done>
bd007090:	00000000 	nop
bd007094:	3c090001 	lui	t1,0x1
bd007098:	25290000 	addiu	t1,t1,0
bd00709c:	3c0abf88 	lui	t2,0xbf88
bd0070a0:	254a2010 	addiu	t2,t2,8208
bd0070a4:	ad490000 	sw	t1,0(t2)
bd0070a8:	3c090001 	lui	t1,0x1
bd0070ac:	25290000 	addiu	t1,t1,0
bd0070b0:	3c0abf88 	lui	t2,0xbf88
bd0070b4:	254a2020 	addiu	t2,t2,8224
bd0070b8:	ad490000 	sw	t1,0(t2)
bd0070bc:	3c090001 	lui	t1,0x1
bd0070c0:	25290000 	addiu	t1,t1,0
bd0070c4:	3c0abf88 	lui	t2,0xbf88
bd0070c8:	254a2030 	addiu	t2,t2,8240
bd0070cc:	ad490000 	sw	t1,0(t2)

bd0070d0 <_ramfunc_done>:
bd0070d0:	40804800 	mtc0	zero,c0_count
bd0070d4:	240affff 	li	t2,-1
bd0070d8:	408a5800 	mtc0	t2,c0_compare
bd0070dc:	3c080040 	lui	t0,0x40
bd0070e0:	400a6000 	mfc0	t2,c0_status
bd0070e4:	010a5025 	or	t2,t0,t2
bd0070e8:	408a6000 	mtc0	t2,c0_status
bd0070ec:	3c099d00 	lui	t1,0x9d00
bd0070f0:	25296000 	addiu	t1,t1,24576
bd0070f4:	000000c0 	ehb
bd0070f8:	40897801 	mtc0	t1,c0_ebase
bd0070fc:	3c090000 	lui	t1,0x0
bd007100:	25290001 	addiu	t1,t1,1
bd007104:	240a0000 	li	t2,0
bd007108:	7d2a4944 	ins	t2,t1,0x5,0x5
bd00710c:	408a6001 	mtc0	t2,c0_intctl
bd007110:	3c090080 	lui	t1,0x80
bd007114:	40896800 	mtc0	t1,c0_cause
bd007118:	40088000 	mfc0	t0,c0_config
bd00711c:	7d090580 	ext	t1,t0,0x16,0x1
bd007120:	00094c40 	sll	t1,t1,0x11
bd007124:	40086000 	mfc0	t0,c0_status
bd007128:	3c010058 	lui	at,0x58
bd00712c:	01014024 	and	t0,t0,at
bd007130:	01284025 	or	t0,t1,t0
bd007134:	40886000 	mtc0	t0,c0_status
bd007138:	000000c0 	ehb
bd00713c:	3c089d01 	lui	t0,0x9d01
bd007140:	250811c0 	addiu	t0,t0,4544
bd007144:	0100f809 	jalr	t0
bd007148:	00000000 	nop
bd00714c:	40086000 	mfc0	t0,c0_status
bd007150:	3c01ffbf 	lui	at,0xffbf
bd007154:	3421ffff 	ori	at,at,0xffff
bd007158:	01014024 	and	t0,t0,at
bd00715c:	40886000 	mtc0	t0,c0_status
bd007160:	30840000 	andi	a0,a0,0x0
bd007164:	30a50000 	andi	a1,a1,0x0
bd007168:	3c089d01 	lui	t0,0x9d01
bd00716c:	25080578 	addiu	t0,t0,1400
bd007170:	01000008 	jr	t0
bd007174:	00000000 	nop

Disassembly of section .bev_excpt:

bfc07380 <_bev_exception>:
bfc07380:	3c1a9d01 	lui	k0,0x9d01
bfc07384:	275a07a4 	addiu	k0,k0,1956
bfc07388:	03400008 	jr	k0
bfc0738c:	00000000 	nop

Disassembly of section .app_excpt:

9d006180 <_gen_exception>:
9d006180:	3c1a9d01 	lui	k0,0x9d01
9d006184:	275aecec 	addiu	k0,k0,-4884
9d006188:	03400008 	jr	k0
9d00618c:	00000000 	nop

Disassembly of section .vector_0:

9d006200 <__vector_dispatch_0>:
9d006200:	0b40420d 	j	9d010834 <_DefaultInterrupt>
9d006204:	00000000 	nop

Disassembly of section .vector_1:

9d006220 <__vector_dispatch_1>:
9d006220:	0b40420d 	j	9d010834 <_DefaultInterrupt>
9d006224:	00000000 	nop

Disassembly of section .vector_2:

9d006240 <__vector_dispatch_2>:
9d006240:	0b40420d 	j	9d010834 <_DefaultInterrupt>
9d006244:	00000000 	nop

Disassembly of section .vector_3:

9d006260 <__vector_dispatch_3>:
9d006260:	0b40420d 	j	9d010834 <_DefaultInterrupt>
9d006264:	00000000 	nop

Disassembly of section .vector_4:

9d006280 <__vector_dispatch_4>:
9d006280:	0b40420d 	j	9d010834 <_DefaultInterrupt>
9d006284:	00000000 	nop

Disassembly of section .vector_5:

9d0062a0 <__vector_dispatch_5>:
9d0062a0:	0b40420d 	j	9d010834 <_DefaultInterrupt>
9d0062a4:	00000000 	nop

Disassembly of section .vector_6:

9d0062c0 <__vector_dispatch_6>:
9d0062c0:	0b40420d 	j	9d010834 <_DefaultInterrupt>
9d0062c4:	00000000 	nop

Disassembly of section .vector_7:

9d0062e0 <__vector_dispatch_7>:
9d0062e0:	0b40420d 	j	9d010834 <_DefaultInterrupt>
9d0062e4:	00000000 	nop

Disassembly of section .vector_8:

9d006300 <__vector_dispatch_8>:
9d006300:	0b402651 	j	9d009944 <Controller>
9d006304:	00000000 	nop

Disassembly of section .vector_9:

9d006320 <__vector_dispatch_9>:
9d006320:	0b40420d 	j	9d010834 <_DefaultInterrupt>
9d006324:	00000000 	nop

Disassembly of section .vector_10:

9d006340 <__vector_dispatch_10>:
9d006340:	0b40420d 	j	9d010834 <_DefaultInterrupt>
9d006344:	00000000 	nop

Disassembly of section .vector_11:

9d006360 <__vector_dispatch_11>:
9d006360:	0b40420d 	j	9d010834 <_DefaultInterrupt>
9d006364:	00000000 	nop

Disassembly of section .vector_12:

9d006380 <__vector_dispatch_12>:
9d006380:	0b40420d 	j	9d010834 <_DefaultInterrupt>
9d006384:	00000000 	nop

Disassembly of section .vector_13:

9d0063a0 <__vector_dispatch_13>:
9d0063a0:	0b40420d 	j	9d010834 <_DefaultInterrupt>
9d0063a4:	00000000 	nop

Disassembly of section .vector_14:

9d0063c0 <__vector_dispatch_14>:
9d0063c0:	0b40420d 	j	9d010834 <_DefaultInterrupt>
9d0063c4:	00000000 	nop

Disassembly of section .vector_15:

9d0063e0 <__vector_dispatch_15>:
9d0063e0:	0b40420d 	j	9d010834 <_DefaultInterrupt>
9d0063e4:	00000000 	nop

Disassembly of section .vector_16:

9d006400 <__vector_dispatch_16>:
9d006400:	0b40420d 	j	9d010834 <_DefaultInterrupt>
9d006404:	00000000 	nop

Disassembly of section .vector_17:

9d006420 <__vector_dispatch_17>:
9d006420:	0b40420d 	j	9d010834 <_DefaultInterrupt>
9d006424:	00000000 	nop

Disassembly of section .vector_18:

9d006440 <__vector_dispatch_18>:
9d006440:	0b40420d 	j	9d010834 <_DefaultInterrupt>
9d006444:	00000000 	nop

Disassembly of section .vector_19:

9d006460 <__vector_dispatch_19>:
9d006460:	0b40420d 	j	9d010834 <_DefaultInterrupt>
9d006464:	00000000 	nop

Disassembly of section .vector_20:

9d006480 <__vector_dispatch_20>:
9d006480:	0b40420d 	j	9d010834 <_DefaultInterrupt>
9d006484:	00000000 	nop

Disassembly of section .vector_21:

9d0064a0 <__vector_dispatch_21>:
9d0064a0:	0b40420d 	j	9d010834 <_DefaultInterrupt>
9d0064a4:	00000000 	nop

Disassembly of section .vector_22:

9d0064c0 <__vector_dispatch_22>:
9d0064c0:	0b40420d 	j	9d010834 <_DefaultInterrupt>
9d0064c4:	00000000 	nop

Disassembly of section .vector_23:

9d0064e0 <__vector_dispatch_23>:
9d0064e0:	0b40420d 	j	9d010834 <_DefaultInterrupt>
9d0064e4:	00000000 	nop

Disassembly of section .vector_24:

9d006500 <__vector_dispatch_24>:
9d006500:	0b40420d 	j	9d010834 <_DefaultInterrupt>
9d006504:	00000000 	nop

Disassembly of section .vector_25:

9d006520 <__vector_dispatch_25>:
9d006520:	0b40420d 	j	9d010834 <_DefaultInterrupt>
9d006524:	00000000 	nop

Disassembly of section .vector_26:

9d006540 <__vector_dispatch_26>:
9d006540:	0b40420d 	j	9d010834 <_DefaultInterrupt>
9d006544:	00000000 	nop

Disassembly of section .vector_27:

9d006560 <__vector_dispatch_27>:
9d006560:	0b40420d 	j	9d010834 <_DefaultInterrupt>
9d006564:	00000000 	nop

Disassembly of section .vector_28:

9d006580 <__vector_dispatch_28>:
9d006580:	0b40420d 	j	9d010834 <_DefaultInterrupt>
9d006584:	00000000 	nop

Disassembly of section .vector_29:

9d0065a0 <__vector_dispatch_29>:
9d0065a0:	0b40420d 	j	9d010834 <_DefaultInterrupt>
9d0065a4:	00000000 	nop

Disassembly of section .vector_30:

9d0065c0 <__vector_dispatch_30>:
9d0065c0:	0b40420d 	j	9d010834 <_DefaultInterrupt>
9d0065c4:	00000000 	nop

Disassembly of section .vector_31:

9d0065e0 <__vector_dispatch_31>:
9d0065e0:	0b40420d 	j	9d010834 <_DefaultInterrupt>
9d0065e4:	00000000 	nop

Disassembly of section .vector_32:

9d006600 <__vector_dispatch_32>:
9d006600:	0b40420d 	j	9d010834 <_DefaultInterrupt>
9d006604:	00000000 	nop

Disassembly of section .vector_33:

9d006620 <__vector_dispatch_33>:
9d006620:	0b40420d 	j	9d010834 <_DefaultInterrupt>
9d006624:	00000000 	nop

Disassembly of section .vector_34:

9d006640 <__vector_dispatch_34>:
9d006640:	0b40420d 	j	9d010834 <_DefaultInterrupt>
9d006644:	00000000 	nop

Disassembly of section .vector_35:

9d006660 <__vector_dispatch_35>:
9d006660:	0b40420d 	j	9d010834 <_DefaultInterrupt>
9d006664:	00000000 	nop

Disassembly of section .vector_36:

9d006680 <__vector_dispatch_36>:
9d006680:	0b40420d 	j	9d010834 <_DefaultInterrupt>
9d006684:	00000000 	nop

Disassembly of section .vector_37:

9d0066a0 <__vector_dispatch_37>:
9d0066a0:	0b40420d 	j	9d010834 <_DefaultInterrupt>
9d0066a4:	00000000 	nop

Disassembly of section .vector_38:

9d0066c0 <__vector_dispatch_38>:
9d0066c0:	0b40420d 	j	9d010834 <_DefaultInterrupt>
9d0066c4:	00000000 	nop

Disassembly of section .vector_39:

9d0066e0 <__vector_dispatch_39>:
9d0066e0:	0b40420d 	j	9d010834 <_DefaultInterrupt>
9d0066e4:	00000000 	nop

Disassembly of section .vector_40:

9d006700 <__vector_dispatch_40>:
9d006700:	0b40420d 	j	9d010834 <_DefaultInterrupt>
9d006704:	00000000 	nop

Disassembly of section .vector_41:

9d006720 <__vector_dispatch_41>:
9d006720:	0b40420d 	j	9d010834 <_DefaultInterrupt>
9d006724:	00000000 	nop

Disassembly of section .vector_42:

9d006740 <__vector_dispatch_42>:
9d006740:	0b40420d 	j	9d010834 <_DefaultInterrupt>
9d006744:	00000000 	nop

Disassembly of section .vector_43:

9d006760 <__vector_dispatch_43>:
9d006760:	0b40420d 	j	9d010834 <_DefaultInterrupt>
9d006764:	00000000 	nop

Disassembly of section .rodata:

9d007490 <.rodata>:
9d007490:	25206625 	addiu	zero,t1,26149
9d007494:	00000066 	0x66
9d007498:	25206425 	addiu	zero,t1,25637
9d00749c:	64252064 	0x64252064
9d0074a0:	00000a0d 	break	0x0,0x28
9d0074a4:	42c80000 	c0	0xc80000
9d0074a8:	42480000 	c0	0x480000
	...
9d0074b4:	40590000 	cfc0	t9,c0_index
9d0074b8:	00000000 	nop
9d0074bc:	41f00000 	0x41f00000
9d0074c0:	6c696e28 	0x6c696e28
9d0074c4:	00000029 	0x29
9d0074c8:	00666e69 	0x666e69
9d0074cc:	006e616e 	0x6e616e
9d0074d0:	69666e69 	0x69666e69
9d0074d4:	7974696e 	0x7974696e
9d0074d8:	00000000 	nop
9d0074dc:	006e616e 	0x6e616e
9d0074e0:	ffffffff 	sdc3	$31,-1(ra)
9d0074e4:	7fefffff 	0x7fefffff
9d0074e8:	00000000 	nop
9d0074ec:	00100000 	sll	zero,s0,0x0
9d0074f0:	00000000 	nop
9d0074f4:	41cdcd65 	0x41cdcd65
9d0074f8:	00000000 	nop
9d0074fc:	3ff00000 	0x3ff00000
9d007500:	00000000 	nop
9d007504:	3fd00000 	0x3fd00000
9d007508:	00000000 	nop
9d00750c:	3fe80000 	0x3fe80000
9d007510:	00000000 	nop
9d007514:	3fe00000 	0x3fe00000
9d007518:	00000000 	nop
9d00751c:	43400000 	c0	0x1400000
9d007520:	00000000 	nop
9d007524:	fff00000 	sdc3	$16,0(ra)
9d007528:	ffffffff 	sdc3	$31,-1(ra)
9d00752c:	7ff7ffff 	0x7ff7ffff
9d007530:	00000000 	nop
9d007534:	7ff00000 	ext	s0,ra,0x0,0x1
9d007538:	00000000 	nop
9d00753c:	3fb00000 	0x3fb00000
9d007540:	00000000 	nop
9d007544:	c08ff000 	ll	t7,-4096(a0)
9d007548:	00000000 	nop
9d00754c:	3ff00000 	0x3ff00000
9d007550:	00000000 	nop
9d007554:	3fe00000 	0x3fe00000
9d007558:	30773b76 	andi	s7,v1,0x3b76
9d00755c:	7fde42d1 	pick.ph	t0,s8,s8
9d007560:	00000000 	nop
9d007564:	7fe00000 	ext	zero,ra,0x0,0x1
9d007568:	00000000 	nop
9d00756c:	03600000 	0x3600000

Disassembly of section ._debug_exception:

bfc00480 <__DbgExecReturn>:
bfc00480:	409bf800 	mtc0	k1,c0_desave
bfc00484:	000000c0 	ehb
bfc00488:	3c1b9d01 	lui	k1,0x9d01
bfc0048c:	277b090c 	addiu	k1,k1,2316
bfc00490:	13600002 	beqz	k1,bfc0049c <__DbgExecReturn+0x1c>
bfc00494:	00000000 	nop
bfc00498:	409bc000 	mtc0	k1,c0_depc
bfc0049c:	401bf800 	mfc0	k1,c0_desave
bfc004a0:	000000c0 	ehb
bfc004a4:	4200001f 	deret
bfc004a8:	00000000 	nop

Disassembly of section .text.decfloat:

9d007570 <decfloat>:
9d007570:	27bdfdb0 	addiu	sp,sp,-592
9d007574:	afb30234 	sw	s3,564(sp)
9d007578:	afb1022c 	sw	s1,556(sp)
9d00757c:	afb00228 	sw	s0,552(sp)
9d007580:	afbf024c 	sw	ra,588(sp)
9d007584:	afbe0248 	sw	s8,584(sp)
9d007588:	afb70244 	sw	s7,580(sp)
9d00758c:	afb60240 	sw	s6,576(sp)
9d007590:	afb5023c 	sw	s5,572(sp)
9d007594:	afb40238 	sw	s4,568(sp)
9d007598:	afb20230 	sw	s2,560(sp)
9d00759c:	00808825 	move	s1,a0
9d0075a0:	00a01025 	move	v0,a1
9d0075a4:	afa60258 	sw	a2,600(sp)
9d0075a8:	afa7025c 	sw	a3,604(sp)
9d0075ac:	00009825 	move	s3,zero
9d0075b0:	24100030 	li	s0,48
9d0075b4:	1050004c 	beq	v0,s0,9d0076e8 <decfloat+0x178>
9d0075b8:	2403002e 	li	v1,46
9d0075bc:	1443006d 	bne	v0,v1,9d007774 <decfloat+0x204>
9d0075c0:	00009025 	move	s2,zero
9d0075c4:	8e22003c 	lw	v0,60(s1)
9d0075c8:	8e23004c 	lw	v1,76(s1)
9d0075cc:	0043182b 	sltu	v1,v0,v1
9d0075d0:	10600052 	beqz	v1,9d00771c <decfloat+0x1ac>
9d0075d4:	24430001 	addiu	v1,v0,1
9d0075d8:	ae23003c 	sw	v1,60(s1)
9d0075dc:	90420000 	lbu	v0,0(v0)
9d0075e0:	00008025 	move	s0,zero
9d0075e4:	0000a025 	move	s4,zero
9d0075e8:	24150030 	li	s5,48
9d0075ec:	1055004f 	beq	v0,s5,9d00772c <decfloat+0x1bc>
9d0075f0:	24120001 	li	s2,1
9d0075f4:	afa00010 	sw	zero,16(sp)
9d0075f8:	0000b825 	move	s7,zero
9d0075fc:	0000f025 	move	s8,zero
9d007600:	00003025 	move	a2,zero
9d007604:	0000b025 	move	s6,zero
9d007608:	0000a825 	move	s5,zero
9d00760c:	2407002e 	li	a3,46
9d007610:	24090030 	li	t1,48
9d007614:	240a0009 	li	t2,9
9d007618:	244bffd0 	addiu	t3,v0,-48
9d00761c:	2d64000a 	sltiu	a0,t3,10
9d007620:	14800057 	bnez	a0,9d007780 <decfloat+0x210>
9d007624:	00000000 	nop
9d007628:	10470057 	beq	v0,a3,9d007788 <decfloat+0x218>
9d00762c:	00000000 	nop
9d007630:	03d2800a 	movz	s0,s8,s2
9d007634:	00d2a00a 	movz	s4,a2,s2
9d007638:	1260030c 	beqz	s3,9d00826c <decfloat+0xcfc>
9d00763c:	34430020 	ori	v1,v0,0x20
9d007640:	24040065 	li	a0,101
9d007644:	14640326 	bne	v1,a0,9d0082e0 <decfloat+0xd70>
9d007648:	8fa50264 	lw	a1,612(sp)
9d00764c:	02202025 	move	a0,s1
9d007650:	0f40318e 	jal	9d00c638 <scanexp>
9d007654:	afa60210 	sw	a2,528(sp)
9d007658:	1440000e 	bnez	v0,9d007694 <decfloat+0x124>
9d00765c:	8fa60210 	lw	a2,528(sp)
9d007660:	3c048000 	lui	a0,0x8000
9d007664:	5464000c 	bnel	v1,a0,9d007698 <decfloat+0x128>
9d007668:	02021021 	addu	v0,s0,v0
9d00766c:	8fa30264 	lw	v1,612(sp)
9d007670:	1060030b 	beqz	v1,9d0082a0 <decfloat+0xd30>
9d007674:	00002825 	move	a1,zero
9d007678:	8e24004c 	lw	a0,76(s1)
9d00767c:	10800005 	beqz	a0,9d007694 <decfloat+0x124>
9d007680:	00001825 	move	v1,zero
9d007684:	8e23003c 	lw	v1,60(s1)
9d007688:	2463ffff 	addiu	v1,v1,-1
9d00768c:	ae23003c 	sw	v1,60(s1)
9d007690:	00401825 	move	v1,v0
9d007694:	02021021 	addu	v0,s0,v0
9d007698:	0050202b 	sltu	a0,v0,s0
9d00769c:	0283a021 	addu	s4,s4,v1
9d0076a0:	00408025 	move	s0,v0
9d0076a4:	0094a021 	addu	s4,a0,s4
9d0076a8:	8fa40260 	lw	a0,608(sp)
9d0076ac:	8fb10010 	lw	s1,16(sp)
9d0076b0:	0f403fe4 	jal	9d00ff90 <__floatsidf>
9d0076b4:	afa60210 	sw	a2,528(sp)
9d0076b8:	00409025 	move	s2,v0
9d0076bc:	00609825 	move	s3,v1
9d0076c0:	16200065 	bnez	s1,9d007858 <decfloat+0x2e8>
9d0076c4:	8fa60210 	lw	a2,528(sp)
9d0076c8:	00003025 	move	a2,zero
9d0076cc:	00003825 	move	a3,zero
9d0076d0:	00402025 	move	a0,v0
9d0076d4:	00602825 	move	a1,v1
9d0076d8:	0f4030c3 	jal	9d00c30c <__muldf3>
9d0076dc:	00000000 	nop
9d0076e0:	100002f4 	b	9d0082b4 <decfloat+0xd44>
9d0076e4:	8fbf024c 	lw	ra,588(sp)
9d0076e8:	8e22003c 	lw	v0,60(s1)
9d0076ec:	8e23004c 	lw	v1,76(s1)
9d0076f0:	0043182b 	sltu	v1,v0,v1
9d0076f4:	10600005 	beqz	v1,9d00770c <decfloat+0x19c>
9d0076f8:	24430001 	addiu	v1,v0,1
9d0076fc:	ae23003c 	sw	v1,60(s1)
9d007700:	90420000 	lbu	v0,0(v0)
9d007704:	1000ffab 	b	9d0075b4 <decfloat+0x44>
9d007708:	24130001 	li	s3,1
9d00770c:	0f403c35 	jal	9d00f0d4 <__shgetc>
9d007710:	02202025 	move	a0,s1
9d007714:	1000ffa7 	b	9d0075b4 <decfloat+0x44>
9d007718:	24130001 	li	s3,1
9d00771c:	0f403c35 	jal	9d00f0d4 <__shgetc>
9d007720:	02202025 	move	a0,s1
9d007724:	1000ffaf 	b	9d0075e4 <decfloat+0x74>
9d007728:	00008025 	move	s0,zero
9d00772c:	8e22003c 	lw	v0,60(s1)
9d007730:	8e23004c 	lw	v1,76(s1)
9d007734:	0043182b 	sltu	v1,v0,v1
9d007738:	1060000a 	beqz	v1,9d007764 <decfloat+0x1f4>
9d00773c:	24430001 	addiu	v1,v0,1
9d007740:	ae23003c 	sw	v1,60(s1)
9d007744:	90420000 	lbu	v0,0(v0)
9d007748:	2604ffff 	addiu	a0,s0,-1
9d00774c:	0090182b 	sltu	v1,a0,s0
9d007750:	2694ffff 	addiu	s4,s4,-1
9d007754:	00808025 	move	s0,a0
9d007758:	0074a021 	addu	s4,v1,s4
9d00775c:	1000ffa3 	b	9d0075ec <decfloat+0x7c>
9d007760:	24130001 	li	s3,1
9d007764:	0f403c35 	jal	9d00f0d4 <__shgetc>
9d007768:	02202025 	move	a0,s1
9d00776c:	1000fff7 	b	9d00774c <decfloat+0x1dc>
9d007770:	2604ffff 	addiu	a0,s0,-1
9d007774:	00008025 	move	s0,zero
9d007778:	1000ff9e 	b	9d0075f4 <decfloat+0x84>
9d00777c:	0000a025 	move	s4,zero
9d007780:	1447000d 	bne	v0,a3,9d0077b8 <decfloat+0x248>
9d007784:	27c40001 	addiu	a0,s8,1
9d007788:	16400031 	bnez	s2,9d007850 <decfloat+0x2e0>
9d00778c:	24120001 	li	s2,1
9d007790:	03c08025 	move	s0,s8
9d007794:	00c0a025 	move	s4,a2
9d007798:	8e22003c 	lw	v0,60(s1)
9d00779c:	8e24004c 	lw	a0,76(s1)
9d0077a0:	0044202b 	sltu	a0,v0,a0
9d0077a4:	10800022 	beqz	a0,9d007830 <decfloat+0x2c0>
9d0077a8:	24440001 	addiu	a0,v0,1
9d0077ac:	ae24003c 	sw	a0,60(s1)
9d0077b0:	1000ff99 	b	9d007618 <decfloat+0xa8>
9d0077b4:	90420000 	lbu	v0,0(v0)
9d0077b8:	009e282b 	sltu	a1,a0,s8
9d0077bc:	0080f025 	move	s8,a0
9d0077c0:	2ac4007d 	slti	a0,s6,125
9d0077c4:	10800014 	beqz	a0,9d007818 <decfloat+0x2a8>
9d0077c8:	00a63021 	addu	a2,a1,a2
9d0077cc:	38420030 	xori	v0,v0,0x30
9d0077d0:	03c2b80b 	movn	s7,s8,v0
9d0077d4:	12a00007 	beqz	s5,9d0077f4 <decfloat+0x284>
9d0077d8:	00161080 	sll	v0,s6,0x2
9d0077dc:	27a30010 	addiu	v1,sp,16
9d0077e0:	00622021 	addu	a0,v1,v0
9d0077e4:	8c840000 	lw	a0,0(a0)
9d0077e8:	2405000a 	li	a1,10
9d0077ec:	70a41802 	mul	v1,a1,a0
9d0077f0:	006b5821 	addu	t3,v1,t3
9d0077f4:	27a30010 	addiu	v1,sp,16
9d0077f8:	00621021 	addu	v0,v1,v0
9d0077fc:	26b50001 	addiu	s5,s5,1
9d007800:	ac4b0000 	sw	t3,0(v0)
9d007804:	16aaffe4 	bne	s5,t2,9d007798 <decfloat+0x228>
9d007808:	24130001 	li	s3,1
9d00780c:	26d60001 	addiu	s6,s6,1
9d007810:	1000ffe1 	b	9d007798 <decfloat+0x228>
9d007814:	0000a825 	move	s5,zero
9d007818:	1049ffdf 	beq	v0,t1,9d007798 <decfloat+0x228>
9d00781c:	8fa20200 	lw	v0,512(sp)
9d007820:	2417045c 	li	s7,1116
9d007824:	34420001 	ori	v0,v0,0x1
9d007828:	1000ffdb 	b	9d007798 <decfloat+0x228>
9d00782c:	afa20200 	sw	v0,512(sp)
9d007830:	02202025 	move	a0,s1
9d007834:	0f403c35 	jal	9d00f0d4 <__shgetc>
9d007838:	afa60210 	sw	a2,528(sp)
9d00783c:	240a0009 	li	t2,9
9d007840:	24090030 	li	t1,48
9d007844:	2407002e 	li	a3,46
9d007848:	1000ff73 	b	9d007618 <decfloat+0xa8>
9d00784c:	8fa60210 	lw	a2,528(sp)
9d007850:	1000ff79 	b	9d007638 <decfloat+0xc8>
9d007854:	2402002e 	li	v0,46
9d007858:	17d00016 	bne	s8,s0,9d0078b4 <decfloat+0x344>
9d00785c:	8fa2025c 	lw	v0,604(sp)
9d007860:	14d40015 	bne	a2,s4,9d0078b8 <decfloat+0x348>
9d007864:	8fa3025c 	lw	v1,604(sp)
9d007868:	1e800014 	bgtz	s4,9d0078bc <decfloat+0x34c>
9d00786c:	000217c2 	srl	v0,v0,0x1f
9d007870:	16800003 	bnez	s4,9d007880 <decfloat+0x310>
9d007874:	2e02000a 	sltiu	v0,s0,10
9d007878:	1040000f 	beqz	v0,9d0078b8 <decfloat+0x348>
9d00787c:	8fa2025c 	lw	v0,604(sp)
9d007880:	8fa20258 	lw	v0,600(sp)
9d007884:	2842001f 	slti	v0,v0,31
9d007888:	10400005 	beqz	v0,9d0078a0 <decfloat+0x330>
9d00788c:	00000000 	nop
9d007890:	8fa20258 	lw	v0,600(sp)
9d007894:	00511006 	srlv	v0,s1,v0
9d007898:	54400006 	bnezl	v0,9d0078b4 <decfloat+0x344>
9d00789c:	8fa2025c 	lw	v0,604(sp)
9d0078a0:	0f404265 	jal	9d010994 <__floatunsidf>
9d0078a4:	02202025 	move	a0,s1
9d0078a8:	02403025 	move	a2,s2
9d0078ac:	1000ff88 	b	9d0076d0 <decfloat+0x160>
9d0078b0:	02603825 	move	a3,s3
9d0078b4:	8fa3025c 	lw	v1,604(sp)
9d0078b8:	000217c2 	srl	v0,v0,0x1f
9d0078bc:	00431021 	addu	v0,v0,v1
9d0078c0:	00021043 	sra	v0,v0,0x1
9d0078c4:	00021023 	negu	v0,v0
9d0078c8:	00021fc3 	sra	v1,v0,0x1f
9d0078cc:	0074202a 	slt	a0,v1,s4
9d0078d0:	54800006 	bnezl	a0,9d0078ec <decfloat+0x37c>
9d0078d4:	3c109d00 	lui	s0,0x9d00
9d0078d8:	1683000f 	bne	s4,v1,9d007918 <decfloat+0x3a8>
9d0078dc:	0050102b 	sltu	v0,v0,s0
9d0078e0:	5040000e 	beqzl	v0,9d00791c <decfloat+0x3ac>
9d0078e4:	8fa2025c 	lw	v0,604(sp)
9d0078e8:	3c109d00 	lui	s0,0x9d00
9d0078ec:	8e0674e0 	lw	a2,29920(s0)
9d0078f0:	8e0774e4 	lw	a3,29924(s0)
9d0078f4:	3c02a000 	lui	v0,0xa000
9d0078f8:	24030022 	li	v1,34
9d0078fc:	ac431948 	sw	v1,6472(v0)
9d007900:	02402025 	move	a0,s2
9d007904:	0f4030c3 	jal	9d00c30c <__muldf3>
9d007908:	02602825 	move	a1,s3
9d00790c:	8e0674e0 	lw	a2,29920(s0)
9d007910:	1000ff6f 	b	9d0076d0 <decfloat+0x160>
9d007914:	8e0774e4 	lw	a3,29924(s0)
9d007918:	8fa2025c 	lw	v0,604(sp)
9d00791c:	2442ff96 	addiu	v0,v0,-106
9d007920:	00021fc3 	sra	v1,v0,0x1f
9d007924:	0283202a 	slt	a0,s4,v1
9d007928:	54800006 	bnezl	a0,9d007944 <decfloat+0x3d4>
9d00792c:	3c109d00 	lui	s0,0x9d00
9d007930:	1474000f 	bne	v1,s4,9d007970 <decfloat+0x400>
9d007934:	0202102b 	sltu	v0,s0,v0
9d007938:	1040000d 	beqz	v0,9d007970 <decfloat+0x400>
9d00793c:	00000000 	nop
9d007940:	3c109d00 	lui	s0,0x9d00
9d007944:	8e0674e8 	lw	a2,29928(s0)
9d007948:	8e0774ec 	lw	a3,29932(s0)
9d00794c:	3c02a000 	lui	v0,0xa000
9d007950:	24030022 	li	v1,34
9d007954:	ac431948 	sw	v1,6472(v0)
9d007958:	02402025 	move	a0,s2
9d00795c:	0f4030c3 	jal	9d00c30c <__muldf3>
9d007960:	02602825 	move	a1,s3
9d007964:	8e0674e8 	lw	a2,29928(s0)
9d007968:	1000ff59 	b	9d0076d0 <decfloat+0x160>
9d00796c:	8e0774ec 	lw	a3,29932(s0)
9d007970:	12a00008 	beqz	s5,9d007994 <decfloat+0x424>
9d007974:	00161080 	sll	v0,s6,0x2
9d007978:	27a30010 	addiu	v1,sp,16
9d00797c:	00621021 	addu	v0,v1,v0
9d007980:	2404000a 	li	a0,10
9d007984:	2aa30009 	slti	v1,s5,9
9d007988:	54600027 	bnezl	v1,9d007a28 <decfloat+0x4b8>
9d00798c:	8c430000 	lw	v1,0(v0)
9d007990:	26d60001 	addiu	s6,s6,1
9d007994:	2ae20009 	slti	v0,s7,9
9d007998:	10400047 	beqz	v0,9d007ab8 <decfloat+0x548>
9d00799c:	0200a025 	move	s4,s0
9d0079a0:	0217b82a 	slt	s7,s0,s7
9d0079a4:	16e00044 	bnez	s7,9d007ab8 <decfloat+0x548>
9d0079a8:	2a020012 	slti	v0,s0,18
9d0079ac:	10400042 	beqz	v0,9d007ab8 <decfloat+0x548>
9d0079b0:	24020009 	li	v0,9
9d0079b4:	1202ffba 	beq	s0,v0,9d0078a0 <decfloat+0x330>
9d0079b8:	8fb10010 	lw	s1,16(sp)
9d0079bc:	2a020009 	slti	v0,s0,9
9d0079c0:	5040001d 	beqzl	v0,9d007a38 <decfloat+0x4c8>
9d0079c4:	2602fff7 	addiu	v0,s0,-9
9d0079c8:	0f404265 	jal	9d010994 <__floatunsidf>
9d0079cc:	02202025 	move	a0,s1
9d0079d0:	00602825 	move	a1,v1
9d0079d4:	02403025 	move	a2,s2
9d0079d8:	02603825 	move	a3,s3
9d0079dc:	0f4030c3 	jal	9d00c30c <__muldf3>
9d0079e0:	00402025 	move	a0,v0
9d0079e4:	00409025 	move	s2,v0
9d0079e8:	24020008 	li	v0,8
9d0079ec:	00508023 	subu	s0,v0,s0
9d0079f0:	3c029d01 	lui	v0,0x9d01
9d0079f4:	24420ce4 	addiu	v0,v0,3300
9d0079f8:	00108080 	sll	s0,s0,0x2
9d0079fc:	02028021 	addu	s0,s0,v0
9d007a00:	8e040000 	lw	a0,0(s0)
9d007a04:	0f403fe4 	jal	9d00ff90 <__floatsidf>
9d007a08:	00609825 	move	s3,v1
9d007a0c:	00403025 	move	a2,v0
9d007a10:	00603825 	move	a3,v1
9d007a14:	02402025 	move	a0,s2
9d007a18:	0f40287b 	jal	9d00a1ec <__divdf3>
9d007a1c:	02602825 	move	a1,s3
9d007a20:	10000224 	b	9d0082b4 <decfloat+0xd44>
9d007a24:	8fbf024c 	lw	ra,588(sp)
9d007a28:	26b50001 	addiu	s5,s5,1
9d007a2c:	70641802 	mul	v1,v1,a0
9d007a30:	1000ffd4 	b	9d007984 <decfloat+0x414>
9d007a34:	ac430000 	sw	v1,0(v0)
9d007a38:	00021880 	sll	v1,v0,0x2
9d007a3c:	00431023 	subu	v0,v0,v1
9d007a40:	8fa30258 	lw	v1,600(sp)
9d007a44:	00431021 	addu	v0,v0,v1
9d007a48:	2843001f 	slti	v1,v0,31
9d007a4c:	50600005 	beqzl	v1,9d007a64 <decfloat+0x4f4>
9d007a50:	2610fff6 	addiu	s0,s0,-10
9d007a54:	00511006 	srlv	v0,s1,v0
9d007a58:	54400018 	bnezl	v0,9d007abc <decfloat+0x54c>
9d007a5c:	26c3ffff 	addiu	v1,s6,-1
9d007a60:	2610fff6 	addiu	s0,s0,-10
9d007a64:	3c029d01 	lui	v0,0x9d01
9d007a68:	24420ce4 	addiu	v0,v0,3300
9d007a6c:	00108080 	sll	s0,s0,0x2
9d007a70:	02028021 	addu	s0,s0,v0
9d007a74:	0f403fe4 	jal	9d00ff90 <__floatsidf>
9d007a78:	8e040000 	lw	a0,0(s0)
9d007a7c:	02202025 	move	a0,s1
9d007a80:	0040a025 	move	s4,v0
9d007a84:	0f404265 	jal	9d010994 <__floatunsidf>
9d007a88:	0060a825 	move	s5,v1
9d007a8c:	00402025 	move	a0,v0
9d007a90:	02403025 	move	a2,s2
9d007a94:	02603825 	move	a3,s3
9d007a98:	0f4030c3 	jal	9d00c30c <__muldf3>
9d007a9c:	00602825 	move	a1,v1
9d007aa0:	00403025 	move	a2,v0
9d007aa4:	00603825 	move	a3,v1
9d007aa8:	02802025 	move	a0,s4
9d007aac:	1000ff0a 	b	9d0076d8 <decfloat+0x168>
9d007ab0:	02a02825 	move	a1,s5
9d007ab4:	0060b025 	move	s6,v1
9d007ab8:	26c3ffff 	addiu	v1,s6,-1
9d007abc:	00031080 	sll	v0,v1,0x2
9d007ac0:	27a40010 	addiu	a0,sp,16
9d007ac4:	00821021 	addu	v0,a0,v0
9d007ac8:	8c420000 	lw	v0,0(v0)
9d007acc:	1040fff9 	beqz	v0,9d007ab4 <decfloat+0x544>
9d007ad0:	24090009 	li	t1,9
9d007ad4:	0209001a 	div	zero,s0,t1
9d007ad8:	012001f4 	teq	t1,zero,0x7
9d007adc:	00004810 	mfhi	t1
9d007ae0:	1120001c 	beqz	t1,9d007b54 <decfloat+0x5e4>
9d007ae4:	3c0c0089 	lui	t4,0x89
9d007ae8:	06020001 	bltzl	s0,9d007af0 <decfloat+0x580>
9d007aec:	25290009 	addiu	t1,t1,9
9d007af0:	24020008 	li	v0,8
9d007af4:	00491023 	subu	v0,v0,t1
9d007af8:	3c039d01 	lui	v1,0x9d01
9d007afc:	24630ce4 	addiu	v1,v1,3300
9d007b00:	00021080 	sll	v0,v0,0x2
9d007b04:	00431021 	addu	v0,v0,v1
9d007b08:	8c460000 	lw	a2,0(v0)
9d007b0c:	3c073b9a 	lui	a3,0x3b9a
9d007b10:	27a50010 	addiu	a1,sp,16
9d007b14:	00001825 	move	v1,zero
9d007b18:	00005025 	move	t2,zero
9d007b1c:	00002025 	move	a0,zero
9d007b20:	34e7ca00 	ori	a3,a3,0xca00
9d007b24:	54960052 	bnel	a0,s6,9d007c70 <decfloat+0x700>
9d007b28:	8ca20000 	lw	v0,0(a1)
9d007b2c:	10600005 	beqz	v1,9d007b44 <decfloat+0x5d4>
9d007b30:	00161080 	sll	v0,s6,0x2
9d007b34:	27a40010 	addiu	a0,sp,16
9d007b38:	00821021 	addu	v0,a0,v0
9d007b3c:	ac430000 	sw	v1,0(v0)
9d007b40:	26d60001 	addiu	s6,s6,1
9d007b44:	0289a023 	subu	s4,s4,t1
9d007b48:	26940009 	addiu	s4,s4,9
9d007b4c:	01404825 	move	t1,t2
9d007b50:	3c0c0089 	lui	t4,0x89
9d007b54:	3c103b9a 	lui	s0,0x3b9a
9d007b58:	3c0d3b9a 	lui	t5,0x3b9a
9d007b5c:	0000b825 	move	s7,zero
9d007b60:	240e0012 	li	t6,18
9d007b64:	258c705f 	addiu	t4,t4,28767
9d007b68:	3610ca00 	ori	s0,s0,0xca00
9d007b6c:	00008825 	move	s1,zero
9d007b70:	35adca01 	ori	t5,t5,0xca01
9d007b74:	2a820012 	slti	v0,s4,18
9d007b78:	14400050 	bnez	v0,9d007cbc <decfloat+0x74c>
9d007b7c:	26d5ffff 	addiu	s5,s6,-1
9d007b80:	168e0007 	bne	s4,t6,9d007ba0 <decfloat+0x630>
9d007b84:	00091080 	sll	v0,t1,0x2
9d007b88:	27a30010 	addiu	v1,sp,16
9d007b8c:	00621021 	addu	v0,v1,v0
9d007b90:	8c420000 	lw	v0,0(v0)
9d007b94:	004c102b 	sltu	v0,v0,t4
9d007b98:	14400049 	bnez	v0,9d007cc0 <decfloat+0x750>
9d007b9c:	32b5007f 	andi	s5,s5,0x7f
9d007ba0:	3c040089 	lui	a0,0x89
9d007ba4:	3c050f2f 	lui	a1,0xf2f
9d007ba8:	3c063b9a 	lui	a2,0x3b9a
9d007bac:	240a0012 	li	t2,18
9d007bb0:	2484705f 	addiu	a0,a0,28767
9d007bb4:	24a50a00 	addiu	a1,a1,2560
9d007bb8:	24070001 	li	a3,1
9d007bbc:	240b0009 	li	t3,9
9d007bc0:	34c6ca00 	ori	a2,a2,0xca00
9d007bc4:	11360012 	beq	t1,s6,9d007c10 <decfloat+0x6a0>
9d007bc8:	27a30010 	addiu	v1,sp,16
9d007bcc:	00091080 	sll	v0,t1,0x2
9d007bd0:	00621021 	addu	v0,v1,v0
9d007bd4:	8c420000 	lw	v0,0(v0)
9d007bd8:	0044182b 	sltu	v1,v0,a0
9d007bdc:	1460000c 	bnez	v1,9d007c10 <decfloat+0x6a0>
9d007be0:	00000000 	nop
9d007be4:	1444000c 	bne	v0,a0,9d007c18 <decfloat+0x6a8>
9d007be8:	25220001 	addiu	v0,t1,1
9d007bec:	3042007f 	andi	v0,v0,0x7f
9d007bf0:	12c20007 	beq	s6,v0,9d007c10 <decfloat+0x6a0>
9d007bf4:	00021080 	sll	v0,v0,0x2
9d007bf8:	27a30010 	addiu	v1,sp,16
9d007bfc:	00621021 	addu	v0,v1,v0
9d007c00:	8c420000 	lw	v0,0(v0)
9d007c04:	0045102b 	sltu	v0,v0,a1
9d007c08:	10400004 	beqz	v0,9d007c1c <decfloat+0x6ac>
9d007c0c:	2a83001c 	slti	v1,s4,28
9d007c10:	128a0093 	beq	s4,t2,9d007e60 <decfloat+0x8f0>
9d007c14:	00000000 	nop
9d007c18:	2a83001c 	slti	v1,s4,28
9d007c1c:	01601025 	move	v0,t3
9d007c20:	00e3100b 	movn	v0,a3,v1
9d007c24:	0047c004 	sllv	t8,a3,v0
9d007c28:	00401825 	move	v1,v0
9d007c2c:	0046c807 	srav	t9,a2,v0
9d007c30:	2718ffff 	addiu	t8,t8,-1
9d007c34:	01201025 	move	v0,t1
9d007c38:	00006025 	move	t4,zero
9d007c3c:	5456006d 	bnel	v0,s6,9d007df4 <decfloat+0x884>
9d007c40:	00027080 	sll	t6,v0,0x2
9d007c44:	11800008 	beqz	t4,9d007c68 <decfloat+0x6f8>
9d007c48:	26c20001 	addiu	v0,s6,1
9d007c4c:	3042007f 	andi	v0,v0,0x7f
9d007c50:	1049007a 	beq	v0,t1,9d007e3c <decfloat+0x8cc>
9d007c54:	00164080 	sll	t0,s6,0x2
9d007c58:	27ad0010 	addiu	t5,sp,16
9d007c5c:	01a84021 	addu	t0,t5,t0
9d007c60:	ad0c0000 	sw	t4,0(t0)
9d007c64:	0040b025 	move	s6,v0
9d007c68:	1000ffd6 	b	9d007bc4 <decfloat+0x654>
9d007c6c:	02e3b821 	addu	s7,s7,v1
9d007c70:	248b0001 	addiu	t3,a0,1
9d007c74:	0046001b 	divu	zero,v0,a2
9d007c78:	00c001f4 	teq	a2,zero,0x7
9d007c7c:	00001012 	mflo	v0
9d007c80:	00431021 	addu	v0,v0,v1
9d007c84:	148a0005 	bne	a0,t2,9d007c9c <decfloat+0x72c>
9d007c88:	00006010 	mfhi	t4
9d007c8c:	14400003 	bnez	v0,9d007c9c <decfloat+0x72c>
9d007c90:	00000000 	nop
9d007c94:	316a007f 	andi	t2,t3,0x7f
9d007c98:	2694fff7 	addiu	s4,s4,-9
9d007c9c:	00e6001a 	div	zero,a3,a2
9d007ca0:	00c001f4 	teq	a2,zero,0x7
9d007ca4:	aca20000 	sw	v0,0(a1)
9d007ca8:	01602025 	move	a0,t3
9d007cac:	24a50004 	addiu	a1,a1,4
9d007cb0:	00001012 	mflo	v0
9d007cb4:	1000ff9b 	b	9d007b24 <decfloat+0x5b4>
9d007cb8:	704c1802 	mul	v1,v0,t4
9d007cbc:	32b5007f 	andi	s5,s5,0x7f
9d007cc0:	00005025 	move	t2,zero
9d007cc4:	00155880 	sll	t3,s5,0x2
9d007cc8:	27a20010 	addiu	v0,sp,16
9d007ccc:	004b1021 	addu	v0,v0,t3
9d007cd0:	8c5e0000 	lw	s8,0(v0)
9d007cd4:	001e10c2 	srl	v0,s8,0x3
9d007cd8:	001ef740 	sll	s8,s8,0x1d
9d007cdc:	03ca7821 	addu	t7,s8,t2
9d007ce0:	01fef02b 	sltu	s8,t7,s8
9d007ce4:	03c2f021 	addu	s8,s8,v0
9d007ce8:	17c00003 	bnez	s8,9d007cf8 <decfloat+0x788>
9d007cec:	01ed102b 	sltu	v0,t7,t5
9d007cf0:	14400024 	bnez	v0,9d007d84 <decfloat+0x814>
9d007cf4:	01e01025 	move	v0,t7
9d007cf8:	01e02025 	move	a0,t7
9d007cfc:	02003025 	move	a2,s0
9d007d00:	02203825 	move	a3,s1
9d007d04:	03c02825 	move	a1,s8
9d007d08:	afab0220 	sw	t3,544(sp)
9d007d0c:	afa90218 	sw	t1,536(sp)
9d007d10:	0f402ee6 	jal	9d00bb98 <__udivdi3>
9d007d14:	afaf0214 	sw	t7,532(sp)
9d007d18:	8faf0214 	lw	t7,532(sp)
9d007d1c:	02003025 	move	a2,s0
9d007d20:	02203825 	move	a3,s1
9d007d24:	01e02025 	move	a0,t7
9d007d28:	03c02825 	move	a1,s8
9d007d2c:	0f402fd5 	jal	9d00bf54 <__umoddi3>
9d007d30:	afa20210 	sw	v0,528(sp)
9d007d34:	3c030089 	lui	v1,0x89
9d007d38:	8faa0210 	lw	t2,528(sp)
9d007d3c:	8fa90218 	lw	t1,536(sp)
9d007d40:	8fab0220 	lw	t3,544(sp)
9d007d44:	346c705f 	ori	t4,v1,0x705f
9d007d48:	3c033b9a 	lui	v1,0x3b9a
9d007d4c:	240e0012 	li	t6,18
9d007d50:	346dca01 	ori	t5,v1,0xca01
9d007d54:	27a30010 	addiu	v1,sp,16
9d007d58:	006b5821 	addu	t3,v1,t3
9d007d5c:	26c3ffff 	addiu	v1,s6,-1
9d007d60:	3063007f 	andi	v1,v1,0x7f
9d007d64:	14750009 	bne	v1,s5,9d007d8c <decfloat+0x81c>
9d007d68:	ad620000 	sw	v0,0(t3)
9d007d6c:	52a90009 	beql	s5,t1,9d007d94 <decfloat+0x824>
9d007d70:	01201825 	move	v1,t1
9d007d74:	02a2b00a 	movz	s6,s5,v0
9d007d78:	26b5ffff 	addiu	s5,s5,-1
9d007d7c:	1000ffd1 	b	9d007cc4 <decfloat+0x754>
9d007d80:	32b5007f 	andi	s5,s5,0x7f
9d007d84:	1000fff3 	b	9d007d54 <decfloat+0x7e4>
9d007d88:	00005025 	move	t2,zero
9d007d8c:	56a9fffb 	bnel	s5,t1,9d007d7c <decfloat+0x80c>
9d007d90:	26b5ffff 	addiu	s5,s5,-1
9d007d94:	5140ff77 	beqzl	t2,9d007b74 <decfloat+0x604>
9d007d98:	26f7ffe3 	addiu	s7,s7,-29
9d007d9c:	2529ffff 	addiu	t1,t1,-1
9d007da0:	3129007f 	andi	t1,t1,0x7f
9d007da4:	16c9000c 	bne	s6,t1,9d007dd8 <decfloat+0x868>
9d007da8:	2462ffff 	addiu	v0,v1,-1
9d007dac:	3042007f 	andi	v0,v0,0x7f
9d007db0:	27a40010 	addiu	a0,sp,16
9d007db4:	00021080 	sll	v0,v0,0x2
9d007db8:	00032880 	sll	a1,v1,0x2
9d007dbc:	00821021 	addu	v0,a0,v0
9d007dc0:	00852821 	addu	a1,a0,a1
9d007dc4:	8ca50000 	lw	a1,0(a1)
9d007dc8:	8c440000 	lw	a0,0(v0)
9d007dcc:	0060b025 	move	s6,v1
9d007dd0:	00852025 	or	a0,a0,a1
9d007dd4:	ac440000 	sw	a0,0(v0)
9d007dd8:	00091080 	sll	v0,t1,0x2
9d007ddc:	27a30010 	addiu	v1,sp,16
9d007de0:	00621021 	addu	v0,v1,v0
9d007de4:	26940009 	addiu	s4,s4,9
9d007de8:	ac4a0000 	sw	t2,0(v0)
9d007dec:	1000ff61 	b	9d007b74 <decfloat+0x604>
9d007df0:	26f7ffe3 	addiu	s7,s7,-29
9d007df4:	27a80010 	addiu	t0,sp,16
9d007df8:	010e6821 	addu	t5,t0,t6
9d007dfc:	8dad0000 	lw	t5,0(t5)
9d007e00:	006d7806 	srlv	t7,t5,v1
9d007e04:	01ec6021 	addu	t4,t7,t4
9d007e08:	14490005 	bne	v0,t1,9d007e20 <decfloat+0x8b0>
9d007e0c:	244f0001 	addiu	t7,v0,1
9d007e10:	55800004 	bnezl	t4,9d007e24 <decfloat+0x8b4>
9d007e14:	27a20010 	addiu	v0,sp,16
9d007e18:	31e9007f 	andi	t1,t7,0x7f
9d007e1c:	2694fff7 	addiu	s4,s4,-9
9d007e20:	27a20010 	addiu	v0,sp,16
9d007e24:	004e7021 	addu	t6,v0,t6
9d007e28:	adcc0000 	sw	t4,0(t6)
9d007e2c:	030d6024 	and	t4,t8,t5
9d007e30:	71996002 	mul	t4,t4,t9
9d007e34:	1000ff81 	b	9d007c3c <decfloat+0x6cc>
9d007e38:	31e2007f 	andi	v0,t7,0x7f
9d007e3c:	26c2ffff 	addiu	v0,s6,-1
9d007e40:	3042007f 	andi	v0,v0,0x7f
9d007e44:	00021080 	sll	v0,v0,0x2
9d007e48:	27a80010 	addiu	t0,sp,16
9d007e4c:	01021021 	addu	v0,t0,v0
9d007e50:	8c4c0000 	lw	t4,0(v0)
9d007e54:	358c0001 	ori	t4,t4,0x1
9d007e58:	1000ff83 	b	9d007c68 <decfloat+0x6f8>
9d007e5c:	ac4c0000 	sw	t4,0(v0)
9d007e60:	15360007 	bne	t1,s6,9d007e80 <decfloat+0x910>
9d007e64:	25340001 	addiu	s4,t1,1
9d007e68:	3296007f 	andi	s6,s4,0x7f
9d007e6c:	26c2ffff 	addiu	v0,s6,-1
9d007e70:	00021080 	sll	v0,v0,0x2
9d007e74:	27a30010 	addiu	v1,sp,16
9d007e78:	00621021 	addu	v0,v1,v0
9d007e7c:	ac400000 	sw	zero,0(v0)
9d007e80:	00091080 	sll	v0,t1,0x2
9d007e84:	27a30010 	addiu	v1,sp,16
9d007e88:	00621021 	addu	v0,v1,v0
9d007e8c:	8c440000 	lw	a0,0(v0)
9d007e90:	afa90210 	sw	t1,528(sp)
9d007e94:	0f404265 	jal	9d010994 <__floatunsidf>
9d007e98:	3294007f 	andi	s4,s4,0x7f
9d007e9c:	00402025 	move	a0,v0
9d007ea0:	00602825 	move	a1,v1
9d007ea4:	00003025 	move	a2,zero
9d007ea8:	0f402cde 	jal	9d00b378 <__adddf3>
9d007eac:	00003825 	move	a3,zero
9d007eb0:	00402025 	move	a0,v0
9d007eb4:	00602825 	move	a1,v1
9d007eb8:	16d40008 	bne	s6,s4,9d007edc <decfloat+0x96c>
9d007ebc:	8fa90210 	lw	t1,528(sp)
9d007ec0:	26c80001 	addiu	t0,s6,1
9d007ec4:	3116007f 	andi	s6,t0,0x7f
9d007ec8:	26c3ffff 	addiu	v1,s6,-1
9d007ecc:	00031880 	sll	v1,v1,0x2
9d007ed0:	27a20010 	addiu	v0,sp,16
9d007ed4:	00431821 	addu	v1,v0,v1
9d007ed8:	ac600000 	sw	zero,0(v1)
9d007edc:	3c029d00 	lui	v0,0x9d00
9d007ee0:	8c4674f0 	lw	a2,29936(v0)
9d007ee4:	8c4774f4 	lw	a3,29940(v0)
9d007ee8:	afa90210 	sw	t1,528(sp)
9d007eec:	0f4030c3 	jal	9d00c30c <__muldf3>
9d007ef0:	0014a080 	sll	s4,s4,0x2
9d007ef4:	00408025 	move	s0,v0
9d007ef8:	27a20010 	addiu	v0,sp,16
9d007efc:	0054a021 	addu	s4,v0,s4
9d007f00:	8e840000 	lw	a0,0(s4)
9d007f04:	0f404265 	jal	9d010994 <__floatunsidf>
9d007f08:	00608825 	move	s1,v1
9d007f0c:	00402025 	move	a0,v0
9d007f10:	02003025 	move	a2,s0
9d007f14:	02203825 	move	a3,s1
9d007f18:	0f402cde 	jal	9d00b378 <__adddf3>
9d007f1c:	00602825 	move	a1,v1
9d007f20:	00403025 	move	a2,v0
9d007f24:	00603825 	move	a3,v1
9d007f28:	02402025 	move	a0,s2
9d007f2c:	0f4030c3 	jal	9d00c30c <__muldf3>
9d007f30:	02602825 	move	a1,s3
9d007f34:	0060a825 	move	s5,v1
9d007f38:	8fa3025c 	lw	v1,604(sp)
9d007f3c:	0040a025 	move	s4,v0
9d007f40:	26e20035 	addiu	v0,s7,53
9d007f44:	00431023 	subu	v0,v0,v1
9d007f48:	8fa30258 	lw	v1,600(sp)
9d007f4c:	afa20214 	sw	v0,532(sp)
9d007f50:	0043102a 	slt	v0,v0,v1
9d007f54:	104000b3 	beqz	v0,9d008224 <decfloat+0xcb4>
9d007f58:	8fa90210 	lw	t1,528(sp)
9d007f5c:	8fa20214 	lw	v0,532(sp)
9d007f60:	044200b3 	bltzl	v0,9d008230 <decfloat+0xcc0>
9d007f64:	24020001 	li	v0,1
9d007f68:	0040f025 	move	s8,v0
9d007f6c:	24020001 	li	v0,1
9d007f70:	afa20210 	sw	v0,528(sp)
9d007f74:	2bc20035 	slti	v0,s8,53
9d007f78:	afa00218 	sw	zero,536(sp)
9d007f7c:	afa0021c 	sw	zero,540(sp)
9d007f80:	00008025 	move	s0,zero
9d007f84:	1040002a 	beqz	v0,9d008030 <decfloat+0xac0>
9d007f88:	00008825 	move	s1,zero
9d007f8c:	3c029d00 	lui	v0,0x9d00
9d007f90:	8c5074f8 	lw	s0,29944(v0)
9d007f94:	8c5174fc 	lw	s1,29948(v0)
9d007f98:	24060069 	li	a2,105
9d007f9c:	02002025 	move	a0,s0
9d007fa0:	02202825 	move	a1,s1
9d007fa4:	00de3023 	subu	a2,a2,s8
9d007fa8:	0f403ac6 	jal	9d00eb18 <scalbn>
9d007fac:	afa90220 	sw	t1,544(sp)
9d007fb0:	00402025 	move	a0,v0
9d007fb4:	02a03825 	move	a3,s5
9d007fb8:	02803025 	move	a2,s4
9d007fbc:	0f404362 	jal	9d010d88 <copysignl>
9d007fc0:	00602825 	move	a1,v1
9d007fc4:	24060035 	li	a2,53
9d007fc8:	02002025 	move	a0,s0
9d007fcc:	02202825 	move	a1,s1
9d007fd0:	00de3023 	subu	a2,a2,s8
9d007fd4:	afa20218 	sw	v0,536(sp)
9d007fd8:	0f403ac6 	jal	9d00eb18 <scalbn>
9d007fdc:	afa3021c 	sw	v1,540(sp)
9d007fe0:	00403025 	move	a2,v0
9d007fe4:	02802025 	move	a0,s4
9d007fe8:	02a02825 	move	a1,s5
9d007fec:	0f40323b 	jal	9d00c8ec <dpfmod>
9d007ff0:	00603825 	move	a3,v1
9d007ff4:	00403025 	move	a2,v0
9d007ff8:	02802025 	move	a0,s4
9d007ffc:	02a02825 	move	a1,s5
9d008000:	00603825 	move	a3,v1
9d008004:	00408025 	move	s0,v0
9d008008:	0f402cdc 	jal	9d00b370 <__subdf3>
9d00800c:	00608825 	move	s1,v1
9d008010:	8fa40218 	lw	a0,536(sp)
9d008014:	8fa5021c 	lw	a1,540(sp)
9d008018:	00403025 	move	a2,v0
9d00801c:	0f402cde 	jal	9d00b378 <__adddf3>
9d008020:	00603825 	move	a3,v1
9d008024:	8fa90220 	lw	t1,544(sp)
9d008028:	0040a025 	move	s4,v0
9d00802c:	0060a825 	move	s5,v1
9d008030:	25220002 	addiu	v0,t1,2
9d008034:	3042007f 	andi	v0,v0,0x7f
9d008038:	10560034 	beq	v0,s6,9d00810c <decfloat+0xb9c>
9d00803c:	27a30010 	addiu	v1,sp,16
9d008040:	00021080 	sll	v0,v0,0x2
9d008044:	00621021 	addu	v0,v1,v0
9d008048:	8c430000 	lw	v1,0(v0)
9d00804c:	3c021dcd 	lui	v0,0x1dcd
9d008050:	24426500 	addiu	v0,v0,25856
9d008054:	0062202b 	sltu	a0,v1,v0
9d008058:	10800078 	beqz	a0,9d00823c <decfloat+0xccc>
9d00805c:	00000000 	nop
9d008060:	14600004 	bnez	v1,9d008074 <decfloat+0xb04>
9d008064:	25290003 	addiu	t1,t1,3
9d008068:	3129007f 	andi	t1,t1,0x7f
9d00806c:	1136000f 	beq	t1,s6,9d0080ac <decfloat+0xb3c>
9d008070:	24020035 	li	v0,53
9d008074:	3c029d00 	lui	v0,0x9d00
9d008078:	8c467500 	lw	a2,29952(v0)
9d00807c:	8c477504 	lw	a3,29956(v0)
9d008080:	02402025 	move	a0,s2
9d008084:	0f4030c3 	jal	9d00c30c <__muldf3>
9d008088:	02602825 	move	a1,s3
9d00808c:	00403025 	move	a2,v0
9d008090:	02002025 	move	a0,s0
9d008094:	02202825 	move	a1,s1
9d008098:	0f402cde 	jal	9d00b378 <__adddf3>
9d00809c:	00603825 	move	a3,v1
9d0080a0:	00408025 	move	s0,v0
9d0080a4:	00608825 	move	s1,v1
9d0080a8:	24020035 	li	v0,53
9d0080ac:	005e1023 	subu	v0,v0,s8
9d0080b0:	28420002 	slti	v0,v0,2
9d0080b4:	14400015 	bnez	v0,9d00810c <decfloat+0xb9c>
9d0080b8:	3c029d00 	lui	v0,0x9d00
9d0080bc:	8c5274f8 	lw	s2,29944(v0)
9d0080c0:	8c5374fc 	lw	s3,29948(v0)
9d0080c4:	02002025 	move	a0,s0
9d0080c8:	02403025 	move	a2,s2
9d0080cc:	02603825 	move	a3,s3
9d0080d0:	0f40323b 	jal	9d00c8ec <dpfmod>
9d0080d4:	02202825 	move	a1,s1
9d0080d8:	00402025 	move	a0,v0
9d0080dc:	00003025 	move	a2,zero
9d0080e0:	00003825 	move	a3,zero
9d0080e4:	0f40389b 	jal	9d00e26c <__eqdf2>
9d0080e8:	00602825 	move	a1,v1
9d0080ec:	14400007 	bnez	v0,9d00810c <decfloat+0xb9c>
9d0080f0:	02002025 	move	a0,s0
9d0080f4:	02202825 	move	a1,s1
9d0080f8:	02403025 	move	a2,s2
9d0080fc:	0f402cde 	jal	9d00b378 <__adddf3>
9d008100:	02603825 	move	a3,s3
9d008104:	00408025 	move	s0,v0
9d008108:	00608825 	move	s1,v1
9d00810c:	8fa2025c 	lw	v0,604(sp)
9d008110:	8fa30258 	lw	v1,600(sp)
9d008114:	02003025 	move	a2,s0
9d008118:	00021023 	negu	v0,v0
9d00811c:	02203825 	move	a3,s1
9d008120:	02802025 	move	a0,s4
9d008124:	02a02825 	move	a1,s5
9d008128:	0f402cde 	jal	9d00b378 <__adddf3>
9d00812c:	0043b023 	subu	s6,v0,v1
9d008130:	8fa60218 	lw	a2,536(sp)
9d008134:	8fa7021c 	lw	a3,540(sp)
9d008138:	00402025 	move	a0,v0
9d00813c:	0f402cdc 	jal	9d00b370 <__subdf3>
9d008140:	00602825 	move	a1,v1
9d008144:	00409025 	move	s2,v0
9d008148:	26e20035 	addiu	v0,s7,53
9d00814c:	00609825 	move	s3,v1
9d008150:	7c42f000 	ext	v0,v0,0x0,0x1f
9d008154:	26c3ffff 	addiu	v1,s6,-1
9d008158:	0043102a 	slt	v0,v0,v1
9d00815c:	1440002c 	bnez	v0,9d008210 <decfloat+0xca0>
9d008160:	02e03025 	move	a2,s7
9d008164:	02402025 	move	a0,s2
9d008168:	0f404433 	jal	9d0110cc <fabsl>
9d00816c:	02602825 	move	a1,s3
9d008170:	3c049d00 	lui	a0,0x9d00
9d008174:	8c867518 	lw	a2,29976(a0)
9d008178:	8c87751c 	lw	a3,29980(a0)
9d00817c:	00602825 	move	a1,v1
9d008180:	0f40389b 	jal	9d00e26c <__eqdf2>
9d008184:	00402025 	move	a0,v0
9d008188:	0440000f 	bltz	v0,9d0081c8 <decfloat+0xc58>
9d00818c:	8fa20210 	lw	v0,528(sp)
9d008190:	10400004 	beqz	v0,9d0081a4 <decfloat+0xc34>
9d008194:	8fa20214 	lw	v0,532(sp)
9d008198:	005ef026 	xor	s8,v0,s8
9d00819c:	001e102b 	sltu	v0,zero,s8
9d0081a0:	afa20210 	sw	v0,528(sp)
9d0081a4:	3c029d00 	lui	v0,0x9d00
9d0081a8:	8c467510 	lw	a2,29968(v0)
9d0081ac:	8c477514 	lw	a3,29972(v0)
9d0081b0:	02402025 	move	a0,s2
9d0081b4:	0f4030c3 	jal	9d00c30c <__muldf3>
9d0081b8:	02602825 	move	a1,s3
9d0081bc:	00409025 	move	s2,v0
9d0081c0:	00609825 	move	s3,v1
9d0081c4:	26f70001 	addiu	s7,s7,1
9d0081c8:	26e20034 	addiu	v0,s7,52
9d0081cc:	26d60003 	addiu	s6,s6,3
9d0081d0:	0056b02a 	slt	s6,v0,s6
9d0081d4:	12c0000b 	beqz	s6,9d008204 <decfloat+0xc94>
9d0081d8:	3c02a000 	lui	v0,0xa000
9d0081dc:	8fa20210 	lw	v0,528(sp)
9d0081e0:	1040000a 	beqz	v0,9d00820c <decfloat+0xc9c>
9d0081e4:	00003025 	move	a2,zero
9d0081e8:	00003825 	move	a3,zero
9d0081ec:	02002025 	move	a0,s0
9d0081f0:	0f40389b 	jal	9d00e26c <__eqdf2>
9d0081f4:	02202825 	move	a1,s1
9d0081f8:	10400005 	beqz	v0,9d008210 <decfloat+0xca0>
9d0081fc:	02e03025 	move	a2,s7
9d008200:	3c02a000 	lui	v0,0xa000
9d008204:	24030022 	li	v1,34
9d008208:	ac431948 	sw	v1,6472(v0)
9d00820c:	02e03025 	move	a2,s7
9d008210:	02402025 	move	a0,s2
9d008214:	0f40443a 	jal	9d0110e8 <scalbnl>
9d008218:	02602825 	move	a1,s3
9d00821c:	10000025 	b	9d0082b4 <decfloat+0xd44>
9d008220:	8fbf024c 	lw	ra,588(sp)
9d008224:	8fbe0258 	lw	s8,600(sp)
9d008228:	1000ff52 	b	9d007f74 <decfloat+0xa04>
9d00822c:	afa00210 	sw	zero,528(sp)
9d008230:	afa20210 	sw	v0,528(sp)
9d008234:	1000ff55 	b	9d007f8c <decfloat+0xa1c>
9d008238:	0000f025 	move	s8,zero
9d00823c:	10620005 	beq	v1,v0,9d008254 <decfloat+0xce4>
9d008240:	25290003 	addiu	t1,t1,3
9d008244:	3c029d00 	lui	v0,0x9d00
9d008248:	8c467508 	lw	a2,29960(v0)
9d00824c:	1000ff8c 	b	9d008080 <decfloat+0xb10>
9d008250:	8c47750c 	lw	a3,29964(v0)
9d008254:	3129007f 	andi	t1,t1,0x7f
9d008258:	1536fffa 	bne	t1,s6,9d008244 <decfloat+0xcd4>
9d00825c:	3c029d00 	lui	v0,0x9d00
9d008260:	8c467510 	lw	a2,29968(v0)
9d008264:	1000ff86 	b	9d008080 <decfloat+0xb10>
9d008268:	8c477514 	lw	a3,29972(v0)
9d00826c:	04400009 	bltz	v0,9d008294 <decfloat+0xd24>
9d008270:	3c02a000 	lui	v0,0xa000
9d008274:	8e22004c 	lw	v0,76(s1)
9d008278:	10400004 	beqz	v0,9d00828c <decfloat+0xd1c>
9d00827c:	00000000 	nop
9d008280:	8e22003c 	lw	v0,60(s1)
9d008284:	2442ffff 	addiu	v0,v0,-1
9d008288:	ae22003c 	sw	v0,60(s1)
9d00828c:	1660fd06 	bnez	s3,9d0076a8 <decfloat+0x138>
9d008290:	3c02a000 	lui	v0,0xa000
9d008294:	24030016 	li	v1,22
9d008298:	ac431948 	sw	v1,6472(v0)
9d00829c:	00002825 	move	a1,zero
9d0082a0:	0f404341 	jal	9d010d04 <__shlim>
9d0082a4:	02202025 	move	a0,s1
9d0082a8:	00001025 	move	v0,zero
9d0082ac:	00001825 	move	v1,zero
9d0082b0:	8fbf024c 	lw	ra,588(sp)
9d0082b4:	8fbe0248 	lw	s8,584(sp)
9d0082b8:	8fb70244 	lw	s7,580(sp)
9d0082bc:	8fb60240 	lw	s6,576(sp)
9d0082c0:	8fb5023c 	lw	s5,572(sp)
9d0082c4:	8fb40238 	lw	s4,568(sp)
9d0082c8:	8fb30234 	lw	s3,564(sp)
9d0082cc:	8fb20230 	lw	s2,560(sp)
9d0082d0:	8fb1022c 	lw	s1,556(sp)
9d0082d4:	8fb00228 	lw	s0,552(sp)
9d0082d8:	03e00008 	jr	ra
9d0082dc:	27bd0250 	addiu	sp,sp,592
9d0082e0:	0441ffe4 	bgez	v0,9d008274 <decfloat+0xd04>
9d0082e4:	8fa40260 	lw	a0,608(sp)
9d0082e8:	1000fcf1 	b	9d0076b0 <decfloat+0x140>
9d0082ec:	8fb10010 	lw	s1,16(sp)

Disassembly of section .text.__floatscan:

9d0082f0 <__floatscan>:
9d0082f0:	2ca70003 	sltiu	a3,a1,3
9d0082f4:	00001025 	move	v0,zero
9d0082f8:	10e00302 	beqz	a3,9d008f04 <__floatscan+0xc14>
9d0082fc:	00001825 	move	v1,zero
9d008300:	3c029d01 	lui	v0,0x9d01
9d008304:	24420ce0 	addiu	v0,v0,3296
9d008308:	00a21021 	addu	v0,a1,v0
9d00830c:	80420000 	lb	v0,0(v0)
9d008310:	27bdff80 	addiu	sp,sp,-128
9d008314:	00052840 	sll	a1,a1,0x1
9d008318:	afa20024 	sw	v0,36(sp)
9d00831c:	3c029d01 	lui	v0,0x9d01
9d008320:	24420cd8 	addiu	v0,v0,3288
9d008324:	00a22821 	addu	a1,a1,v0
9d008328:	84a20000 	lh	v0,0(a1)
9d00832c:	afb70074 	sw	s7,116(sp)
9d008330:	afb60070 	sw	s6,112(sp)
9d008334:	afb00058 	sw	s0,88(sp)
9d008338:	afbf007c 	sw	ra,124(sp)
9d00833c:	afbe0078 	sw	s8,120(sp)
9d008340:	afb5006c 	sw	s5,108(sp)
9d008344:	afb40068 	sw	s4,104(sp)
9d008348:	afb30064 	sw	s3,100(sp)
9d00834c:	afb20060 	sw	s2,96(sp)
9d008350:	afb1005c 	sw	s1,92(sp)
9d008354:	00c0b025 	move	s6,a2
9d008358:	0080b825 	move	s7,a0
9d00835c:	afa20018 	sw	v0,24(sp)
9d008360:	24100020 	li	s0,32
9d008364:	8ee2003c 	lw	v0,60(s7)
9d008368:	8ee3004c 	lw	v1,76(s7)
9d00836c:	0043182b 	sltu	v1,v0,v1
9d008370:	10600037 	beqz	v1,9d008450 <__floatscan+0x160>
9d008374:	24430001 	addiu	v1,v0,1
9d008378:	aee3003c 	sw	v1,60(s7)
9d00837c:	90520000 	lbu	s2,0(v0)
9d008380:	1250fff8 	beq	s2,s0,9d008364 <__floatscan+0x74>
9d008384:	2642fff7 	addiu	v0,s2,-9
9d008388:	2c420005 	sltiu	v0,v0,5
9d00838c:	1440fff5 	bnez	v0,9d008364 <__floatscan+0x74>
9d008390:	2402002b 	li	v0,43
9d008394:	12420005 	beq	s2,v0,9d0083ac <__floatscan+0xbc>
9d008398:	00001025 	move	v0,zero
9d00839c:	2402002d 	li	v0,45
9d0083a0:	1642000b 	bne	s2,v0,9d0083d0 <__floatscan+0xe0>
9d0083a4:	24110001 	li	s1,1
9d0083a8:	24020002 	li	v0,2
9d0083ac:	24110001 	li	s1,1
9d0083b0:	02228823 	subu	s1,s1,v0
9d0083b4:	8ee3004c 	lw	v1,76(s7)
9d0083b8:	8ee2003c 	lw	v0,60(s7)
9d0083bc:	0043182b 	sltu	v1,v0,v1
9d0083c0:	10600027 	beqz	v1,9d008460 <__floatscan+0x170>
9d0083c4:	24430001 	addiu	v1,v0,1
9d0083c8:	aee3003c 	sw	v1,60(s7)
9d0083cc:	90520000 	lbu	s2,0(v0)
9d0083d0:	3c139d00 	lui	s3,0x9d00
9d0083d4:	00008025 	move	s0,zero
9d0083d8:	267374d0 	addiu	s3,s3,29904
9d0083dc:	24140007 	li	s4,7
9d0083e0:	24150008 	li	s5,8
9d0083e4:	02701821 	addu	v1,s3,s0
9d0083e8:	80630000 	lb	v1,0(v1)
9d0083ec:	36420020 	ori	v0,s2,0x20
9d0083f0:	1043001f 	beq	v0,v1,9d008470 <__floatscan+0x180>
9d0083f4:	24020003 	li	v0,3
9d0083f8:	12020005 	beq	s0,v0,9d008410 <__floatscan+0x120>
9d0083fc:	2e020004 	sltiu	v0,s0,4
9d008400:	1440003d 	bnez	v0,9d0084f8 <__floatscan+0x208>
9d008404:	00000000 	nop
9d008408:	52c000f9 	beqzl	s6,9d0087f0 <__floatscan+0x500>
9d00840c:	8ee2004c 	lw	v0,76(s7)
9d008410:	8ee3004c 	lw	v1,76(s7)
9d008414:	10600004 	beqz	v1,9d008428 <__floatscan+0x138>
9d008418:	00000000 	nop
9d00841c:	8ee2003c 	lw	v0,60(s7)
9d008420:	2442ffff 	addiu	v0,v0,-1
9d008424:	aee2003c 	sw	v0,60(s7)
9d008428:	12c0001d 	beqz	s6,9d0084a0 <__floatscan+0x1b0>
9d00842c:	24040003 	li	a0,3
9d008430:	1204001c 	beq	s0,a0,9d0084a4 <__floatscan+0x1b4>
9d008434:	2402ffff 	li	v0,-1
9d008438:	1060fffd 	beqz	v1,9d008430 <__floatscan+0x140>
9d00843c:	2610ffff 	addiu	s0,s0,-1
9d008440:	8ee2003c 	lw	v0,60(s7)
9d008444:	2442ffff 	addiu	v0,v0,-1
9d008448:	1000fff9 	b	9d008430 <__floatscan+0x140>
9d00844c:	aee2003c 	sw	v0,60(s7)
9d008450:	0f403c35 	jal	9d00f0d4 <__shgetc>
9d008454:	02e02025 	move	a0,s7
9d008458:	1000ffc9 	b	9d008380 <__floatscan+0x90>
9d00845c:	00409025 	move	s2,v0
9d008460:	0f403c35 	jal	9d00f0d4 <__shgetc>
9d008464:	02e02025 	move	a0,s7
9d008468:	1000ffd9 	b	9d0083d0 <__floatscan+0xe0>
9d00846c:	00409025 	move	s2,v0
9d008470:	52140009 	beql	s0,s4,9d008498 <__floatscan+0x1a8>
9d008474:	26100001 	addiu	s0,s0,1
9d008478:	8ee2003c 	lw	v0,60(s7)
9d00847c:	8ee3004c 	lw	v1,76(s7)
9d008480:	0043182b 	sltu	v1,v0,v1
9d008484:	10600018 	beqz	v1,9d0084e8 <__floatscan+0x1f8>
9d008488:	24430001 	addiu	v1,v0,1
9d00848c:	aee3003c 	sw	v1,60(s7)
9d008490:	90520000 	lbu	s2,0(v0)
9d008494:	26100001 	addiu	s0,s0,1
9d008498:	1615ffd3 	bne	s0,s5,9d0083e8 <__floatscan+0xf8>
9d00849c:	02701821 	addu	v1,s3,s0
9d0084a0:	2402ffff 	li	v0,-1
9d0084a4:	1222028c 	beq	s1,v0,9d008ed8 <__floatscan+0xbe8>
9d0084a8:	3c029d00 	lui	v0,0x9d00
9d0084ac:	3c029d00 	lui	v0,0x9d00
9d0084b0:	8c437534 	lw	v1,30004(v0)
9d0084b4:	8c427530 	lw	v0,30000(v0)
9d0084b8:	8fbf007c 	lw	ra,124(sp)
9d0084bc:	8fbe0078 	lw	s8,120(sp)
9d0084c0:	8fb70074 	lw	s7,116(sp)
9d0084c4:	8fb60070 	lw	s6,112(sp)
9d0084c8:	8fb5006c 	lw	s5,108(sp)
9d0084cc:	8fb40068 	lw	s4,104(sp)
9d0084d0:	8fb30064 	lw	s3,100(sp)
9d0084d4:	8fb20060 	lw	s2,96(sp)
9d0084d8:	8fb1005c 	lw	s1,92(sp)
9d0084dc:	8fb00058 	lw	s0,88(sp)
9d0084e0:	03e00008 	jr	ra
9d0084e4:	27bd0080 	addiu	sp,sp,128
9d0084e8:	0f403c35 	jal	9d00f0d4 <__shgetc>
9d0084ec:	02e02025 	move	a0,s7
9d0084f0:	1000ffe8 	b	9d008494 <__floatscan+0x1a4>
9d0084f4:	00409025 	move	s2,v0
9d0084f8:	160000bc 	bnez	s0,9d0087ec <__floatscan+0x4fc>
9d0084fc:	3c139d00 	lui	s3,0x9d00
9d008500:	267374dc 	addiu	s3,s3,29916
9d008504:	24140002 	li	s4,2
9d008508:	24150003 	li	s5,3
9d00850c:	02701821 	addu	v1,s3,s0
9d008510:	80630000 	lb	v1,0(v1)
9d008514:	36420020 	ori	v0,s2,0x20
9d008518:	10430055 	beq	v0,v1,9d008670 <__floatscan+0x380>
9d00851c:	00000000 	nop
9d008520:	160000b2 	bnez	s0,9d0087ec <__floatscan+0x4fc>
9d008524:	8fa20024 	lw	v0,36(sp)
9d008528:	afa20020 	sw	v0,32(sp)
9d00852c:	24020030 	li	v0,48
9d008530:	16420261 	bne	s2,v0,9d008eb8 <__floatscan+0xbc8>
9d008534:	8fa70018 	lw	a3,24(sp)
9d008538:	8ee2003c 	lw	v0,60(s7)
9d00853c:	8ee3004c 	lw	v1,76(s7)
9d008540:	0043182b 	sltu	v1,v0,v1
9d008544:	106000b0 	beqz	v1,9d008808 <__floatscan+0x518>
9d008548:	00000000 	nop
9d00854c:	24430001 	addiu	v1,v0,1
9d008550:	aee3003c 	sw	v1,60(s7)
9d008554:	90420000 	lbu	v0,0(v0)
9d008558:	34420020 	ori	v0,v0,0x20
9d00855c:	24040078 	li	a0,120
9d008560:	1444024f 	bne	v0,a0,9d008ea0 <__floatscan+0xbb0>
9d008564:	8ee3004c 	lw	v1,76(s7)
9d008568:	8ee2003c 	lw	v0,60(s7)
9d00856c:	0043182b 	sltu	v1,v0,v1
9d008570:	106000a9 	beqz	v1,9d008818 <__floatscan+0x528>
9d008574:	00000000 	nop
9d008578:	24430001 	addiu	v1,v0,1
9d00857c:	aee3003c 	sw	v1,60(s7)
9d008580:	90420000 	lbu	v0,0(v0)
9d008584:	00001825 	move	v1,zero
9d008588:	24120030 	li	s2,48
9d00858c:	105200a6 	beq	v0,s2,9d008828 <__floatscan+0x538>
9d008590:	2404002e 	li	a0,46
9d008594:	104400b2 	beq	v0,a0,9d008860 <__floatscan+0x570>
9d008598:	0000f025 	move	s8,zero
9d00859c:	00006025 	move	t4,zero
9d0085a0:	00006825 	move	t5,zero
9d0085a4:	3c049d00 	lui	a0,0x9d00
9d0085a8:	8c8674f8 	lw	a2,29944(a0)
9d0085ac:	8c8774fc 	lw	a3,29948(a0)
9d0085b0:	afa40034 	sw	a0,52(sp)
9d0085b4:	3c049d00 	lui	a0,0x9d00
9d0085b8:	8c857514 	lw	a1,29972(a0)
9d0085bc:	8c847510 	lw	a0,29968(a0)
9d0085c0:	0000a025 	move	s4,zero
9d0085c4:	afa5003c 	sw	a1,60(sp)
9d0085c8:	afa40038 	sw	a0,56(sp)
9d0085cc:	3c049d00 	lui	a0,0x9d00
9d0085d0:	8c85753c 	lw	a1,30012(a0)
9d0085d4:	8c847538 	lw	a0,30008(a0)
9d0085d8:	0000a825 	move	s5,zero
9d0085dc:	afa00030 	sw	zero,48(sp)
9d0085e0:	afa60028 	sw	a2,40(sp)
9d0085e4:	afa7002c 	sw	a3,44(sp)
9d0085e8:	00009025 	move	s2,zero
9d0085ec:	00009825 	move	s3,zero
9d0085f0:	afa40040 	sw	a0,64(sp)
9d0085f4:	afa50044 	sw	a1,68(sp)
9d0085f8:	244effd0 	addiu	t6,v0,-48
9d0085fc:	2dc4000a 	sltiu	a0,t6,10
9d008600:	148000bd 	bnez	a0,9d0088f8 <__floatscan+0x608>
9d008604:	34440020 	ori	a0,v0,0x20
9d008608:	2484ff9f 	addiu	a0,a0,-97
9d00860c:	2c840006 	sltiu	a0,a0,6
9d008610:	148000b9 	bnez	a0,9d0088f8 <__floatscan+0x608>
9d008614:	2404002e 	li	a0,46
9d008618:	104400ba 	beq	v0,a0,9d008904 <__floatscan+0x614>
9d00861c:	00000000 	nop
9d008620:	5460011f 	bnezl	v1,9d008aa0 <__floatscan+0x7b0>
9d008624:	028df00a 	movz	s8,s4,t5
9d008628:	8ee2004c 	lw	v0,76(s7)
9d00862c:	1040022d 	beqz	v0,9d008ee4 <__floatscan+0xbf4>
9d008630:	00000000 	nop
9d008634:	12c00113 	beqz	s6,9d008a84 <__floatscan+0x794>
9d008638:	8ee2003c 	lw	v0,60(s7)
9d00863c:	55a00002 	bnezl	t5,9d008648 <__floatscan+0x358>
9d008640:	2442fffd 	addiu	v0,v0,-3
9d008644:	2442fffe 	addiu	v0,v0,-2
9d008648:	aee2003c 	sw	v0,60(s7)
9d00864c:	0f403fe4 	jal	9d00ff90 <__floatsidf>
9d008650:	02202025 	move	a0,s1
9d008654:	00003025 	move	a2,zero
9d008658:	00003825 	move	a3,zero
9d00865c:	00402025 	move	a0,v0
9d008660:	0f4030c3 	jal	9d00c30c <__muldf3>
9d008664:	00602825 	move	a1,v1
9d008668:	1000ff94 	b	9d0084bc <__floatscan+0x1cc>
9d00866c:	8fbf007c 	lw	ra,124(sp)
9d008670:	52140009 	beql	s0,s4,9d008698 <__floatscan+0x3a8>
9d008674:	26100001 	addiu	s0,s0,1
9d008678:	8ee2003c 	lw	v0,60(s7)
9d00867c:	8ee3004c 	lw	v1,76(s7)
9d008680:	0043182b 	sltu	v1,v0,v1
9d008684:	1060000f 	beqz	v1,9d0086c4 <__floatscan+0x3d4>
9d008688:	24430001 	addiu	v1,v0,1
9d00868c:	aee3003c 	sw	v1,60(s7)
9d008690:	90520000 	lbu	s2,0(v0)
9d008694:	26100001 	addiu	s0,s0,1
9d008698:	1615ff9d 	bne	s0,s5,9d008510 <__floatscan+0x220>
9d00869c:	02701821 	addu	v1,s3,s0
9d0086a0:	8ee3003c 	lw	v1,60(s7)
9d0086a4:	8ee2004c 	lw	v0,76(s7)
9d0086a8:	0062102b 	sltu	v0,v1,v0
9d0086ac:	54400009 	bnezl	v0,9d0086d4 <__floatscan+0x3e4>
9d0086b0:	24620001 	addiu	v0,v1,1
9d0086b4:	0f403c35 	jal	9d00f0d4 <__shgetc>
9d0086b8:	02e02025 	move	a0,s7
9d0086bc:	10000008 	b	9d0086e0 <__floatscan+0x3f0>
9d0086c0:	38420028 	xori	v0,v0,0x28
9d0086c4:	0f403c35 	jal	9d00f0d4 <__shgetc>
9d0086c8:	02e02025 	move	a0,s7
9d0086cc:	1000fff1 	b	9d008694 <__floatscan+0x3a4>
9d0086d0:	00409025 	move	s2,v0
9d0086d4:	aee2003c 	sw	v0,60(s7)
9d0086d8:	90620000 	lbu	v0,0(v1)
9d0086dc:	38420028 	xori	v0,v0,0x28
9d0086e0:	0002102b 	sltu	v0,zero,v0
9d0086e4:	1040000b 	beqz	v0,9d008714 <__floatscan+0x424>
9d0086e8:	24100001 	li	s0,1
9d0086ec:	8ee2004c 	lw	v0,76(s7)
9d0086f0:	54400005 	bnezl	v0,9d008708 <__floatscan+0x418>
9d0086f4:	8ee2003c 	lw	v0,60(s7)
9d0086f8:	3c029d00 	lui	v0,0x9d00
9d0086fc:	8c43752c 	lw	v1,29996(v0)
9d008700:	1000ff6d 	b	9d0084b8 <__floatscan+0x1c8>
9d008704:	8c427528 	lw	v0,29992(v0)
9d008708:	2442ffff 	addiu	v0,v0,-1
9d00870c:	1000fffa 	b	9d0086f8 <__floatscan+0x408>
9d008710:	aee2003c 	sw	v0,60(s7)
9d008714:	2411ffdf 	li	s1,-33
9d008718:	2412005f 	li	s2,95
9d00871c:	8ee2003c 	lw	v0,60(s7)
9d008720:	8ee3004c 	lw	v1,76(s7)
9d008724:	0043182b 	sltu	v1,v0,v1
9d008728:	10600010 	beqz	v1,9d00876c <__floatscan+0x47c>
9d00872c:	00000000 	nop
9d008730:	24430001 	addiu	v1,v0,1
9d008734:	aee3003c 	sw	v1,60(s7)
9d008738:	90420000 	lbu	v0,0(v0)
9d00873c:	2443ffd0 	addiu	v1,v0,-48
9d008740:	2c63000a 	sltiu	v1,v1,10
9d008744:	14600007 	bnez	v1,9d008764 <__floatscan+0x474>
9d008748:	00511824 	and	v1,v0,s1
9d00874c:	2463ffbf 	addiu	v1,v1,-65
9d008750:	2c63001a 	sltiu	v1,v1,26
9d008754:	5460fff1 	bnezl	v1,9d00871c <__floatscan+0x42c>
9d008758:	26100001 	addiu	s0,s0,1
9d00875c:	14520007 	bne	v0,s2,9d00877c <__floatscan+0x48c>
9d008760:	24030029 	li	v1,41
9d008764:	1000ffed 	b	9d00871c <__floatscan+0x42c>
9d008768:	26100001 	addiu	s0,s0,1
9d00876c:	0f403c35 	jal	9d00f0d4 <__shgetc>
9d008770:	02e02025 	move	a0,s7
9d008774:	1000fff2 	b	9d008740 <__floatscan+0x450>
9d008778:	2443ffd0 	addiu	v1,v0,-48
9d00877c:	1043ffdf 	beq	v0,v1,9d0086fc <__floatscan+0x40c>
9d008780:	3c029d00 	lui	v0,0x9d00
9d008784:	8ee3004c 	lw	v1,76(s7)
9d008788:	10600004 	beqz	v1,9d00879c <__floatscan+0x4ac>
9d00878c:	00000000 	nop
9d008790:	8ee2003c 	lw	v0,60(s7)
9d008794:	2442ffff 	addiu	v0,v0,-1
9d008798:	aee2003c 	sw	v0,60(s7)
9d00879c:	16c0000f 	bnez	s6,9d0087dc <__floatscan+0x4ec>
9d0087a0:	00000000 	nop
9d0087a4:	3c02a000 	lui	v0,0xa000
9d0087a8:	24030016 	li	v1,22
9d0087ac:	ac431948 	sw	v1,6472(v0)
9d0087b0:	00002825 	move	a1,zero
9d0087b4:	0f404341 	jal	9d010d04 <__shlim>
9d0087b8:	02e02025 	move	a0,s7
9d0087bc:	00001025 	move	v0,zero
9d0087c0:	1000ff3d 	b	9d0084b8 <__floatscan+0x1c8>
9d0087c4:	00001825 	move	v1,zero
9d0087c8:	10600004 	beqz	v1,9d0087dc <__floatscan+0x4ec>
9d0087cc:	2610ffff 	addiu	s0,s0,-1
9d0087d0:	8ee2003c 	lw	v0,60(s7)
9d0087d4:	2442ffff 	addiu	v0,v0,-1
9d0087d8:	aee2003c 	sw	v0,60(s7)
9d0087dc:	1600fffa 	bnez	s0,9d0087c8 <__floatscan+0x4d8>
9d0087e0:	3c029d00 	lui	v0,0x9d00
9d0087e4:	1000ffc6 	b	9d008700 <__floatscan+0x410>
9d0087e8:	8c43752c 	lw	v1,29996(v0)
9d0087ec:	8ee2004c 	lw	v0,76(s7)
9d0087f0:	5040ffed 	beqzl	v0,9d0087a8 <__floatscan+0x4b8>
9d0087f4:	3c02a000 	lui	v0,0xa000
9d0087f8:	8ee2003c 	lw	v0,60(s7)
9d0087fc:	2442ffff 	addiu	v0,v0,-1
9d008800:	1000ffe8 	b	9d0087a4 <__floatscan+0x4b4>
9d008804:	aee2003c 	sw	v0,60(s7)
9d008808:	0f403c35 	jal	9d00f0d4 <__shgetc>
9d00880c:	02e02025 	move	a0,s7
9d008810:	1000ff52 	b	9d00855c <__floatscan+0x26c>
9d008814:	34420020 	ori	v0,v0,0x20
9d008818:	0f403c35 	jal	9d00f0d4 <__shgetc>
9d00881c:	02e02025 	move	a0,s7
9d008820:	1000ff59 	b	9d008588 <__floatscan+0x298>
9d008824:	00001825 	move	v1,zero
9d008828:	8ee2003c 	lw	v0,60(s7)
9d00882c:	8ee3004c 	lw	v1,76(s7)
9d008830:	0043182b 	sltu	v1,v0,v1
9d008834:	10600006 	beqz	v1,9d008850 <__floatscan+0x560>
9d008838:	00000000 	nop
9d00883c:	24430001 	addiu	v1,v0,1
9d008840:	aee3003c 	sw	v1,60(s7)
9d008844:	90420000 	lbu	v0,0(v0)
9d008848:	1000ff50 	b	9d00858c <__floatscan+0x29c>
9d00884c:	24030001 	li	v1,1
9d008850:	0f403c35 	jal	9d00f0d4 <__shgetc>
9d008854:	02e02025 	move	a0,s7
9d008858:	1000ff4c 	b	9d00858c <__floatscan+0x29c>
9d00885c:	24030001 	li	v1,1
9d008860:	8ee2003c 	lw	v0,60(s7)
9d008864:	8ee4004c 	lw	a0,76(s7)
9d008868:	0044202b 	sltu	a0,v0,a0
9d00886c:	1080000a 	beqz	a0,9d008898 <__floatscan+0x5a8>
9d008870:	24440001 	addiu	a0,v0,1
9d008874:	aee4003c 	sw	a0,60(s7)
9d008878:	90420000 	lbu	v0,0(v0)
9d00887c:	0000f025 	move	s8,zero
9d008880:	00006025 	move	t4,zero
9d008884:	24120030 	li	s2,48
9d008888:	10520008 	beq	v0,s2,9d0088ac <__floatscan+0x5bc>
9d00888c:	240d0001 	li	t5,1
9d008890:	1000ff45 	b	9d0085a8 <__floatscan+0x2b8>
9d008894:	3c049d00 	lui	a0,0x9d00
9d008898:	02e02025 	move	a0,s7
9d00889c:	0f403c35 	jal	9d00f0d4 <__shgetc>
9d0088a0:	afa30028 	sw	v1,40(sp)
9d0088a4:	1000fff5 	b	9d00887c <__floatscan+0x58c>
9d0088a8:	8fa30028 	lw	v1,40(sp)
9d0088ac:	8ee2003c 	lw	v0,60(s7)
9d0088b0:	8ee3004c 	lw	v1,76(s7)
9d0088b4:	0043182b 	sltu	v1,v0,v1
9d0088b8:	1060000b 	beqz	v1,9d0088e8 <__floatscan+0x5f8>
9d0088bc:	02e02025 	move	a0,s7
9d0088c0:	24430001 	addiu	v1,v0,1
9d0088c4:	aee3003c 	sw	v1,60(s7)
9d0088c8:	90420000 	lbu	v0,0(v0)
9d0088cc:	27c3ffff 	addiu	v1,s8,-1
9d0088d0:	007e202b 	sltu	a0,v1,s8
9d0088d4:	258cffff 	addiu	t4,t4,-1
9d0088d8:	0060f025 	move	s8,v1
9d0088dc:	008c6021 	addu	t4,a0,t4
9d0088e0:	1000ffe9 	b	9d008888 <__floatscan+0x598>
9d0088e4:	24030001 	li	v1,1
9d0088e8:	0f403c35 	jal	9d00f0d4 <__shgetc>
9d0088ec:	afac0028 	sw	t4,40(sp)
9d0088f0:	1000fff6 	b	9d0088cc <__floatscan+0x5dc>
9d0088f4:	8fac0028 	lw	t4,40(sp)
9d0088f8:	2404002e 	li	a0,46
9d0088fc:	54440011 	bnel	v0,a0,9d008944 <__floatscan+0x654>
9d008900:	2843003a 	slti	v1,v0,58
9d008904:	15a0017b 	bnez	t5,9d008ef4 <__floatscan+0xc04>
9d008908:	02802825 	move	a1,s4
9d00890c:	02a05025 	move	t2,s5
9d008910:	240d0001 	li	t5,1
9d008914:	8ee2003c 	lw	v0,60(s7)
9d008918:	8ee4004c 	lw	a0,76(s7)
9d00891c:	0044202b 	sltu	a0,v0,a0
9d008920:	1080004d 	beqz	a0,9d008a58 <__floatscan+0x768>
9d008924:	24440001 	addiu	a0,v0,1
9d008928:	aee4003c 	sw	a0,60(s7)
9d00892c:	90420000 	lbu	v0,0(v0)
9d008930:	0280f025 	move	s8,s4
9d008934:	02a06025 	move	t4,s5
9d008938:	00a0a025 	move	s4,a1
9d00893c:	1000ff2e 	b	9d0085f8 <__floatscan+0x308>
9d008940:	0140a825 	move	s5,t2
9d008944:	14600002 	bnez	v1,9d008950 <__floatscan+0x660>
9d008948:	34420020 	ori	v0,v0,0x20
9d00894c:	244effa9 	addiu	t6,v0,-87
9d008950:	1ea0002b 	bgtz	s5,9d008a00 <__floatscan+0x710>
9d008954:	00000000 	nop
9d008958:	16a00003 	bnez	s5,9d008968 <__floatscan+0x678>
9d00895c:	2e820008 	sltiu	v0,s4,8
9d008960:	1040000a 	beqz	v0,9d00898c <__floatscan+0x69c>
9d008964:	2e82000e 	sltiu	v0,s4,14
9d008968:	00108100 	sll	s0,s0,0x4
9d00896c:	01d08021 	addu	s0,t6,s0
9d008970:	26850001 	addiu	a1,s4,1
9d008974:	00b4502b 	sltu	t2,a1,s4
9d008978:	01555021 	addu	t2,t2,s5
9d00897c:	03c0a025 	move	s4,s8
9d008980:	0180a825 	move	s5,t4
9d008984:	1000ffe3 	b	9d008914 <__floatscan+0x624>
9d008988:	24030001 	li	v1,1
9d00898c:	1040001c 	beqz	v0,9d008a00 <__floatscan+0x710>
9d008990:	8fa5002c 	lw	a1,44(sp)
9d008994:	8fa60040 	lw	a2,64(sp)
9d008998:	8fa70044 	lw	a3,68(sp)
9d00899c:	8fa40028 	lw	a0,40(sp)
9d0089a0:	afac0050 	sw	t4,80(sp)
9d0089a4:	afad0048 	sw	t5,72(sp)
9d0089a8:	0f4030c3 	jal	9d00c30c <__muldf3>
9d0089ac:	afae004c 	sw	t6,76(sp)
9d0089b0:	8fae004c 	lw	t6,76(sp)
9d0089b4:	afa20028 	sw	v0,40(sp)
9d0089b8:	afa3002c 	sw	v1,44(sp)
9d0089bc:	0f403fe4 	jal	9d00ff90 <__floatsidf>
9d0089c0:	01c02025 	move	a0,t6
9d0089c4:	8fa60028 	lw	a2,40(sp)
9d0089c8:	8fa7002c 	lw	a3,44(sp)
9d0089cc:	00402025 	move	a0,v0
9d0089d0:	0f4030c3 	jal	9d00c30c <__muldf3>
9d0089d4:	00602825 	move	a1,v1
9d0089d8:	00403025 	move	a2,v0
9d0089dc:	02402025 	move	a0,s2
9d0089e0:	02602825 	move	a1,s3
9d0089e4:	0f402cde 	jal	9d00b378 <__adddf3>
9d0089e8:	00603825 	move	a3,v1
9d0089ec:	00409025 	move	s2,v0
9d0089f0:	00609825 	move	s3,v1
9d0089f4:	8fad0048 	lw	t5,72(sp)
9d0089f8:	1000ffdd 	b	9d008970 <__floatscan+0x680>
9d0089fc:	8fac0050 	lw	t4,80(sp)
9d008a00:	11c0ffdb 	beqz	t6,9d008970 <__floatscan+0x680>
9d008a04:	8fa20030 	lw	v0,48(sp)
9d008a08:	1440ffd9 	bnez	v0,9d008970 <__floatscan+0x680>
9d008a0c:	8fa60038 	lw	a2,56(sp)
9d008a10:	8fa7003c 	lw	a3,60(sp)
9d008a14:	8fa40028 	lw	a0,40(sp)
9d008a18:	8fa5002c 	lw	a1,44(sp)
9d008a1c:	afac004c 	sw	t4,76(sp)
9d008a20:	0f4030c3 	jal	9d00c30c <__muldf3>
9d008a24:	afad0048 	sw	t5,72(sp)
9d008a28:	00403025 	move	a2,v0
9d008a2c:	02402025 	move	a0,s2
9d008a30:	02602825 	move	a1,s3
9d008a34:	0f402cde 	jal	9d00b378 <__adddf3>
9d008a38:	00603825 	move	a3,v1
9d008a3c:	00409025 	move	s2,v0
9d008a40:	24020001 	li	v0,1
9d008a44:	00609825 	move	s3,v1
9d008a48:	afa20030 	sw	v0,48(sp)
9d008a4c:	8fac004c 	lw	t4,76(sp)
9d008a50:	1000ffc7 	b	9d008970 <__floatscan+0x680>
9d008a54:	8fad0048 	lw	t5,72(sp)
9d008a58:	02e02025 	move	a0,s7
9d008a5c:	afaa0054 	sw	t2,84(sp)
9d008a60:	afa50050 	sw	a1,80(sp)
9d008a64:	afa3004c 	sw	v1,76(sp)
9d008a68:	0f403c35 	jal	9d00f0d4 <__shgetc>
9d008a6c:	afad0048 	sw	t5,72(sp)
9d008a70:	8faa0054 	lw	t2,84(sp)
9d008a74:	8fa50050 	lw	a1,80(sp)
9d008a78:	8fa3004c 	lw	v1,76(sp)
9d008a7c:	1000ffac 	b	9d008930 <__floatscan+0x640>
9d008a80:	8fad0048 	lw	t5,72(sp)
9d008a84:	2442ffff 	addiu	v0,v0,-1
9d008a88:	aee2003c 	sw	v0,60(s7)
9d008a8c:	00002825 	move	a1,zero
9d008a90:	0f404341 	jal	9d010d04 <__shlim>
9d008a94:	02e02025 	move	a0,s7
9d008a98:	1000feec 	b	9d00864c <__floatscan+0x35c>
9d008a9c:	00000000 	nop
9d008aa0:	02ad600a 	movz	t4,s5,t5
9d008aa4:	5ea00006 	bgtzl	s5,9d008ac0 <__floatscan+0x7d0>
9d008aa8:	34420020 	ori	v0,v0,0x20
9d008aac:	16a00016 	bnez	s5,9d008b08 <__floatscan+0x818>
9d008ab0:	2e830008 	sltiu	v1,s4,8
9d008ab4:	14600015 	bnez	v1,9d008b0c <__floatscan+0x81c>
9d008ab8:	26830001 	addiu	v1,s4,1
9d008abc:	34420020 	ori	v0,v0,0x20
9d008ac0:	24030070 	li	v1,112
9d008ac4:	1443003f 	bne	v0,v1,9d008bc4 <__floatscan+0x8d4>
9d008ac8:	02c02825 	move	a1,s6
9d008acc:	02e02025 	move	a0,s7
9d008ad0:	0f40318e 	jal	9d00c638 <scanexp>
9d008ad4:	afac0028 	sw	t4,40(sp)
9d008ad8:	14400014 	bnez	v0,9d008b2c <__floatscan+0x83c>
9d008adc:	8fac0028 	lw	t4,40(sp)
9d008ae0:	3c048000 	lui	a0,0x8000
9d008ae4:	14640011 	bne	v1,a0,9d008b2c <__floatscan+0x83c>
9d008ae8:	00000000 	nop
9d008aec:	12c0ff31 	beqz	s6,9d0087b4 <__floatscan+0x4c4>
9d008af0:	00002825 	move	a1,zero
9d008af4:	8ee3004c 	lw	v1,76(s7)
9d008af8:	54600009 	bnezl	v1,9d008b20 <__floatscan+0x830>
9d008afc:	8ee3003c 	lw	v1,60(s7)
9d008b00:	10000009 	b	9d008b28 <__floatscan+0x838>
9d008b04:	00001025 	move	v0,zero
9d008b08:	26830001 	addiu	v1,s4,1
9d008b0c:	0074202b 	sltu	a0,v1,s4
9d008b10:	00108100 	sll	s0,s0,0x4
9d008b14:	0060a025 	move	s4,v1
9d008b18:	1000ffe2 	b	9d008aa4 <__floatscan+0x7b4>
9d008b1c:	0095a821 	addu	s5,a0,s5
9d008b20:	2463ffff 	addiu	v1,v1,-1
9d008b24:	aee3003c 	sw	v1,60(s7)
9d008b28:	00001825 	move	v1,zero
9d008b2c:	1200fec7 	beqz	s0,9d00864c <__floatscan+0x35c>
9d008b30:	27c4fff8 	addiu	a0,s8,-8
9d008b34:	009e482b 	sltu	t1,a0,s8
9d008b38:	258cffff 	addiu	t4,t4,-1
9d008b3c:	012c4821 	addu	t1,t1,t4
9d008b40:	00042f82 	srl	a1,a0,0x1e
9d008b44:	00094880 	sll	t1,t1,0x2
9d008b48:	00042080 	sll	a0,a0,0x2
9d008b4c:	00a94825 	or	t1,a1,t1
9d008b50:	00821021 	addu	v0,a0,v0
9d008b54:	0044202b 	sltu	a0,v0,a0
9d008b58:	01231821 	addu	v1,t1,v1
9d008b5c:	00831821 	addu	v1,a0,v1
9d008b60:	8fa40018 	lw	a0,24(sp)
9d008b64:	0040a025 	move	s4,v0
9d008b68:	00042023 	negu	a0,a0
9d008b6c:	00042fc3 	sra	a1,a0,0x1f
9d008b70:	00a3302a 	slt	a2,a1,v1
9d008b74:	14c00005 	bnez	a2,9d008b8c <__floatscan+0x89c>
9d008b78:	0060a825 	move	s5,v1
9d008b7c:	14650018 	bne	v1,a1,9d008be0 <__floatscan+0x8f0>
9d008b80:	0082202b 	sltu	a0,a0,v0
9d008b84:	10800017 	beqz	a0,9d008be4 <__floatscan+0x8f4>
9d008b88:	8fa40018 	lw	a0,24(sp)
9d008b8c:	3c02a000 	lui	v0,0xa000
9d008b90:	24030022 	li	v1,34
9d008b94:	3c109d00 	lui	s0,0x9d00
9d008b98:	02202025 	move	a0,s1
9d008b9c:	0f403fe4 	jal	9d00ff90 <__floatsidf>
9d008ba0:	ac431948 	sw	v1,6472(v0)
9d008ba4:	8e0674e0 	lw	a2,29920(s0)
9d008ba8:	8e0774e4 	lw	a3,29924(s0)
9d008bac:	00402025 	move	a0,v0
9d008bb0:	0f4030c3 	jal	9d00c30c <__muldf3>
9d008bb4:	00602825 	move	a1,v1
9d008bb8:	8e0674e0 	lw	a2,29920(s0)
9d008bbc:	1000fea7 	b	9d00865c <__floatscan+0x36c>
9d008bc0:	8e0774e4 	lw	a3,29924(s0)
9d008bc4:	8ee2004c 	lw	v0,76(s7)
9d008bc8:	5040ffd7 	beqzl	v0,9d008b28 <__floatscan+0x838>
9d008bcc:	00001025 	move	v0,zero
9d008bd0:	8ee2003c 	lw	v0,60(s7)
9d008bd4:	2442ffff 	addiu	v0,v0,-1
9d008bd8:	1000ffc9 	b	9d008b00 <__floatscan+0x810>
9d008bdc:	aee2003c 	sw	v0,60(s7)
9d008be0:	8fa40018 	lw	a0,24(sp)
9d008be4:	2484ff96 	addiu	a0,a0,-106
9d008be8:	00042fc3 	sra	a1,a0,0x1f
9d008bec:	0065302a 	slt	a2,v1,a1
9d008bf0:	54c00005 	bnezl	a2,9d008c08 <__floatscan+0x918>
9d008bf4:	3c02a000 	lui	v0,0xa000
9d008bf8:	14a3009e 	bne	a1,v1,9d008e74 <__floatscan+0xb84>
9d008bfc:	0044102b 	sltu	v0,v0,a0
9d008c00:	1040009c 	beqz	v0,9d008e74 <__floatscan+0xb84>
9d008c04:	3c02a000 	lui	v0,0xa000
9d008c08:	24030022 	li	v1,34
9d008c0c:	3c109d00 	lui	s0,0x9d00
9d008c10:	02202025 	move	a0,s1
9d008c14:	0f403fe4 	jal	9d00ff90 <__floatsidf>
9d008c18:	ac431948 	sw	v1,6472(v0)
9d008c1c:	8e0674e8 	lw	a2,29928(s0)
9d008c20:	8e0774ec 	lw	a3,29932(s0)
9d008c24:	00402025 	move	a0,v0
9d008c28:	0f4030c3 	jal	9d00c30c <__muldf3>
9d008c2c:	00602825 	move	a1,v1
9d008c30:	8e0674e8 	lw	a2,29928(s0)
9d008c34:	1000fe89 	b	9d00865c <__floatscan+0x36c>
9d008c38:	8e0774ec 	lw	a3,29932(s0)
9d008c3c:	02c03025 	move	a2,s6
9d008c40:	02e03825 	move	a3,s7
9d008c44:	02402025 	move	a0,s2
9d008c48:	02602825 	move	a1,s3
9d008c4c:	0f40389b 	jal	9d00e26c <__eqdf2>
9d008c50:	00108040 	sll	s0,s0,0x1
9d008c54:	04400084 	bltz	v0,9d008e68 <__floatscan+0xb78>
9d008c58:	02402025 	move	a0,s2
9d008c5c:	8fa60028 	lw	a2,40(sp)
9d008c60:	8fa7002c 	lw	a3,44(sp)
9d008c64:	0f402cdc 	jal	9d00b370 <__subdf3>
9d008c68:	02602825 	move	a1,s3
9d008c6c:	26100001 	addiu	s0,s0,1
9d008c70:	00403025 	move	a2,v0
9d008c74:	00603825 	move	a3,v1
9d008c78:	02402025 	move	a0,s2
9d008c7c:	0f402cde 	jal	9d00b378 <__adddf3>
9d008c80:	02602825 	move	a1,s3
9d008c84:	00409025 	move	s2,v0
9d008c88:	2682ffff 	addiu	v0,s4,-1
9d008c8c:	00609825 	move	s3,v1
9d008c90:	26b5ffff 	addiu	s5,s5,-1
9d008c94:	0054182b 	sltu	v1,v0,s4
9d008c98:	0075a821 	addu	s5,v1,s5
9d008c9c:	0040a025 	move	s4,v0
9d008ca0:	0601ffe6 	bgez	s0,9d008c3c <__floatscan+0x94c>
9d008ca4:	8fa20024 	lw	v0,36(sp)
9d008ca8:	8fa40018 	lw	a0,24(sp)
9d008cac:	26830020 	addiu	v1,s4,32
9d008cb0:	00022fc3 	sra	a1,v0,0x1f
9d008cb4:	0074102b 	sltu	v0,v1,s4
9d008cb8:	00551021 	addu	v0,v0,s5
9d008cbc:	0004afc3 	sra	s5,a0,0x1f
9d008cc0:	00642023 	subu	a0,v1,a0
9d008cc4:	0055a823 	subu	s5,v0,s5
9d008cc8:	0064182b 	sltu	v1,v1,a0
9d008ccc:	02a3a823 	subu	s5,s5,v1
9d008cd0:	02a5102a 	slt	v0,s5,a1
9d008cd4:	14400006 	bnez	v0,9d008cf0 <__floatscan+0xa00>
9d008cd8:	8fa20018 	lw	v0,24(sp)
9d008cdc:	14b50008 	bne	a1,s5,9d008d00 <__floatscan+0xa10>
9d008ce0:	8fa20024 	lw	v0,36(sp)
9d008ce4:	0082202b 	sltu	a0,a0,v0
9d008ce8:	10800005 	beqz	a0,9d008d00 <__floatscan+0xa10>
9d008cec:	8fa20018 	lw	v0,24(sp)
9d008cf0:	0282b823 	subu	s7,s4,v0
9d008cf4:	26e20020 	addiu	v0,s7,32
9d008cf8:	04400067 	bltz	v0,9d008e98 <__floatscan+0xba8>
9d008cfc:	afa20020 	sw	v0,32(sp)
9d008d00:	8fa20020 	lw	v0,32(sp)
9d008d04:	0000b025 	move	s6,zero
9d008d08:	28420035 	slti	v0,v0,53
9d008d0c:	10400022 	beqz	v0,9d008d98 <__floatscan+0xaa8>
9d008d10:	0000b825 	move	s7,zero
9d008d14:	8fa20020 	lw	v0,32(sp)
9d008d18:	24060054 	li	a2,84
9d008d1c:	00c23023 	subu	a2,a2,v0
9d008d20:	8fa20034 	lw	v0,52(sp)
9d008d24:	8c4574fc 	lw	a1,29948(v0)
9d008d28:	0f403ac6 	jal	9d00eb18 <scalbn>
9d008d2c:	8c4474f8 	lw	a0,29944(v0)
9d008d30:	02202025 	move	a0,s1
9d008d34:	0040b025 	move	s6,v0
9d008d38:	0f403fe4 	jal	9d00ff90 <__floatsidf>
9d008d3c:	0060b825 	move	s7,v1
9d008d40:	00403025 	move	a2,v0
9d008d44:	02c02025 	move	a0,s6
9d008d48:	02e02825 	move	a1,s7
9d008d4c:	0f404362 	jal	9d010d88 <copysignl>
9d008d50:	00603825 	move	a3,v1
9d008d54:	0040b025 	move	s6,v0
9d008d58:	8fa20020 	lw	v0,32(sp)
9d008d5c:	285e0020 	slti	s8,v0,32
9d008d60:	13c0000d 	beqz	s8,9d008d98 <__floatscan+0xaa8>
9d008d64:	0060b825 	move	s7,v1
9d008d68:	00003025 	move	a2,zero
9d008d6c:	00003825 	move	a3,zero
9d008d70:	02402025 	move	a0,s2
9d008d74:	0f40389b 	jal	9d00e26c <__eqdf2>
9d008d78:	02602825 	move	a1,s3
9d008d7c:	10400006 	beqz	v0,9d008d98 <__floatscan+0xaa8>
9d008d80:	32020001 	andi	v0,s0,0x1
9d008d84:	14400004 	bnez	v0,9d008d98 <__floatscan+0xaa8>
9d008d88:	00000000 	nop
9d008d8c:	26100001 	addiu	s0,s0,1
9d008d90:	00009025 	move	s2,zero
9d008d94:	00009825 	move	s3,zero
9d008d98:	0f403fe4 	jal	9d00ff90 <__floatsidf>
9d008d9c:	02202025 	move	a0,s1
9d008da0:	00602825 	move	a1,v1
9d008da4:	02403025 	move	a2,s2
9d008da8:	02603825 	move	a3,s3
9d008dac:	00402025 	move	a0,v0
9d008db0:	afa20018 	sw	v0,24(sp)
9d008db4:	0f4030c3 	jal	9d00c30c <__muldf3>
9d008db8:	afa3001c 	sw	v1,28(sp)
9d008dbc:	02002025 	move	a0,s0
9d008dc0:	00409025 	move	s2,v0
9d008dc4:	0f404265 	jal	9d010994 <__floatunsidf>
9d008dc8:	00609825 	move	s3,v1
9d008dcc:	8fa80018 	lw	t0,24(sp)
9d008dd0:	8fa9001c 	lw	t1,28(sp)
9d008dd4:	00402025 	move	a0,v0
9d008dd8:	01003025 	move	a2,t0
9d008ddc:	01203825 	move	a3,t1
9d008de0:	0f4030c3 	jal	9d00c30c <__muldf3>
9d008de4:	00602825 	move	a1,v1
9d008de8:	00402025 	move	a0,v0
9d008dec:	02c03025 	move	a2,s6
9d008df0:	02e03825 	move	a3,s7
9d008df4:	0f402cde 	jal	9d00b378 <__adddf3>
9d008df8:	00602825 	move	a1,v1
9d008dfc:	00402025 	move	a0,v0
9d008e00:	02403025 	move	a2,s2
9d008e04:	02603825 	move	a3,s3
9d008e08:	0f402cde 	jal	9d00b378 <__adddf3>
9d008e0c:	00602825 	move	a1,v1
9d008e10:	00402025 	move	a0,v0
9d008e14:	02c03025 	move	a2,s6
9d008e18:	02e03825 	move	a3,s7
9d008e1c:	0f402cdc 	jal	9d00b370 <__subdf3>
9d008e20:	00602825 	move	a1,v1
9d008e24:	00402025 	move	a0,v0
9d008e28:	00003025 	move	a2,zero
9d008e2c:	00003825 	move	a3,zero
9d008e30:	00602825 	move	a1,v1
9d008e34:	00408025 	move	s0,v0
9d008e38:	0f40389b 	jal	9d00e26c <__eqdf2>
9d008e3c:	00608825 	move	s1,v1
9d008e40:	14400004 	bnez	v0,9d008e54 <__floatscan+0xb64>
9d008e44:	02803025 	move	a2,s4
9d008e48:	3c02a000 	lui	v0,0xa000
9d008e4c:	24030022 	li	v1,34
9d008e50:	ac431948 	sw	v1,6472(v0)
9d008e54:	02002025 	move	a0,s0
9d008e58:	0f40443a 	jal	9d0110e8 <scalbnl>
9d008e5c:	02202825 	move	a1,s1
9d008e60:	1000fd96 	b	9d0084bc <__floatscan+0x1cc>
9d008e64:	8fbf007c 	lw	ra,124(sp)
9d008e68:	02403025 	move	a2,s2
9d008e6c:	1000ff82 	b	9d008c78 <__floatscan+0x988>
9d008e70:	02603825 	move	a3,s3
9d008e74:	3c029d00 	lui	v0,0x9d00
9d008e78:	8c567510 	lw	s6,29968(v0)
9d008e7c:	8c577514 	lw	s7,29972(v0)
9d008e80:	8fa20034 	lw	v0,52(sp)
9d008e84:	8c4374fc 	lw	v1,29948(v0)
9d008e88:	8c4274f8 	lw	v0,29944(v0)
9d008e8c:	afa3002c 	sw	v1,44(sp)
9d008e90:	1000ff83 	b	9d008ca0 <__floatscan+0x9b0>
9d008e94:	afa20028 	sw	v0,40(sp)
9d008e98:	1000ff9e 	b	9d008d14 <__floatscan+0xa24>
9d008e9c:	afa00020 	sw	zero,32(sp)
9d008ea0:	10600005 	beqz	v1,9d008eb8 <__floatscan+0xbc8>
9d008ea4:	8fa70018 	lw	a3,24(sp)
9d008ea8:	8ee2003c 	lw	v0,60(s7)
9d008eac:	2442ffff 	addiu	v0,v0,-1
9d008eb0:	aee2003c 	sw	v0,60(s7)
9d008eb4:	8fa70018 	lw	a3,24(sp)
9d008eb8:	8fa60024 	lw	a2,36(sp)
9d008ebc:	afb60014 	sw	s6,20(sp)
9d008ec0:	afb10010 	sw	s1,16(sp)
9d008ec4:	02402825 	move	a1,s2
9d008ec8:	0f401d5c 	jal	9d007570 <decfloat>
9d008ecc:	02e02025 	move	a0,s7
9d008ed0:	1000fd7a 	b	9d0084bc <__floatscan+0x1cc>
9d008ed4:	8fbf007c 	lw	ra,124(sp)
9d008ed8:	8c437524 	lw	v1,29988(v0)
9d008edc:	1000fd76 	b	9d0084b8 <__floatscan+0x1c8>
9d008ee0:	8c427520 	lw	v0,29984(v0)
9d008ee4:	16c0fdd9 	bnez	s6,9d00864c <__floatscan+0x35c>
9d008ee8:	00000000 	nop
9d008eec:	1000fee8 	b	9d008a90 <__floatscan+0x7a0>
9d008ef0:	00002825 	move	a1,zero
9d008ef4:	1460feeb 	bnez	v1,9d008aa4 <__floatscan+0x7b4>
9d008ef8:	2402002e 	li	v0,46
9d008efc:	1000fdcb 	b	9d00862c <__floatscan+0x33c>
9d008f00:	8ee2004c 	lw	v0,76(s7)
9d008f04:	03e00008 	jr	ra
9d008f08:	00000000 	nop

Disassembly of section .text.__scanf_core:

9d008f0c <__scanf_core>:
9d008f0c:	27bdfe20 	addiu	sp,sp,-480
9d008f10:	afb701d4 	sw	s7,468(sp)
9d008f14:	afb601d0 	sw	s6,464(sp)
9d008f18:	afb501cc 	sw	s5,460(sp)
9d008f1c:	afb201c0 	sw	s2,448(sp)
9d008f20:	afb001b8 	sw	s0,440(sp)
9d008f24:	afbf01dc 	sw	ra,476(sp)
9d008f28:	afbe01d8 	sw	s8,472(sp)
9d008f2c:	afb401c8 	sw	s4,456(sp)
9d008f30:	afb301c4 	sw	s3,452(sp)
9d008f34:	afb101bc 	sw	s1,444(sp)
9d008f38:	00808025 	move	s0,a0
9d008f3c:	00c09025 	move	s2,a2
9d008f40:	afa501b4 	sw	a1,436(sp)
9d008f44:	afa001b0 	sw	zero,432(sp)
9d008f48:	0000a825 	move	s5,zero
9d008f4c:	27b7011c 	addiu	s7,sp,284
9d008f50:	24160001 	li	s6,1
9d008f54:	8fa201b4 	lw	v0,436(sp)
9d008f58:	80420000 	lb	v0,0(v0)
9d008f5c:	1040005c 	beqz	v0,9d0090d0 <__scanf_core+0x1c4>
9d008f60:	24020080 	li	v0,128
9d008f64:	27a501b4 	addiu	a1,sp,436
9d008f68:	02002025 	move	a0,s0
9d008f6c:	afa0019c 	sw	zero,412(sp)
9d008f70:	afa001a0 	sw	zero,416(sp)
9d008f74:	afa001a4 	sw	zero,420(sp)
9d008f78:	afb701a8 	sw	s7,424(sp)
9d008f7c:	0f40401f 	jal	9d01007c <__consumews>
9d008f80:	afa201ac 	sw	v0,428(sp)
9d008f84:	0040f025 	move	s8,v0
9d008f88:	24110025 	li	s1,37
9d008f8c:	2414ffff 	li	s4,-1
9d008f90:	8fa301b4 	lw	v1,436(sp)
9d008f94:	80620000 	lb	v0,0(v1)
9d008f98:	50400003 	beqzl	v0,9d008fa8 <__scanf_core+0x9c>
9d008f9c:	8fa201b0 	lw	v0,432(sp)
9d008fa0:	1451003a 	bne	v0,s1,9d00908c <__scanf_core+0x180>
9d008fa4:	8fa201b0 	lw	v0,432(sp)
9d008fa8:	005e1021 	addu	v0,v0,s8
9d008fac:	afa201b0 	sw	v0,432(sp)
9d008fb0:	80640000 	lb	a0,0(v1)
9d008fb4:	24020025 	li	v0,37
9d008fb8:	1482002d 	bne	a0,v0,9d009070 <__scanf_core+0x164>
9d008fbc:	24620001 	addiu	v0,v1,1
9d008fc0:	afa201b4 	sw	v0,436(sp)
9d008fc4:	afa001a4 	sw	zero,420(sp)
9d008fc8:	80640001 	lb	a0,1(v1)
9d008fcc:	2402002a 	li	v0,42
9d008fd0:	14820004 	bne	a0,v0,9d008fe4 <__scanf_core+0xd8>
9d008fd4:	00008825 	move	s1,zero
9d008fd8:	24630002 	addiu	v1,v1,2
9d008fdc:	afa301b4 	sw	v1,436(sp)
9d008fe0:	24110001 	li	s1,1
9d008fe4:	0f403fa6 	jal	9d00fe98 <atoi>
9d008fe8:	8fa401b4 	lw	a0,436(sp)
9d008fec:	00402825 	move	a1,v0
9d008ff0:	02002025 	move	a0,s0
9d008ff4:	0f404341 	jal	9d010d04 <__shlim>
9d008ff8:	afa201a4 	sw	v0,420(sp)
9d008ffc:	8fa301b4 	lw	v1,436(sp)
9d009000:	80620000 	lb	v0,0(v1)
9d009004:	2442ffd0 	addiu	v0,v0,-48
9d009008:	2c42000a 	sltiu	v0,v0,10
9d00900c:	1440004c 	bnez	v0,9d009140 <__scanf_core+0x234>
9d009010:	24630001 	addiu	v1,v1,1
9d009014:	0f40411c 	jal	9d010470 <__fmt_state>
9d009018:	27a401b4 	addiu	a0,sp,436
9d00901c:	0040a025 	move	s4,v0
9d009020:	8fa201b4 	lw	v0,436(sp)
9d009024:	0f4043e6 	jal	9d010f98 <tolower>
9d009028:	80440000 	lb	a0,0(v0)
9d00902c:	28430068 	slti	v1,v0,104
9d009030:	10600060 	beqz	v1,9d0091b4 <__scanf_core+0x2a8>
9d009034:	28430065 	slti	v1,v0,101
9d009038:	106000be 	beqz	v1,9d009334 <__scanf_core+0x428>
9d00903c:	24030061 	li	v1,97
9d009040:	104300bc 	beq	v0,v1,9d009334 <__scanf_core+0x428>
9d009044:	28430062 	slti	v1,v0,98
9d009048:	1060003f 	beqz	v1,9d009148 <__scanf_core+0x23c>
9d00904c:	24040025 	li	a0,37
9d009050:	104400e1 	beq	v0,a0,9d0093d8 <__scanf_core+0x4cc>
9d009054:	8fa301b4 	lw	v1,436(sp)
9d009058:	2404005b 	li	a0,91
9d00905c:	104400fd 	beq	v0,a0,9d009454 <__scanf_core+0x548>
9d009060:	24020080 	li	v0,128
9d009064:	8fa201b4 	lw	v0,436(sp)
9d009068:	24420001 	addiu	v0,v0,1
9d00906c:	afa201b4 	sw	v0,436(sp)
9d009070:	2402ffff 	li	v0,-1
9d009074:	166200ad 	bne	s3,v0,9d00932c <__scanf_core+0x420>
9d009078:	00008825 	move	s1,zero
9d00907c:	52a00014 	beqzl	s5,9d0090d0 <__scanf_core+0x1c4>
9d009080:	2415ffff 	li	s5,-1
9d009084:	10000013 	b	9d0090d4 <__scanf_core+0x1c8>
9d009088:	8fbf01dc 	lw	ra,476(sp)
9d00908c:	8e02003c 	lw	v0,60(s0)
9d009090:	8e03004c 	lw	v1,76(s0)
9d009094:	0043182b 	sltu	v1,v0,v1
9d009098:	1060001a 	beqz	v1,9d009104 <__scanf_core+0x1f8>
9d00909c:	24430001 	addiu	v1,v0,1
9d0090a0:	ae03003c 	sw	v1,60(s0)
9d0090a4:	90530000 	lbu	s3,0(v0)
9d0090a8:	8fa201b4 	lw	v0,436(sp)
9d0090ac:	80420000 	lb	v0,0(v0)
9d0090b0:	10530019 	beq	v0,s3,9d009118 <__scanf_core+0x20c>
9d0090b4:	8fa201b0 	lw	v0,432(sp)
9d0090b8:	8e02004c 	lw	v0,76(s0)
9d0090bc:	10400005 	beqz	v0,9d0090d4 <__scanf_core+0x1c8>
9d0090c0:	8fbf01dc 	lw	ra,476(sp)
9d0090c4:	8e02003c 	lw	v0,60(s0)
9d0090c8:	2442ffff 	addiu	v0,v0,-1
9d0090cc:	ae02003c 	sw	v0,60(s0)
9d0090d0:	8fbf01dc 	lw	ra,476(sp)
9d0090d4:	02a01025 	move	v0,s5
9d0090d8:	8fbe01d8 	lw	s8,472(sp)
9d0090dc:	8fb701d4 	lw	s7,468(sp)
9d0090e0:	8fb601d0 	lw	s6,464(sp)
9d0090e4:	8fb501cc 	lw	s5,460(sp)
9d0090e8:	8fb401c8 	lw	s4,456(sp)
9d0090ec:	8fb301c4 	lw	s3,452(sp)
9d0090f0:	8fb201c0 	lw	s2,448(sp)
9d0090f4:	8fb101bc 	lw	s1,444(sp)
9d0090f8:	8fb001b8 	lw	s0,440(sp)
9d0090fc:	03e00008 	jr	ra
9d009100:	27bd01e0 	addiu	sp,sp,480
9d009104:	0f403c35 	jal	9d00f0d4 <__shgetc>
9d009108:	02002025 	move	a0,s0
9d00910c:	1454ffe6 	bne	v0,s4,9d0090a8 <__scanf_core+0x19c>
9d009110:	00409825 	move	s3,v0
9d009114:	8fa201b0 	lw	v0,432(sp)
9d009118:	27a501b4 	addiu	a1,sp,436
9d00911c:	02002025 	move	a0,s0
9d009120:	24420001 	addiu	v0,v0,1
9d009124:	afa201b0 	sw	v0,432(sp)
9d009128:	8fa201b4 	lw	v0,436(sp)
9d00912c:	24420001 	addiu	v0,v0,1
9d009130:	0f40401f 	jal	9d01007c <__consumews>
9d009134:	afa201b4 	sw	v0,436(sp)
9d009138:	1000ff95 	b	9d008f90 <__scanf_core+0x84>
9d00913c:	03c2f021 	addu	s8,s8,v0
9d009140:	1000ffae 	b	9d008ffc <__scanf_core+0xf0>
9d009144:	afa301b4 	sw	v1,436(sp)
9d009148:	24030063 	li	v1,99
9d00914c:	1043008a 	beq	v0,v1,9d009378 <__scanf_core+0x46c>
9d009150:	24030064 	li	v1,100
9d009154:	1443ffc3 	bne	v0,v1,9d009064 <__scanf_core+0x158>
9d009158:	27a701b0 	addiu	a3,sp,432
9d00915c:	27a6019c 	addiu	a2,sp,412
9d009160:	27a50018 	addiu	a1,sp,24
9d009164:	0f404478 	jal	9d0111e0 <__scan_a>
9d009168:	02002025 	move	a0,s0
9d00916c:	0442000c 	bltzl	v0,9d0091a0 <__scanf_core+0x294>
9d009170:	00408825 	move	s1,v0
9d009174:	8fa201b4 	lw	v0,436(sp)
9d009178:	24420001 	addiu	v0,v0,1
9d00917c:	162000a8 	bnez	s1,9d009420 <__scanf_core+0x514>
9d009180:	afa201b4 	sw	v0,436(sp)
9d009184:	02403825 	move	a3,s2
9d009188:	24060001 	li	a2,1
9d00918c:	02802825 	move	a1,s4
9d009190:	0f40364f 	jal	9d00d93c <__push_int>
9d009194:	27a40018 	addiu	a0,sp,24
9d009198:	04410064 	bgez	v0,9d00932c <__scanf_core+0x420>
9d00919c:	00408825 	move	s1,v0
9d0091a0:	2402ffff 	li	v0,-1
9d0091a4:	1222ffb5 	beq	s1,v0,9d00907c <__scanf_core+0x170>
9d0091a8:	8fbf01dc 	lw	ra,476(sp)
9d0091ac:	1000ffca 	b	9d0090d8 <__scanf_core+0x1cc>
9d0091b0:	02a01025 	move	v0,s5
9d0091b4:	24030070 	li	v1,112
9d0091b8:	10430040 	beq	v0,v1,9d0092bc <__scanf_core+0x3b0>
9d0091bc:	28430071 	slti	v1,v0,113
9d0091c0:	1060000d 	beqz	v1,9d0091f8 <__scanf_core+0x2ec>
9d0091c4:	2403006e 	li	v1,110
9d0091c8:	1043004b 	beq	v0,v1,9d0092f8 <__scanf_core+0x3ec>
9d0091cc:	2843006f 	slti	v1,v0,111
9d0091d0:	1060002c 	beqz	v1,9d009284 <__scanf_core+0x378>
9d0091d4:	24030069 	li	v1,105
9d0091d8:	1443ffa2 	bne	v0,v1,9d009064 <__scanf_core+0x158>
9d0091dc:	27a701b0 	addiu	a3,sp,432
9d0091e0:	27a6019c 	addiu	a2,sp,412
9d0091e4:	27a50018 	addiu	a1,sp,24
9d0091e8:	0f404478 	jal	9d0111e0 <__scan_a>
9d0091ec:	02002025 	move	a0,s0
9d0091f0:	1000ffde 	b	9d00916c <__scanf_core+0x260>
9d0091f4:	00000000 	nop
9d0091f8:	24030075 	li	v1,117
9d0091fc:	10430013 	beq	v0,v1,9d00924c <__scanf_core+0x340>
9d009200:	24030078 	li	v1,120
9d009204:	10430026 	beq	v0,v1,9d0092a0 <__scanf_core+0x394>
9d009208:	24030073 	li	v1,115
9d00920c:	1443ff95 	bne	v0,v1,9d009064 <__scanf_core+0x158>
9d009210:	24020080 	li	v0,128
9d009214:	1682ff93 	bne	s4,v0,9d009064 <__scanf_core+0x158>
9d009218:	8fa201b4 	lw	v0,436(sp)
9d00921c:	24420001 	addiu	v0,v0,1
9d009220:	afa201b4 	sw	v0,436(sp)
9d009224:	16200005 	bnez	s1,9d00923c <__scanf_core+0x330>
9d009228:	00001025 	move	v0,zero
9d00922c:	8e420000 	lw	v0,0(s2)
9d009230:	24430004 	addiu	v1,v0,4
9d009234:	ae430000 	sw	v1,0(s2)
9d009238:	8c420000 	lw	v0,0(v0)
9d00923c:	afa20010 	sw	v0,16(sp)
9d009240:	27a701b0 	addiu	a3,sp,432
9d009244:	1000005f 	b	9d0093c4 <__scanf_core+0x4b8>
9d009248:	24060001 	li	a2,1
9d00924c:	27a701b0 	addiu	a3,sp,432
9d009250:	27a6019c 	addiu	a2,sp,412
9d009254:	27a50018 	addiu	a1,sp,24
9d009258:	0f404478 	jal	9d0111e0 <__scan_a>
9d00925c:	02002025 	move	a0,s0
9d009260:	0442ffcf 	bltzl	v0,9d0091a0 <__scanf_core+0x294>
9d009264:	00408825 	move	s1,v0
9d009268:	8fa201b4 	lw	v0,436(sp)
9d00926c:	24420001 	addiu	v0,v0,1
9d009270:	1620006b 	bnez	s1,9d009420 <__scanf_core+0x514>
9d009274:	afa201b4 	sw	v0,436(sp)
9d009278:	02403825 	move	a3,s2
9d00927c:	1000ffc3 	b	9d00918c <__scanf_core+0x280>
9d009280:	00003025 	move	a2,zero
9d009284:	27a701b0 	addiu	a3,sp,432
9d009288:	27a6019c 	addiu	a2,sp,412
9d00928c:	27a50018 	addiu	a1,sp,24
9d009290:	0f404478 	jal	9d0111e0 <__scan_a>
9d009294:	02002025 	move	a0,s0
9d009298:	1000fff1 	b	9d009260 <__scanf_core+0x354>
9d00929c:	00000000 	nop
9d0092a0:	27a701b0 	addiu	a3,sp,432
9d0092a4:	27a6019c 	addiu	a2,sp,412
9d0092a8:	27a50018 	addiu	a1,sp,24
9d0092ac:	0f404478 	jal	9d0111e0 <__scan_a>
9d0092b0:	02002025 	move	a0,s0
9d0092b4:	1000ffea 	b	9d009260 <__scanf_core+0x354>
9d0092b8:	00000000 	nop
9d0092bc:	27a701b0 	addiu	a3,sp,432
9d0092c0:	27a6019c 	addiu	a2,sp,412
9d0092c4:	27a50018 	addiu	a1,sp,24
9d0092c8:	0f404478 	jal	9d0111e0 <__scan_a>
9d0092cc:	02002025 	move	a0,s0
9d0092d0:	0442ffb3 	bltzl	v0,9d0091a0 <__scanf_core+0x294>
9d0092d4:	00408825 	move	s1,v0
9d0092d8:	8fa201b4 	lw	v0,436(sp)
9d0092dc:	24420001 	addiu	v0,v0,1
9d0092e0:	1620004f 	bnez	s1,9d009420 <__scanf_core+0x514>
9d0092e4:	afa201b4 	sw	v0,436(sp)
9d0092e8:	02403825 	move	a3,s2
9d0092ec:	00003025 	move	a2,zero
9d0092f0:	1000ffa7 	b	9d009190 <__scanf_core+0x284>
9d0092f4:	240500f0 	li	a1,240
9d0092f8:	8fa201b4 	lw	v0,436(sp)
9d0092fc:	24420001 	addiu	v0,v0,1
9d009300:	afa201b4 	sw	v0,436(sp)
9d009304:	8fa201b0 	lw	v0,432(sp)
9d009308:	afa20018 	sw	v0,24(sp)
9d00930c:	000217c3 	sra	v0,v0,0x1f
9d009310:	16200043 	bnez	s1,9d009420 <__scanf_core+0x514>
9d009314:	afa2001c 	sw	v0,28(sp)
9d009318:	02403825 	move	a3,s2
9d00931c:	00003025 	move	a2,zero
9d009320:	02802825 	move	a1,s4
9d009324:	0f40364f 	jal	9d00d93c <__push_int>
9d009328:	27a40018 	addiu	a0,sp,24
9d00932c:	1000ff09 	b	9d008f54 <__scanf_core+0x48>
9d009330:	02b1a821 	addu	s5,s5,s1
9d009334:	27a701b0 	addiu	a3,sp,432
9d009338:	27a6019c 	addiu	a2,sp,412
9d00933c:	27a50018 	addiu	a1,sp,24
9d009340:	0f402de8 	jal	9d00b7a0 <__scan_fp>
9d009344:	02002025 	move	a0,s0
9d009348:	0442ff95 	bltzl	v0,9d0091a0 <__scanf_core+0x294>
9d00934c:	00408825 	move	s1,v0
9d009350:	8fa201b4 	lw	v0,436(sp)
9d009354:	24420001 	addiu	v0,v0,1
9d009358:	16200031 	bnez	s1,9d009420 <__scanf_core+0x514>
9d00935c:	afa201b4 	sw	v0,436(sp)
9d009360:	02403025 	move	a2,s2
9d009364:	02802825 	move	a1,s4
9d009368:	0f403d10 	jal	9d00f440 <__push_float>
9d00936c:	27a40018 	addiu	a0,sp,24
9d009370:	1000ff89 	b	9d009198 <__scanf_core+0x28c>
9d009374:	00000000 	nop
9d009378:	24020080 	li	v0,128
9d00937c:	1682ff39 	bne	s4,v0,9d009064 <__scanf_core+0x158>
9d009380:	8fa201a4 	lw	v0,420(sp)
9d009384:	54400004 	bnezl	v0,9d009398 <__scanf_core+0x48c>
9d009388:	8fa201b4 	lw	v0,436(sp)
9d00938c:	24020001 	li	v0,1
9d009390:	afa201a4 	sw	v0,420(sp)
9d009394:	8fa201b4 	lw	v0,436(sp)
9d009398:	24420001 	addiu	v0,v0,1
9d00939c:	afa201b4 	sw	v0,436(sp)
9d0093a0:	16200005 	bnez	s1,9d0093b8 <__scanf_core+0x4ac>
9d0093a4:	00001025 	move	v0,zero
9d0093a8:	8e420000 	lw	v0,0(s2)
9d0093ac:	24430004 	addiu	v1,v0,4
9d0093b0:	ae430000 	sw	v1,0(s2)
9d0093b4:	8c420000 	lw	v0,0(v0)
9d0093b8:	afa20010 	sw	v0,16(sp)
9d0093bc:	27a701b0 	addiu	a3,sp,432
9d0093c0:	00003025 	move	a2,zero
9d0093c4:	27a5019c 	addiu	a1,sp,412
9d0093c8:	0f40447a 	jal	9d0111e8 <__scan_s>
9d0093cc:	02002025 	move	a0,s0
9d0093d0:	1000ff71 	b	9d009198 <__scanf_core+0x28c>
9d0093d4:	00000000 	nop
9d0093d8:	24020080 	li	v0,128
9d0093dc:	1682ff22 	bne	s4,v0,9d009068 <__scanf_core+0x15c>
9d0093e0:	8fa201b4 	lw	v0,436(sp)
9d0093e4:	24630001 	addiu	v1,v1,1
9d0093e8:	afa301b4 	sw	v1,436(sp)
9d0093ec:	8e02003c 	lw	v0,60(s0)
9d0093f0:	8e03004c 	lw	v1,76(s0)
9d0093f4:	0043182b 	sltu	v1,v0,v1
9d0093f8:	1060000b 	beqz	v1,9d009428 <__scanf_core+0x51c>
9d0093fc:	00000000 	nop
9d009400:	24430001 	addiu	v1,v0,1
9d009404:	ae03003c 	sw	v1,60(s0)
9d009408:	90420000 	lbu	v0,0(v0)
9d00940c:	24030025 	li	v1,37
9d009410:	14430009 	bne	v0,v1,9d009438 <__scanf_core+0x52c>
9d009414:	8fa201b0 	lw	v0,432(sp)
9d009418:	24420001 	addiu	v0,v0,1
9d00941c:	afa201b0 	sw	v0,432(sp)
9d009420:	1000ffc2 	b	9d00932c <__scanf_core+0x420>
9d009424:	00008825 	move	s1,zero
9d009428:	0f403c35 	jal	9d00f0d4 <__shgetc>
9d00942c:	02002025 	move	a0,s0
9d009430:	1000fff7 	b	9d009410 <__scanf_core+0x504>
9d009434:	24030025 	li	v1,37
9d009438:	8e02004c 	lw	v0,76(s0)
9d00943c:	5040ffbb 	beqzl	v0,9d00932c <__scanf_core+0x420>
9d009440:	00008825 	move	s1,zero
9d009444:	8e02003c 	lw	v0,60(s0)
9d009448:	2442ffff 	addiu	v0,v0,-1
9d00944c:	1000fff4 	b	9d009420 <__scanf_core+0x514>
9d009450:	ae02003c 	sw	v0,60(s0)
9d009454:	1682ff04 	bne	s4,v0,9d009068 <__scanf_core+0x15c>
9d009458:	8fa201b4 	lw	v0,436(sp)
9d00945c:	16200005 	bnez	s1,9d009474 <__scanf_core+0x568>
9d009460:	0000a025 	move	s4,zero
9d009464:	8e420000 	lw	v0,0(s2)
9d009468:	24440004 	addiu	a0,v0,4
9d00946c:	ae440000 	sw	a0,0(s2)
9d009470:	8c540000 	lw	s4,0(v0)
9d009474:	24620001 	addiu	v0,v1,1
9d009478:	afa201b4 	sw	v0,436(sp)
9d00947c:	80640001 	lb	a0,1(v1)
9d009480:	2402005e 	li	v0,94
9d009484:	14820004 	bne	a0,v0,9d009498 <__scanf_core+0x58c>
9d009488:	00008825 	move	s1,zero
9d00948c:	24630002 	addiu	v1,v1,2
9d009490:	afa301b4 	sw	v1,436(sp)
9d009494:	24110001 	li	s1,1
9d009498:	27a40018 	addiu	a0,sp,24
9d00949c:	24060101 	li	a2,257
9d0094a0:	0f4043a0 	jal	9d010e80 <memset>
9d0094a4:	02202825 	move	a1,s1
9d0094a8:	8fa201b4 	lw	v0,436(sp)
9d0094ac:	a3a00018 	sb	zero,24(sp)
9d0094b0:	2404002d 	li	a0,45
9d0094b4:	80430000 	lb	v1,0(v0)
9d0094b8:	1464001c 	bne	v1,a0,9d00952c <__scanf_core+0x620>
9d0094bc:	2404005d 	li	a0,93
9d0094c0:	24420001 	addiu	v0,v0,1
9d0094c4:	afa201b4 	sw	v0,436(sp)
9d0094c8:	02d11023 	subu	v0,s6,s1
9d0094cc:	a3a20046 	sb	v0,70(sp)
9d0094d0:	2405005d 	li	a1,93
9d0094d4:	2406002d 	li	a2,45
9d0094d8:	02d18823 	subu	s1,s6,s1
9d0094dc:	8fa301b4 	lw	v1,436(sp)
9d0094e0:	80620000 	lb	v0,0(v1)
9d0094e4:	14450017 	bne	v0,a1,9d009544 <__scanf_core+0x638>
9d0094e8:	00000000 	nop
9d0094ec:	56800036 	bnezl	s4,9d0095c8 <__scanf_core+0x6bc>
9d0094f0:	00008825 	move	s1,zero
9d0094f4:	8e02003c 	lw	v0,60(s0)
9d0094f8:	8e03004c 	lw	v1,76(s0)
9d0094fc:	0043182b 	sltu	v1,v0,v1
9d009500:	10600053 	beqz	v1,9d009650 <__scanf_core+0x744>
9d009504:	24430001 	addiu	v1,v0,1
9d009508:	ae03003c 	sw	v1,60(s0)
9d00950c:	90530000 	lbu	s3,0(v0)
9d009510:	27a20018 	addiu	v0,sp,24
9d009514:	00531021 	addu	v0,v0,s3
9d009518:	90420001 	lbu	v0,1(v0)
9d00951c:	14400048 	bnez	v0,9d009640 <__scanf_core+0x734>
9d009520:	0000f025 	move	s8,zero
9d009524:	10000036 	b	9d009600 <__scanf_core+0x6f4>
9d009528:	8e02004c 	lw	v0,76(s0)
9d00952c:	1464ffe8 	bne	v1,a0,9d0094d0 <__scanf_core+0x5c4>
9d009530:	24420001 	addiu	v0,v0,1
9d009534:	afa201b4 	sw	v0,436(sp)
9d009538:	02d11023 	subu	v0,s6,s1
9d00953c:	1000ffe4 	b	9d0094d0 <__scanf_core+0x5c4>
9d009540:	a3a20076 	sb	v0,118(sp)
9d009544:	1040ffe9 	beqz	v0,9d0094ec <__scanf_core+0x5e0>
9d009548:	00000000 	nop
9d00954c:	10460009 	beq	v0,a2,9d009574 <__scanf_core+0x668>
9d009550:	8fa201b8 	lw	v0,440(sp)
9d009554:	8fa201b4 	lw	v0,436(sp)
9d009558:	27a40018 	addiu	a0,sp,24
9d00955c:	80430000 	lb	v1,0(v0)
9d009560:	24420001 	addiu	v0,v0,1
9d009564:	afa201b4 	sw	v0,436(sp)
9d009568:	00831821 	addu	v1,a0,v1
9d00956c:	1000ffdb 	b	9d0094dc <__scanf_core+0x5d0>
9d009570:	a0710001 	sb	s1,1(v1)
9d009574:	80420000 	lb	v0,0(v0)
9d009578:	5040fff7 	beqzl	v0,9d009558 <__scanf_core+0x64c>
9d00957c:	8fa201b4 	lw	v0,436(sp)
9d009580:	1045fff4 	beq	v0,a1,9d009554 <__scanf_core+0x648>
9d009584:	24620001 	addiu	v0,v1,1
9d009588:	afa201b4 	sw	v0,436(sp)
9d00958c:	8fa201b0 	lw	v0,432(sp)
9d009590:	80420000 	lb	v0,0(v0)
9d009594:	80640001 	lb	a0,1(v1)
9d009598:	0044202a 	slt	a0,v0,a0
9d00959c:	1080ffed 	beqz	a0,9d009554 <__scanf_core+0x648>
9d0095a0:	24420001 	addiu	v0,v0,1
9d0095a4:	27a40018 	addiu	a0,sp,24
9d0095a8:	00822021 	addu	a0,a0,v0
9d0095ac:	1000fff9 	b	9d009594 <__scanf_core+0x688>
9d0095b0:	a0910000 	sb	s1,0(a0)
9d0095b4:	a0530000 	sb	s3,0(v0)
9d0095b8:	8fa201b0 	lw	v0,432(sp)
9d0095bc:	26310001 	addiu	s1,s1,1
9d0095c0:	24420001 	addiu	v0,v0,1
9d0095c4:	afa201b0 	sw	v0,432(sp)
9d0095c8:	8e02003c 	lw	v0,60(s0)
9d0095cc:	8e03004c 	lw	v1,76(s0)
9d0095d0:	0043182b 	sltu	v1,v0,v1
9d0095d4:	10600016 	beqz	v1,9d009630 <__scanf_core+0x724>
9d0095d8:	0220f025 	move	s8,s1
9d0095dc:	24430001 	addiu	v1,v0,1
9d0095e0:	ae03003c 	sw	v1,60(s0)
9d0095e4:	90530000 	lbu	s3,0(v0)
9d0095e8:	27a20018 	addiu	v0,sp,24
9d0095ec:	00531021 	addu	v0,v0,s3
9d0095f0:	90420001 	lbu	v0,1(v0)
9d0095f4:	1440ffef 	bnez	v0,9d0095b4 <__scanf_core+0x6a8>
9d0095f8:	02911021 	addu	v0,s4,s1
9d0095fc:	8e02004c 	lw	v0,76(s0)
9d009600:	10400004 	beqz	v0,9d009614 <__scanf_core+0x708>
9d009604:	00000000 	nop
9d009608:	8e02003c 	lw	v0,60(s0)
9d00960c:	2442ffff 	addiu	v0,v0,-1
9d009610:	ae02003c 	sw	v0,60(s0)
9d009614:	13c0fe94 	beqz	s8,9d009068 <__scanf_core+0x15c>
9d009618:	8fa201b4 	lw	v0,436(sp)
9d00961c:	1280fe93 	beqz	s4,9d00906c <__scanf_core+0x160>
9d009620:	24420001 	addiu	v0,v0,1
9d009624:	029ea021 	addu	s4,s4,s8
9d009628:	1000fe8e 	b	9d009064 <__scanf_core+0x158>
9d00962c:	a2800000 	sb	zero,0(s4)
9d009630:	0f403c35 	jal	9d00f0d4 <__shgetc>
9d009634:	02002025 	move	a0,s0
9d009638:	1000ffeb 	b	9d0095e8 <__scanf_core+0x6dc>
9d00963c:	00409825 	move	s3,v0
9d009640:	8fa201b0 	lw	v0,432(sp)
9d009644:	24420001 	addiu	v0,v0,1
9d009648:	1000ffaa 	b	9d0094f4 <__scanf_core+0x5e8>
9d00964c:	afa201b0 	sw	v0,432(sp)
9d009650:	0f403c35 	jal	9d00f0d4 <__shgetc>
9d009654:	02002025 	move	a0,s0
9d009658:	1000ffad 	b	9d009510 <__scanf_core+0x604>
9d00965c:	00409825 	move	s3,v0

Disassembly of section .text:

9d009660 <makeWaveform>:
  }
  IFS0bits.T2IF = 0;
}

void makeWaveform()
{
9d009660:	24040001 	li	a0,1
9d009664:	00001025 	move	v0,zero
    {
      Waveform[i] = center + A;
    }
    else
    {
      Waveform[i] = center - A;
9d009668:	3c03a000 	lui	v1,0xa000
9d00966c:	24630720 	addiu	v1,v1,1824
9d009670:	24070100 	li	a3,256
      Waveform[i] = center + A;
9d009674:	240602fe 	li	a2,766
    if (i < NUMSAMPS / 2)
9d009678:	284501f4 	slti	a1,v0,500
9d00967c:	10a00006 	beqz	a1,9d009698 <makeWaveform+0x38>
9d009680:	00022880 	sll	a1,v0,0x2
      Waveform[i] = center + A;
9d009684:	00a32821 	addu	a1,a1,v1
9d009688:	aca60000 	sw	a2,0(a1)
9d00968c:	24420001 	addiu	v0,v0,1
9d009690:	1000fff9 	b	9d009678 <makeWaveform+0x18>
9d009694:	24840001 	addiu	a0,a0,1
      Waveform[i] = center - A;
9d009698:	00a32821 	addu	a1,a1,v1
9d00969c:	aca70000 	sw	a3,0(a1)
  for (i = 0; i < NUMSAMPS; ++i)
9d0096a0:	288503e8 	slti	a1,a0,1000
9d0096a4:	14a0fffa 	bnez	a1,9d009690 <makeWaveform+0x30>
9d0096a8:	24420001 	addiu	v0,v0,1
    }
  }
}
9d0096ac:	03e00008 	jr	ra
9d0096b0:	00000000 	nop

9d0096b4 <main>:
{
9d0096b4:	27bdff58 	addiu	sp,sp,-168
9d0096b8:	afbf00a4 	sw	ra,164(sp)
9d0096bc:	afb500a0 	sw	s5,160(sp)
9d0096c0:	afb4009c 	sw	s4,156(sp)
9d0096c4:	afb30098 	sw	s3,152(sp)
9d0096c8:	afb20094 	sw	s2,148(sp)
9d0096cc:	afb10090 	sw	s1,144(sp)
  NU32DIP_Startup(); // cache on, interrupts on, LED/button init, UART init
9d0096d0:	0f4034a8 	jal	9d00d2a0 <NU32DIP_Startup>
9d0096d4:	afb0008c 	sw	s0,140(sp)
  makeWaveform();
9d0096d8:	0f402598 	jal	9d009660 <makeWaveform>
9d0096dc:	00000000 	nop
  float kptemp = 0, kitemp = 0; 
9d0096e0:	00001025 	move	v0,zero
9d0096e4:	afa2007c 	sw	v0,124(sp)
9d0096e8:	afa20080 	sw	v0,128(sp)
  RPB15Rbits.RPB15R = 0b0101;
9d0096ec:	3c02bf81 	lui	v0,0xbf81
9d0096f0:	9043fb68 	lbu	v1,-1176(v0)
9d0096f4:	24070005 	li	a3,5
9d0096f8:	7ce31804 	ins	v1,a3,0x0,0x4
9d0096fc:	a043fb68 	sb	v1,-1176(v0)
  T3CONbits.TCKPS = 0;
9d009700:	3c04bf80 	lui	a0,0xbf80
9d009704:	94820a00 	lhu	v0,2560(a0)
9d009708:	7c023104 	ins	v0,zero,0x4,0x3
9d00970c:	a4820a00 	sh	v0,2560(a0)
  PR3 = 2400 - 1;
9d009710:	3c02bf80 	lui	v0,0xbf80
9d009714:	2403095f 	li	v1,2399
9d009718:	ac430a20 	sw	v1,2592(v0)
  TMR3 = 0;
9d00971c:	3c02bf80 	lui	v0,0xbf80
9d009720:	ac400a10 	sw	zero,2576(v0)
  OC1CONbits.OCM = 0b110; // PWM mode without fault pin; other OC1CON bits are defaults
9d009724:	3c03bf80 	lui	v1,0xbf80
9d009728:	94623000 	lhu	v0,12288(v1)
9d00972c:	24050006 	li	a1,6
9d009730:	7ca21004 	ins	v0,a1,0x0,0x3
9d009734:	a4623000 	sh	v0,12288(v1)
  OC1RS = 0;              // duty cycle = OC1RS/(PR2+1) = 25%
9d009738:	3c06bf80 	lui	a2,0xbf80
9d00973c:	acc03020 	sw	zero,12320(a2)
  OC1R = 0;               // initialize before turning OC1 on; afterward it is read-only
9d009740:	3c02bf80 	lui	v0,0xbf80
9d009744:	ac403010 	sw	zero,12304(v0)
  OC1CONbits.OCTSEL = 1;  // use t3 instead of t2
9d009748:	94653000 	lhu	a1,12288(v1)
9d00974c:	24020001 	li	v0,1
9d009750:	7c4518c4 	ins	a1,v0,0x3,0x1
9d009754:	a4653000 	sh	a1,12288(v1)
  T3CONbits.ON = 1;       // turn on Timer2
9d009758:	94850a00 	lhu	a1,2560(a0)
9d00975c:	7c457bc4 	ins	a1,v0,0xf,0x1
9d009760:	a4850a00 	sh	a1,2560(a0)
  OC1CONbits.ON = 1;      // turn on OC1
9d009764:	94643000 	lhu	a0,12288(v1)
9d009768:	7c447bc4 	ins	a0,v0,0xf,0x1
9d00976c:	a4643000 	sh	a0,12288(v1)
  ANSELAbits.ANSA1 = 0; // use A1 as AN1
9d009770:	3c03bf88 	lui	v1,0xbf88
9d009774:	90646000 	lbu	a0,24576(v1)
9d009778:	7c040844 	ins	a0,zero,0x1,0x1
9d00977c:	a0646000 	sb	a0,24576(v1)
  AD1CON3bits.ADCS = 1; // ADC clock period is Tad = 2*(ADCS+1)*Tpb =
9d009780:	3c03bf81 	lui	v1,0xbf81
9d009784:	a0629020 	sb	v0,-28640(v1)
  AD1CON1bits.ADON = 1;
9d009788:	3c03bf81 	lui	v1,0xbf81
9d00978c:	94649000 	lhu	a0,-28672(v1)
9d009790:	7c447bc4 	ins	a0,v0,0xf,0x1
9d009794:	a4649000 	sh	a0,-28672(v1)
  __builtin_disable_interrupts(); // INT step 2: disable interrupts at CPU
9d009798:	41636000 	di	v1
9d00979c:	000000c0 	ehb
  PR2 = 48000 - 1;
9d0097a0:	3c03bf80 	lui	v1,0xbf80
9d0097a4:	3404bb7f 	li	a0,0xbb7f
9d0097a8:	ac640820 	sw	a0,2080(v1)
  TMR2 = 0;
9d0097ac:	3c03bf80 	lui	v1,0xbf80
9d0097b0:	ac600810 	sw	zero,2064(v1)
  T2CONbits.TCKPS = 0;
9d0097b4:	3c03bf80 	lui	v1,0xbf80
9d0097b8:	94640800 	lhu	a0,2048(v1)
9d0097bc:	7c043104 	ins	a0,zero,0x4,0x3
9d0097c0:	a4640800 	sh	a0,2048(v1)
  T2CONbits.ON = 1;
9d0097c4:	94640800 	lhu	a0,2048(v1)
9d0097c8:	7c447bc4 	ins	a0,v0,0xf,0x1
9d0097cc:	a4640800 	sh	a0,2048(v1)
  IPC2bits.T2IP = 5;
9d0097d0:	3c03bf88 	lui	v1,0xbf88
9d0097d4:	8c6410b0 	lw	a0,4272(v1)
9d0097d8:	7ce42084 	ins	a0,a3,0x2,0x3
9d0097dc:	ac6410b0 	sw	a0,4272(v1)
  IPC2bits.T2IS = 0;
9d0097e0:	8c6410b0 	lw	a0,4272(v1)
9d0097e4:	7c040804 	ins	a0,zero,0x0,0x2
9d0097e8:	ac6410b0 	sw	a0,4272(v1)
  IFS0bits.T2IF = 0;
9d0097ec:	3c03bf88 	lui	v1,0xbf88
9d0097f0:	8c641030 	lw	a0,4144(v1)
9d0097f4:	7c044a44 	ins	a0,zero,0x9,0x1
9d0097f8:	ac641030 	sw	a0,4144(v1)
  IEC0bits.T2IE = 1;
9d0097fc:	3c03bf88 	lui	v1,0xbf88
9d009800:	8c641060 	lw	a0,4192(v1)
9d009804:	7c444a44 	ins	a0,v0,0x9,0x1
9d009808:	ac641060 	sw	a0,4192(v1)
  __builtin_enable_interrupts();
9d00980c:	41626020 	ei	v0
  OC1RS = 1200; // set duty cycle to 50%
9d009810:	240204b0 	li	v0,1200
9d009814:	acc23020 	sw	v0,12320(a2)
    sscanf(message, "%f %f", &kptemp, &kitemp);
9d009818:	3c159d00 	lui	s5,0x9d00
9d00981c:	26b57490 	addiu	s5,s5,29840
      sprintf(message, "%d %d %d\r\n", PLOTPTS - i, ADCarray[i], REFarray[i]);
9d009820:	3c14a000 	lui	s4,0xa000
9d009824:	26940400 	addiu	s4,s4,1024
9d009828:	3c13a000 	lui	s3,0xa000
9d00982c:	267300e0 	addiu	s3,s3,224
9d009830:	3c119d00 	lui	s1,0x9d00
9d009834:	26317498 	addiu	s1,s1,29848
    NU32DIP_ReadUART1(message, sizeof(message)); // wait for a message from MATLAB
9d009838:	24050064 	li	a1,100
9d00983c:	0f4034f0 	jal	9d00d3c0 <NU32DIP_ReadUART1>
9d009840:	27a40018 	addiu	a0,sp,24
    sscanf(message, "%f %f", &kptemp, &kitemp);
9d009844:	27a70080 	addiu	a3,sp,128
9d009848:	27a6007c 	addiu	a2,sp,124
9d00984c:	02a02825 	move	a1,s5
9d009850:	0f404382 	jal	9d010e08 <_dsscanf_eE>
9d009854:	27a40018 	addiu	a0,sp,24
    __builtin_disable_interrupts();
9d009858:	41626000 	di	v0
9d00985c:	000000c0 	ehb
    Kp = kptemp;
9d009860:	8fa2007c 	lw	v0,124(sp)
9d009864:	af828028 	sw	v0,-32728(gp)
    Ki = kitemp;
9d009868:	8fa20080 	lw	v0,128(sp)
9d00986c:	af828024 	sw	v0,-32732(gp)
    __builtin_enable_interrupts();
9d009870:	41626020 	ei	v0
    StoringData = 1;
9d009874:	24020001 	li	v0,1
9d009878:	af82802c 	sw	v0,-32724(gp)
    while (StoringData)
9d00987c:	8f90802c 	lw	s0,-32724(gp)
9d009880:	1600fffe 	bnez	s0,9d00987c <main+0x1c8>
9d009884:	241200c8 	li	s2,200
      sprintf(message, "%d %d %d\r\n", PLOTPTS - i, ADCarray[i], REFarray[i]);
9d009888:	00101080 	sll	v0,s0,0x2
9d00988c:	00541821 	addu	v1,v0,s4
9d009890:	8c670000 	lw	a3,0(v1)
9d009894:	00531021 	addu	v0,v0,s3
9d009898:	8c420000 	lw	v0,0(v0)
9d00989c:	afa20010 	sw	v0,16(sp)
9d0098a0:	02503023 	subu	a2,s2,s0
9d0098a4:	02202825 	move	a1,s1
9d0098a8:	0f404378 	jal	9d010de0 <_dsprintf_cdnopuxX>
9d0098ac:	27a40018 	addiu	a0,sp,24
      NU32DIP_WriteUART1(message);
9d0098b0:	0f403509 	jal	9d00d424 <NU32DIP_WriteUART1>
9d0098b4:	27a40018 	addiu	a0,sp,24
    for (i = 0; i < PLOTPTS; i++)
9d0098b8:	26100001 	addiu	s0,s0,1
9d0098bc:	1612fff2 	bne	s0,s2,9d009888 <main+0x1d4>
9d0098c0:	24050064 	li	a1,100
9d0098c4:	1000ffdd 	b	9d00983c <main+0x188>
9d0098c8:	00000000 	nop

9d0098cc <adc_sample_convert>:

unsigned int adc_sample_convert(int pin)
{ // sample & convert the value on the given
9d0098cc:	27bdfff8 	addiu	sp,sp,-8
9d0098d0:	afbf0004 	sw	ra,4(sp)
  // adc pin the pin should be configured as an
  // analog input in AD1PCFG
  unsigned int elapsed = 0, finish_time = 0;
  AD1CHSbits.CH0SA = pin; // connect chosen pin to MUXA for sampling
9d0098d4:	3c02bf81 	lui	v0,0xbf81
9d0098d8:	8c439040 	lw	v1,-28608(v0)
9d0098dc:	7c839c04 	ins	v1,a0,0x10,0x4
9d0098e0:	ac439040 	sw	v1,-28608(v0)
  AD1CON1bits.SAMP = 1;   // start sampling
9d0098e4:	3c02bf81 	lui	v0,0xbf81
9d0098e8:	94439000 	lhu	v1,-28672(v0)
9d0098ec:	24040001 	li	a0,1
9d0098f0:	7c830844 	ins	v1,a0,0x1,0x1
9d0098f4:	a4439000 	sh	v1,-28672(v0)
  elapsed = _CP0_GET_COUNT();
9d0098f8:	40024800 	mfc0	v0,c0_count
  finish_time = elapsed + 10;
9d0098fc:	2442000a 	addiu	v0,v0,10
  while (_CP0_GET_COUNT() < finish_time)
9d009900:	40034800 	mfc0	v1,c0_count
9d009904:	0062182b 	sltu	v1,v1,v0
9d009908:	1460fffd 	bnez	v1,9d009900 <adc_sample_convert+0x34>
9d00990c:	00000000 	nop
  {
    ; // sample for more than 250 ns
  }
  AD1CON1bits.SAMP = 0; // stop sampling and start converting
9d009910:	3c02bf81 	lui	v0,0xbf81
9d009914:	94439000 	lhu	v1,-28672(v0)
9d009918:	7c030844 	ins	v1,zero,0x1,0x1
9d00991c:	a4439000 	sh	v1,-28672(v0)
  while (!AD1CON1bits.DONE)
9d009920:	00401825 	move	v1,v0
9d009924:	8c629000 	lw	v0,-28672(v1)
9d009928:	30420001 	andi	v0,v0,0x1
9d00992c:	1040fffd 	beqz	v0,9d009924 <adc_sample_convert+0x58>
9d009930:	3c02bf81 	lui	v0,0xbf81
  {
    ; // wait for the conversion process to finish
  }
  return ADC1BUF0; // read the buffer with the result
9d009934:	8c429070 	lw	v0,-28560(v0)
9d009938:	8fbf0004 	lw	ra,4(sp)
9d00993c:	03e00008 	jr	ra
9d009940:	27bd0008 	addiu	sp,sp,8

9d009944 <Controller>:
{
9d009944:	415de800 	rdpgpr	sp,sp
9d009948:	401a7000 	mfc0	k0,c0_epc
9d00994c:	401b6000 	mfc0	k1,c0_status
9d009950:	27bdff70 	addiu	sp,sp,-144
9d009954:	afba008c 	sw	k0,140(sp)
9d009958:	401a6002 	mfc0	k0,c0_srsctl
9d00995c:	afbb0088 	sw	k1,136(sp)
9d009960:	afba0084 	sw	k0,132(sp)
9d009964:	7c1b7844 	ins	k1,zero,0x1,0xf
9d009968:	377b1400 	ori	k1,k1,0x1400
9d00996c:	409b6000 	mtc0	k1,c0_status
9d009970:	afbf0074 	sw	ra,116(sp)
9d009974:	afbe0070 	sw	s8,112(sp)
9d009978:	afb9006c 	sw	t9,108(sp)
9d00997c:	afb80068 	sw	t8,104(sp)
9d009980:	afb50064 	sw	s5,100(sp)
9d009984:	afb40060 	sw	s4,96(sp)
9d009988:	afb3005c 	sw	s3,92(sp)
9d00998c:	afb20058 	sw	s2,88(sp)
9d009990:	afb10054 	sw	s1,84(sp)
9d009994:	afb00050 	sw	s0,80(sp)
9d009998:	afaf004c 	sw	t7,76(sp)
9d00999c:	afae0048 	sw	t6,72(sp)
9d0099a0:	afad0044 	sw	t5,68(sp)
9d0099a4:	afac0040 	sw	t4,64(sp)
9d0099a8:	afab003c 	sw	t3,60(sp)
9d0099ac:	afaa0038 	sw	t2,56(sp)
9d0099b0:	afa90034 	sw	t1,52(sp)
9d0099b4:	afa80030 	sw	t0,48(sp)
9d0099b8:	afa7002c 	sw	a3,44(sp)
9d0099bc:	afa60028 	sw	a2,40(sp)
9d0099c0:	afa50024 	sw	a1,36(sp)
9d0099c4:	afa40020 	sw	a0,32(sp)
9d0099c8:	afa3001c 	sw	v1,28(sp)
9d0099cc:	afa20018 	sw	v0,24(sp)
9d0099d0:	afa10014 	sw	at,20(sp)
9d0099d4:	00001012 	mflo	v0
9d0099d8:	afa2007c 	sw	v0,124(sp)
9d0099dc:	00001810 	mfhi	v1
9d0099e0:	afa30078 	sw	v1,120(sp)
9d0099e4:	03a0f025 	move	s8,sp
  adcval = adc_sample_convert(1);
9d0099e8:	0f402633 	jal	9d0098cc <adc_sample_convert>
9d0099ec:	24040001 	li	a0,1
9d0099f0:	0040a025 	move	s4,v0
  int error = -adcval + Waveform[counter];
9d0099f4:	8f908020 	lw	s0,-32736(gp)
9d0099f8:	00101080 	sll	v0,s0,0x2
9d0099fc:	3c03a000 	lui	v1,0xa000
9d009a00:	24630720 	addiu	v1,v1,1824
9d009a04:	00431021 	addu	v0,v0,v1
9d009a08:	8c510000 	lw	s1,0(v0)
9d009a0c:	02348823 	subu	s1,s1,s4
  eint = eint + error;
9d009a10:	8f82801c 	lw	v0,-32740(gp)
9d009a14:	02221021 	addu	v0,s1,v0
  if (eint > 800){
9d009a18:	28430321 	slti	v1,v0,801
9d009a1c:	1460007a 	bnez	v1,9d009c08 <Controller+0x2c4>
9d009a20:	af82801c 	sw	v0,-32740(gp)
    eint = 800;
9d009a24:	24020320 	li	v0,800
9d009a28:	af82801c 	sw	v0,-32740(gp)
  float u = Kp * error + Ki * eint;
9d009a2c:	8f938028 	lw	s3,-32728(gp)
9d009a30:	8f928024 	lw	s2,-32732(gp)
9d009a34:	0f4040d6 	jal	9d010358 <__floatsisf>
9d009a38:	8f84801c 	lw	a0,-32740(gp)
9d009a3c:	02402825 	move	a1,s2
9d009a40:	0f403518 	jal	9d00d460 <__mulsf3>
9d009a44:	00402025 	move	a0,v0
9d009a48:	00409025 	move	s2,v0
9d009a4c:	0f4040d6 	jal	9d010358 <__floatsisf>
9d009a50:	02202025 	move	a0,s1
9d009a54:	02602825 	move	a1,s3
9d009a58:	0f403518 	jal	9d00d460 <__mulsf3>
9d009a5c:	00402025 	move	a0,v0
9d009a60:	00402825 	move	a1,v0
9d009a64:	0f40338a 	jal	9d00ce28 <__addsf3>
9d009a68:	02402025 	move	a0,s2
  float unew = u + 50.;
9d009a6c:	3c039d00 	lui	v1,0x9d00
9d009a70:	8c6574a8 	lw	a1,29864(v1)
9d009a74:	0f40338a 	jal	9d00ce28 <__addsf3>
9d009a78:	00402025 	move	a0,v0
9d009a7c:	00408825 	move	s1,v0
  if (unew > 100.)
9d009a80:	3c029d00 	lui	v0,0x9d00
9d009a84:	8c4574a4 	lw	a1,29860(v0)
9d009a88:	0f403ddc 	jal	9d00f770 <__eqsf2>
9d009a8c:	02202025 	move	a0,s1
9d009a90:	1c400062 	bgtz	v0,9d009c1c <Controller+0x2d8>
9d009a94:	3c029d00 	lui	v0,0x9d00
  if (unew < 0.)
9d009a98:	00002825 	move	a1,zero
9d009a9c:	0f403e03 	jal	9d00f80c <fpcmplt>
9d009aa0:	02202025 	move	a0,s1
9d009aa4:	04420001 	bltzl	v0,9d009aac <Controller+0x168>
9d009aa8:	00008825 	move	s1,zero
  OC1RS = (unsigned int)((unew / 100.0) * PR3);
9d009aac:	3c02bf80 	lui	v0,0xbf80
9d009ab0:	8c550a20 	lw	s5,2592(v0)
9d009ab4:	0f403ce5 	jal	9d00f394 <__extendsfdf2>
9d009ab8:	02202025 	move	a0,s1
9d009abc:	3c049d00 	lui	a0,0x9d00
9d009ac0:	8c8674b0 	lw	a2,29872(a0)
9d009ac4:	8c8774b4 	lw	a3,29876(a0)
9d009ac8:	00402025 	move	a0,v0
9d009acc:	0f40287b 	jal	9d00a1ec <__divdf3>
9d009ad0:	00602825 	move	a1,v1
9d009ad4:	00409025 	move	s2,v0
9d009ad8:	00609825 	move	s3,v1
9d009adc:	0f404265 	jal	9d010994 <__floatunsidf>
9d009ae0:	02a02025 	move	a0,s5
9d009ae4:	00403025 	move	a2,v0
9d009ae8:	00603825 	move	a3,v1
9d009aec:	02402025 	move	a0,s2
9d009af0:	0f4030c3 	jal	9d00c30c <__muldf3>
9d009af4:	02602825 	move	a1,s3
9d009af8:	00402025 	move	a0,v0
9d009afc:	0f403ebc 	jal	9d00faf0 <__fixunsdfsi>
9d009b00:	00602825 	move	a1,v1
9d009b04:	3c11bf80 	lui	s1,0xbf80
9d009b08:	ae223020 	sw	v0,12320(s1)
  if (StoringData)
9d009b0c:	8f91802c 	lw	s1,-32724(gp)
9d009b10:	1220000c 	beqz	s1,9d009b44 <Controller+0x200>
9d009b14:	8f918018 	lw	s1,-32744(gp)
    decctr++;
9d009b18:	26310001 	addiu	s1,s1,1
    if (decctr == DECIMATION)
9d009b1c:	2412000a 	li	s2,10
9d009b20:	52320040 	beql	s1,s2,9d009c24 <Controller+0x2e0>
9d009b24:	af808018 	sw	zero,-32744(gp)
    decctr++;
9d009b28:	af918018 	sw	s1,-32744(gp)
    if (plotind == PLOTPTS)
9d009b2c:	8f928014 	lw	s2,-32748(gp)
9d009b30:	241100c8 	li	s1,200
9d009b34:	56510004 	bnel	s2,s1,9d009b48 <Controller+0x204>
9d009b38:	26100001 	addiu	s0,s0,1
      plotind = 0;
9d009b3c:	af808014 	sw	zero,-32748(gp)
      StoringData = 0;
9d009b40:	af80802c 	sw	zero,-32724(gp)
  counter++;
9d009b44:	26100001 	addiu	s0,s0,1
9d009b48:	3a1103e8 	xori	s1,s0,0x3e8
9d009b4c:	0011800a 	movz	s0,zero,s1
9d009b50:	af908020 	sw	s0,-32736(gp)
  IFS0bits.T2IF = 0;
9d009b54:	3c10bf88 	lui	s0,0xbf88
9d009b58:	8e111030 	lw	s1,4144(s0)
9d009b5c:	7c114a44 	ins	s1,zero,0x9,0x1
9d009b60:	ae111030 	sw	s1,4144(s0)
}
9d009b64:	03c0e825 	move	sp,s8
9d009b68:	8fa2007c 	lw	v0,124(sp)
9d009b6c:	00400013 	mtlo	v0
9d009b70:	8fa30078 	lw	v1,120(sp)
9d009b74:	00600011 	mthi	v1
9d009b78:	8fbf0074 	lw	ra,116(sp)
9d009b7c:	8fbe0070 	lw	s8,112(sp)
9d009b80:	8fb9006c 	lw	t9,108(sp)
9d009b84:	8fb80068 	lw	t8,104(sp)
9d009b88:	8fb50064 	lw	s5,100(sp)
9d009b8c:	8fb40060 	lw	s4,96(sp)
9d009b90:	8fb3005c 	lw	s3,92(sp)
9d009b94:	8fb20058 	lw	s2,88(sp)
9d009b98:	8fb10054 	lw	s1,84(sp)
9d009b9c:	8fb00050 	lw	s0,80(sp)
9d009ba0:	8faf004c 	lw	t7,76(sp)
9d009ba4:	8fae0048 	lw	t6,72(sp)
9d009ba8:	8fad0044 	lw	t5,68(sp)
9d009bac:	8fac0040 	lw	t4,64(sp)
9d009bb0:	8fab003c 	lw	t3,60(sp)
9d009bb4:	8faa0038 	lw	t2,56(sp)
9d009bb8:	8fa90034 	lw	t1,52(sp)
9d009bbc:	8fa80030 	lw	t0,48(sp)
9d009bc0:	8fa7002c 	lw	a3,44(sp)
9d009bc4:	8fa60028 	lw	a2,40(sp)
9d009bc8:	8fa50024 	lw	a1,36(sp)
9d009bcc:	8fa40020 	lw	a0,32(sp)
9d009bd0:	8fa3001c 	lw	v1,28(sp)
9d009bd4:	8fa20018 	lw	v0,24(sp)
9d009bd8:	8fa10014 	lw	at,20(sp)
9d009bdc:	41606000 	di
9d009be0:	000000c0 	ehb
9d009be4:	8fba008c 	lw	k0,140(sp)
9d009be8:	8fbb0088 	lw	k1,136(sp)
9d009bec:	409a7000 	mtc0	k0,c0_epc
9d009bf0:	8fba0084 	lw	k0,132(sp)
9d009bf4:	27bd0090 	addiu	sp,sp,144
9d009bf8:	409a6002 	mtc0	k0,c0_srsctl
9d009bfc:	41dde800 	wrpgpr	sp,sp
9d009c00:	409b6000 	mtc0	k1,c0_status
9d009c04:	42000018 	eret
  if (eint < -800){
9d009c08:	2842fce0 	slti	v0,v0,-800
9d009c0c:	1040ff87 	beqz	v0,9d009a2c <Controller+0xe8>
9d009c10:	2402fce0 	li	v0,-800
    eint = -800;
9d009c14:	1000ff85 	b	9d009a2c <Controller+0xe8>
9d009c18:	af82801c 	sw	v0,-32740(gp)
    unew = 100.;
9d009c1c:	1000ffa3 	b	9d009aac <Controller+0x168>
9d009c20:	8c5174a4 	lw	s1,29860(v0)
      ADCarray[plotind] = adcval;
9d009c24:	8f928014 	lw	s2,-32748(gp)
9d009c28:	00129880 	sll	s3,s2,0x2
9d009c2c:	3c11a000 	lui	s1,0xa000
9d009c30:	26310400 	addiu	s1,s1,1024
9d009c34:	02718821 	addu	s1,s3,s1
9d009c38:	ae340000 	sw	s4,0(s1)
      REFarray[plotind] = Waveform[counter];
9d009c3c:	00108880 	sll	s1,s0,0x2
9d009c40:	3c14a000 	lui	s4,0xa000
9d009c44:	26940720 	addiu	s4,s4,1824
9d009c48:	02348821 	addu	s1,s1,s4
9d009c4c:	8e340000 	lw	s4,0(s1)
9d009c50:	3c11a000 	lui	s1,0xa000
9d009c54:	263100e0 	addiu	s1,s1,224
9d009c58:	02719821 	addu	s3,s3,s1
9d009c5c:	ae740000 	sw	s4,0(s3)
      plotind++;
9d009c60:	26520001 	addiu	s2,s2,1
9d009c64:	1000ffb1 	b	9d009b2c <Controller+0x1e8>
9d009c68:	af928014 	sw	s2,-32748(gp)

Disassembly of section .text.__printf_core:

9d009c6c <__printf_core>:
9d009c6c:	27bdff18 	addiu	sp,sp,-232
9d009c70:	afb500d8 	sw	s5,216(sp)
9d009c74:	3c159d00 	lui	s5,0x9d00
9d009c78:	afb600dc 	sw	s6,220(sp)
9d009c7c:	afb400d4 	sw	s4,212(sp)
9d009c80:	afb300d0 	sw	s3,208(sp)
9d009c84:	afb200cc 	sw	s2,204(sp)
9d009c88:	afb100c8 	sw	s1,200(sp)
9d009c8c:	afbf00e4 	sw	ra,228(sp)
9d009c90:	afb700e0 	sw	s7,224(sp)
9d009c94:	afb000c4 	sw	s0,196(sp)
9d009c98:	00809025 	move	s2,a0
9d009c9c:	00c08825 	move	s1,a2
9d009ca0:	afa500b0 	sw	a1,176(sp)
9d009ca4:	00009825 	move	s3,zero
9d009ca8:	27b60010 	addiu	s6,sp,16
9d009cac:	24140025 	li	s4,37
9d009cb0:	26b574c0 	addiu	s5,s5,29888
9d009cb4:	8fa500b0 	lw	a1,176(sp)
9d009cb8:	80a20000 	lb	v0,0(a1)
9d009cbc:	104000e0 	beqz	v0,9d00a040 <__printf_core+0x3d4>
9d009cc0:	2402ffff 	li	v0,-1
9d009cc4:	afa20094 	sw	v0,148(sp)
9d009cc8:	24020080 	li	v0,128
9d009ccc:	afa00090 	sw	zero,144(sp)
9d009cd0:	afa00098 	sw	zero,152(sp)
9d009cd4:	afb6009c 	sw	s6,156(sp)
9d009cd8:	afa200a0 	sw	v0,160(sp)
9d009cdc:	00008025 	move	s0,zero
9d009ce0:	00b01021 	addu	v0,a1,s0
9d009ce4:	80420000 	lb	v0,0(v0)
9d009ce8:	10400003 	beqz	v0,9d009cf8 <__printf_core+0x8c>
9d009cec:	00000000 	nop
9d009cf0:	5454fffb 	bnel	v0,s4,9d009ce0 <__printf_core+0x74>
9d009cf4:	26100001 	addiu	s0,s0,1
9d009cf8:	12000006 	beqz	s0,9d009d14 <__printf_core+0xa8>
9d009cfc:	02003025 	move	a2,s0
9d009d00:	0f403e99 	jal	9d00fa64 <__out>
9d009d04:	02402025 	move	a0,s2
9d009d08:	8fa200b0 	lw	v0,176(sp)
9d009d0c:	00501021 	addu	v0,v0,s0
9d009d10:	afa200b0 	sw	v0,176(sp)
9d009d14:	8fb700b0 	lw	s7,176(sp)
9d009d18:	82e20000 	lb	v0,0(s7)
9d009d1c:	145400c1 	bne	v0,s4,9d00a024 <__printf_core+0x3b8>
9d009d20:	26f70001 	addiu	s7,s7,1
9d009d24:	afb700b0 	sw	s7,176(sp)
9d009d28:	2405002b 	li	a1,43
9d009d2c:	2406002d 	li	a2,45
9d009d30:	24030030 	li	v1,48
9d009d34:	24070020 	li	a3,32
9d009d38:	24080023 	li	t0,35
9d009d3c:	8fa400b0 	lw	a0,176(sp)
9d009d40:	80820000 	lb	v0,0(a0)
9d009d44:	5045001b 	beql	v0,a1,9d009db4 <__printf_core+0x148>
9d009d48:	8fa20090 	lw	v0,144(sp)
9d009d4c:	2849002c 	slti	t1,v0,44
9d009d50:	1120001e 	beqz	t1,9d009dcc <__printf_core+0x160>
9d009d54:	00000000 	nop
9d009d58:	50470018 	beql	v0,a3,9d009dbc <__printf_core+0x150>
9d009d5c:	8fa20090 	lw	v0,144(sp)
9d009d60:	50480018 	beql	v0,t0,9d009dc4 <__printf_core+0x158>
9d009d64:	8fa20090 	lw	v0,144(sp)
9d009d68:	2403002a 	li	v1,42
9d009d6c:	5043001e 	beql	v0,v1,9d009de8 <__printf_core+0x17c>
9d009d70:	8e220000 	lw	v0,0(s1)
9d009d74:	0f403fa6 	jal	9d00fe98 <atoi>
9d009d78:	00000000 	nop
9d009d7c:	afa20098 	sw	v0,152(sp)
9d009d80:	8fa300b0 	lw	v1,176(sp)
9d009d84:	80620000 	lb	v0,0(v1)
9d009d88:	2442ffd0 	addiu	v0,v0,-48
9d009d8c:	2c42000a 	sltiu	v0,v0,10
9d009d90:	10400021 	beqz	v0,9d009e18 <__printf_core+0x1ac>
9d009d94:	24630001 	addiu	v1,v1,1
9d009d98:	1000fff9 	b	9d009d80 <__printf_core+0x114>
9d009d9c:	afa300b0 	sw	v1,176(sp)
9d009da0:	34420001 	ori	v0,v0,0x1
9d009da4:	24840001 	addiu	a0,a0,1
9d009da8:	afa20090 	sw	v0,144(sp)
9d009dac:	1000ffe3 	b	9d009d3c <__printf_core+0xd0>
9d009db0:	afa400b0 	sw	a0,176(sp)
9d009db4:	1000fffb 	b	9d009da4 <__printf_core+0x138>
9d009db8:	34420004 	ori	v0,v0,0x4
9d009dbc:	1000fff9 	b	9d009da4 <__printf_core+0x138>
9d009dc0:	34420008 	ori	v0,v0,0x8
9d009dc4:	1000fff7 	b	9d009da4 <__printf_core+0x138>
9d009dc8:	34420010 	ori	v0,v0,0x10
9d009dcc:	5046fff4 	beql	v0,a2,9d009da0 <__printf_core+0x134>
9d009dd0:	8fa20090 	lw	v0,144(sp)
9d009dd4:	5443ffe5 	bnel	v0,v1,9d009d6c <__printf_core+0x100>
9d009dd8:	2403002a 	li	v1,42
9d009ddc:	8fa20090 	lw	v0,144(sp)
9d009de0:	1000fff0 	b	9d009da4 <__printf_core+0x138>
9d009de4:	34420002 	ori	v0,v0,0x2
9d009de8:	24840001 	addiu	a0,a0,1
9d009dec:	afa400b0 	sw	a0,176(sp)
9d009df0:	24430004 	addiu	v1,v0,4
9d009df4:	8c420000 	lw	v0,0(v0)
9d009df8:	ae230000 	sw	v1,0(s1)
9d009dfc:	04410006 	bgez	v0,9d009e18 <__printf_core+0x1ac>
9d009e00:	afa20098 	sw	v0,152(sp)
9d009e04:	8fa30090 	lw	v1,144(sp)
9d009e08:	00021023 	negu	v0,v0
9d009e0c:	afa20098 	sw	v0,152(sp)
9d009e10:	38630001 	xori	v1,v1,0x1
9d009e14:	afa30090 	sw	v1,144(sp)
9d009e18:	8fa20090 	lw	v0,144(sp)
9d009e1c:	30430001 	andi	v1,v0,0x1
9d009e20:	10600002 	beqz	v1,9d009e2c <__printf_core+0x1c0>
9d009e24:	7c020844 	ins	v0,zero,0x1,0x1
9d009e28:	afa20090 	sw	v0,144(sp)
9d009e2c:	8fa200b0 	lw	v0,176(sp)
9d009e30:	2403002e 	li	v1,46
9d009e34:	80440000 	lb	a0,0(v0)
9d009e38:	1483000d 	bne	a0,v1,9d009e70 <__printf_core+0x204>
9d009e3c:	24440001 	addiu	a0,v0,1
9d009e40:	afa00094 	sw	zero,148(sp)
9d009e44:	afa400b0 	sw	a0,176(sp)
9d009e48:	80450001 	lb	a1,1(v0)
9d009e4c:	2403002a 	li	v1,42
9d009e50:	14a30023 	bne	a1,v1,9d009ee0 <__printf_core+0x274>
9d009e54:	24420002 	addiu	v0,v0,2
9d009e58:	afa200b0 	sw	v0,176(sp)
9d009e5c:	8e220000 	lw	v0,0(s1)
9d009e60:	24430004 	addiu	v1,v0,4
9d009e64:	8c420000 	lw	v0,0(v0)
9d009e68:	ae230000 	sw	v1,0(s1)
9d009e6c:	afa20094 	sw	v0,148(sp)
9d009e70:	0f40411c 	jal	9d010470 <__fmt_state>
9d009e74:	27a400b0 	addiu	a0,sp,176
9d009e78:	afa200b8 	sw	v0,184(sp)
9d009e7c:	8fa200b0 	lw	v0,176(sp)
9d009e80:	0f4043e6 	jal	9d010f98 <tolower>
9d009e84:	80440000 	lb	a0,0(v0)
9d009e88:	24030069 	li	v1,105
9d009e8c:	10430078 	beq	v0,v1,9d00a070 <__printf_core+0x404>
9d009e90:	8fa500b8 	lw	a1,184(sp)
9d009e94:	2843006a 	slti	v1,v0,106
9d009e98:	1060002e 	beqz	v1,9d009f54 <__printf_core+0x2e8>
9d009e9c:	24030063 	li	v1,99
9d009ea0:	104300bc 	beq	v0,v1,9d00a194 <__printf_core+0x528>
9d009ea4:	28430064 	slti	v1,v0,100
9d009ea8:	10600018 	beqz	v1,9d009f0c <__printf_core+0x2a0>
9d009eac:	24030064 	li	v1,100
9d009eb0:	105400c5 	beq	v0,s4,9d00a1c8 <__printf_core+0x55c>
9d009eb4:	24030061 	li	v1,97
9d009eb8:	5043004e 	beql	v0,v1,9d009ff4 <__printf_core+0x388>
9d009ebc:	02203025 	move	a2,s1
9d009ec0:	24020025 	li	v0,37
9d009ec4:	a3a200a8 	sb	v0,168(sp)
9d009ec8:	2402ffff 	li	v0,-1
9d009ecc:	afb700b0 	sw	s7,176(sp)
9d009ed0:	afa00090 	sw	zero,144(sp)
9d009ed4:	afa00098 	sw	zero,152(sp)
9d009ed8:	100000b8 	b	9d00a1bc <__printf_core+0x550>
9d009edc:	afa20094 	sw	v0,148(sp)
9d009ee0:	0f403fa6 	jal	9d00fe98 <atoi>
9d009ee4:	00000000 	nop
9d009ee8:	afa20094 	sw	v0,148(sp)
9d009eec:	8fa300b0 	lw	v1,176(sp)
9d009ef0:	80620000 	lb	v0,0(v1)
9d009ef4:	2442ffd0 	addiu	v0,v0,-48
9d009ef8:	2c42000a 	sltiu	v0,v0,10
9d009efc:	1040ffdc 	beqz	v0,9d009e70 <__printf_core+0x204>
9d009f00:	24630001 	addiu	v1,v1,1
9d009f04:	1000fff9 	b	9d009eec <__printf_core+0x280>
9d009f08:	afa300b0 	sw	v1,176(sp)
9d009f0c:	10430058 	beq	v0,v1,9d00a070 <__printf_core+0x404>
9d009f10:	28420068 	slti	v0,v0,104
9d009f14:	1040ffeb 	beqz	v0,9d009ec4 <__printf_core+0x258>
9d009f18:	24020025 	li	v0,37
9d009f1c:	02203025 	move	a2,s1
9d009f20:	0f404188 	jal	9d010620 <__pop_float>
9d009f24:	27a400a8 	addiu	a0,sp,168
9d009f28:	10400096 	beqz	v0,9d00a184 <__printf_core+0x518>
9d009f2c:	8fa200b0 	lw	v0,176(sp)
9d009f30:	27a600a8 	addiu	a2,sp,168
9d009f34:	27a50090 	addiu	a1,sp,144
9d009f38:	24430001 	addiu	v1,v0,1
9d009f3c:	afa300b0 	sw	v1,176(sp)
9d009f40:	80470000 	lb	a3,0(v0)
9d009f44:	0f404474 	jal	9d0111d0 <__fmt_a>
9d009f48:	02402025 	move	a0,s2
9d009f4c:	10000035 	b	9d00a024 <__printf_core+0x3b8>
9d009f50:	02028021 	addu	s0,s0,v0
9d009f54:	24030070 	li	v1,112
9d009f58:	10430070 	beq	v0,v1,9d00a11c <__printf_core+0x4b0>
9d009f5c:	28430071 	slti	v1,v0,113
9d009f60:	10600013 	beqz	v1,9d009fb0 <__printf_core+0x344>
9d009f64:	2403006e 	li	v1,110
9d009f68:	10430082 	beq	v0,v1,9d00a174 <__printf_core+0x508>
9d009f6c:	2403006f 	li	v1,111
9d009f70:	1443ffd4 	bne	v0,v1,9d009ec4 <__printf_core+0x258>
9d009f74:	24020025 	li	v0,37
9d009f78:	02203825 	move	a3,s1
9d009f7c:	00003025 	move	a2,zero
9d009f80:	0f4035ed 	jal	9d00d7b4 <__pop_int>
9d009f84:	27a400a8 	addiu	a0,sp,168
9d009f88:	1040007e 	beqz	v0,9d00a184 <__printf_core+0x518>
9d009f8c:	8fa200b0 	lw	v0,176(sp)
9d009f90:	27a600a8 	addiu	a2,sp,168
9d009f94:	27a50090 	addiu	a1,sp,144
9d009f98:	24420001 	addiu	v0,v0,1
9d009f9c:	02402025 	move	a0,s2
9d009fa0:	0f403a89 	jal	9d00ea24 <__fmt_o>
9d009fa4:	afa200b0 	sw	v0,176(sp)
9d009fa8:	1000001e 	b	9d00a024 <__printf_core+0x3b8>
9d009fac:	02028021 	addu	s0,s0,v0
9d009fb0:	24030075 	li	v1,117
9d009fb4:	1043003c 	beq	v0,v1,9d00a0a8 <__printf_core+0x43c>
9d009fb8:	24030078 	li	v1,120
9d009fbc:	10430048 	beq	v0,v1,9d00a0e0 <__printf_core+0x474>
9d009fc0:	24030073 	li	v1,115
9d009fc4:	1443ffbe 	bne	v0,v1,9d009ec0 <__printf_core+0x254>
9d009fc8:	24020080 	li	v0,128
9d009fcc:	14a2006d 	bne	a1,v0,9d00a184 <__printf_core+0x518>
9d009fd0:	8fa200b0 	lw	v0,176(sp)
9d009fd4:	00003825 	move	a3,zero
9d009fd8:	24420001 	addiu	v0,v0,1
9d009fdc:	afa200b0 	sw	v0,176(sp)
9d009fe0:	8e220000 	lw	v0,0(s1)
9d009fe4:	24430004 	addiu	v1,v0,4
9d009fe8:	ae230000 	sw	v1,0(s1)
9d009fec:	1000005a 	b	9d00a158 <__printf_core+0x4ec>
9d009ff0:	8c460000 	lw	a2,0(v0)
9d009ff4:	0f404188 	jal	9d010620 <__pop_float>
9d009ff8:	27a400a8 	addiu	a0,sp,168
9d009ffc:	10400061 	beqz	v0,9d00a184 <__printf_core+0x518>
9d00a000:	8fa200b0 	lw	v0,176(sp)
9d00a004:	27a600a8 	addiu	a2,sp,168
9d00a008:	27a50090 	addiu	a1,sp,144
9d00a00c:	24430001 	addiu	v1,v0,1
9d00a010:	afa300b0 	sw	v1,176(sp)
9d00a014:	80470000 	lb	a3,0(v0)
9d00a018:	0f404474 	jal	9d0111d0 <__fmt_a>
9d00a01c:	02402025 	move	a0,s2
9d00a020:	02028021 	addu	s0,s0,v0
9d00a024:	02708021 	addu	s0,s3,s0
9d00a028:	0213982a 	slt	s3,s0,s3
9d00a02c:	1260006d 	beqz	s3,9d00a1e4 <__printf_core+0x578>
9d00a030:	3c02a000 	lui	v0,0xa000
9d00a034:	2403004f 	li	v1,79
9d00a038:	ac431948 	sw	v1,6472(v0)
9d00a03c:	2413ffff 	li	s3,-1
9d00a040:	8fbf00e4 	lw	ra,228(sp)
9d00a044:	02601025 	move	v0,s3
9d00a048:	8fb700e0 	lw	s7,224(sp)
9d00a04c:	8fb600dc 	lw	s6,220(sp)
9d00a050:	8fb500d8 	lw	s5,216(sp)
9d00a054:	8fb400d4 	lw	s4,212(sp)
9d00a058:	8fb300d0 	lw	s3,208(sp)
9d00a05c:	8fb200cc 	lw	s2,204(sp)
9d00a060:	8fb100c8 	lw	s1,200(sp)
9d00a064:	8fb000c4 	lw	s0,196(sp)
9d00a068:	03e00008 	jr	ra
9d00a06c:	27bd00e8 	addiu	sp,sp,232
9d00a070:	02203825 	move	a3,s1
9d00a074:	24060001 	li	a2,1
9d00a078:	0f4035ed 	jal	9d00d7b4 <__pop_int>
9d00a07c:	27a400a8 	addiu	a0,sp,168
9d00a080:	10400040 	beqz	v0,9d00a184 <__printf_core+0x518>
9d00a084:	8fa200b0 	lw	v0,176(sp)
9d00a088:	27a600a8 	addiu	a2,sp,168
9d00a08c:	27a50090 	addiu	a1,sp,144
9d00a090:	24420001 	addiu	v0,v0,1
9d00a094:	02402025 	move	a0,s2
9d00a098:	0f40375b 	jal	9d00dd6c <__fmt_d>
9d00a09c:	afa200b0 	sw	v0,176(sp)
9d00a0a0:	1000ffe0 	b	9d00a024 <__printf_core+0x3b8>
9d00a0a4:	02028021 	addu	s0,s0,v0
9d00a0a8:	02203825 	move	a3,s1
9d00a0ac:	00003025 	move	a2,zero
9d00a0b0:	0f4035ed 	jal	9d00d7b4 <__pop_int>
9d00a0b4:	27a400a8 	addiu	a0,sp,168
9d00a0b8:	10400032 	beqz	v0,9d00a184 <__printf_core+0x518>
9d00a0bc:	8fa200b0 	lw	v0,176(sp)
9d00a0c0:	27a600a8 	addiu	a2,sp,168
9d00a0c4:	27a50090 	addiu	a1,sp,144
9d00a0c8:	24420001 	addiu	v0,v0,1
9d00a0cc:	02402025 	move	a0,s2
9d00a0d0:	0f403c06 	jal	9d00f018 <__fmt_u>
9d00a0d4:	afa200b0 	sw	v0,176(sp)
9d00a0d8:	1000ffd2 	b	9d00a024 <__printf_core+0x3b8>
9d00a0dc:	02028021 	addu	s0,s0,v0
9d00a0e0:	02203825 	move	a3,s1
9d00a0e4:	00003025 	move	a2,zero
9d00a0e8:	0f4035ed 	jal	9d00d7b4 <__pop_int>
9d00a0ec:	27a400a8 	addiu	a0,sp,168
9d00a0f0:	10400024 	beqz	v0,9d00a184 <__printf_core+0x518>
9d00a0f4:	8fa200b0 	lw	v0,176(sp)
9d00a0f8:	24430001 	addiu	v1,v0,1
9d00a0fc:	afa300b0 	sw	v1,176(sp)
9d00a100:	80470000 	lb	a3,0(v0)
9d00a104:	27a600a8 	addiu	a2,sp,168
9d00a108:	27a50090 	addiu	a1,sp,144
9d00a10c:	0f403426 	jal	9d00d098 <__fmt_x>
9d00a110:	02402025 	move	a0,s2
9d00a114:	1000ffc3 	b	9d00a024 <__printf_core+0x3b8>
9d00a118:	02028021 	addu	s0,s0,v0
9d00a11c:	02203825 	move	a3,s1
9d00a120:	00003025 	move	a2,zero
9d00a124:	240500f0 	li	a1,240
9d00a128:	0f4035ed 	jal	9d00d7b4 <__pop_int>
9d00a12c:	27a400a8 	addiu	a0,sp,168
9d00a130:	10400014 	beqz	v0,9d00a184 <__printf_core+0x518>
9d00a134:	8fa200b0 	lw	v0,176(sp)
9d00a138:	8fa300ac 	lw	v1,172(sp)
9d00a13c:	24420001 	addiu	v0,v0,1
9d00a140:	afa200b0 	sw	v0,176(sp)
9d00a144:	8fa200a8 	lw	v0,168(sp)
9d00a148:	00431025 	or	v0,v0,v1
9d00a14c:	14400007 	bnez	v0,9d00a16c <__printf_core+0x500>
9d00a150:	02a03025 	move	a2,s5
9d00a154:	00003825 	move	a3,zero
9d00a158:	27a50090 	addiu	a1,sp,144
9d00a15c:	0f403d3a 	jal	9d00f4e8 <__fmt_s>
9d00a160:	02402025 	move	a0,s2
9d00a164:	1000ffaf 	b	9d00a024 <__printf_core+0x3b8>
9d00a168:	02028021 	addu	s0,s0,v0
9d00a16c:	1000ffe5 	b	9d00a104 <__printf_core+0x498>
9d00a170:	24070078 	li	a3,120
9d00a174:	02203825 	move	a3,s1
9d00a178:	02703021 	addu	a2,s3,s0
9d00a17c:	0f403b02 	jal	9d00ec08 <__pop_ptr>
9d00a180:	27a400a8 	addiu	a0,sp,168
9d00a184:	8fa200b0 	lw	v0,176(sp)
9d00a188:	24420001 	addiu	v0,v0,1
9d00a18c:	1000ffa5 	b	9d00a024 <__printf_core+0x3b8>
9d00a190:	afa200b0 	sw	v0,176(sp)
9d00a194:	24020080 	li	v0,128
9d00a198:	14a2fffa 	bne	a1,v0,9d00a184 <__printf_core+0x518>
9d00a19c:	8fa200b0 	lw	v0,176(sp)
9d00a1a0:	24420001 	addiu	v0,v0,1
9d00a1a4:	afa200b0 	sw	v0,176(sp)
9d00a1a8:	8e220000 	lw	v0,0(s1)
9d00a1ac:	24430004 	addiu	v1,v0,4
9d00a1b0:	8c420000 	lw	v0,0(v0)
9d00a1b4:	ae230000 	sw	v1,0(s1)
9d00a1b8:	a3a200a8 	sb	v0,168(sp)
9d00a1bc:	24070001 	li	a3,1
9d00a1c0:	1000ffe5 	b	9d00a158 <__printf_core+0x4ec>
9d00a1c4:	27a600a8 	addiu	a2,sp,168
9d00a1c8:	24020080 	li	v0,128
9d00a1cc:	14a2ffed 	bne	a1,v0,9d00a184 <__printf_core+0x518>
9d00a1d0:	8fa200b0 	lw	v0,176(sp)
9d00a1d4:	a3b400a8 	sb	s4,168(sp)
9d00a1d8:	24420001 	addiu	v0,v0,1
9d00a1dc:	1000fff7 	b	9d00a1bc <__printf_core+0x550>
9d00a1e0:	afa200b0 	sw	v0,176(sp)
9d00a1e4:	1000feb3 	b	9d009cb4 <__printf_core+0x48>
9d00a1e8:	02009825 	move	s3,s0

Disassembly of section .text.dp32mul:

9d00a1ec <__divdf3>:
9d00a1ec:	00055040 000a5542 00054ac0 00047d42     @P..BU...J..B}..
9d00a1fc:	012f4825 000442c0 3c0e8000 012e4825     %H/..B.....<%H..
9d00a20c:	00076840 000d6d42 000762c0 00067d42     @h..Bm...b..B}..
9d00a21c:	018f6025 00065ac0 018e6025 00a72826     %`...Z..%`..&(..
9d00a22c:	00ae2824 254fffff 2de107fe 102000cb     $(....O%...-.. .
9d00a23c:	00000000                                ....

9d00a240 <Dlab1>:
9d00a240:	25afffff 	addiu	t7,t5,-1
9d00a244:	2de107fe 	sltiu	at,t7,2046
9d00a248:	102000f4 	beqz	at,9d00a61c <DspecB>
9d00a24c:	00000000 	nop

9d00a250 <Dlab2>:
9d00a250:	014d5023 	subu	t2,t2,t5
9d00a254:	254a03ff 	addiu	t2,t2,1023
9d00a258:	00084042 	srl	t0,t0,0x1
9d00a25c:	00097fc0 	sll	t7,t1,0x1f
9d00a260:	010f4025 	or	t0,t0,t7
9d00a264:	00094842 	srl	t1,t1,0x1
9d00a268:	000c3c02 	srl	a3,t4,0x10
9d00a26c:	00e001f4 	teq	a3,zero,0x7
9d00a270:	0127001b 	divu	zero,t1,a3
9d00a274:	00007012 	mflo	t6
9d00a278:	00004810 	mfhi	t1
9d00a27c:	3186ffff 	andi	a2,t4,0xffff
9d00a280:	00ce0019 	multu	a2,t6
9d00a284:	00002012 	mflo	a0
9d00a288:	00094c00 	sll	t1,t1,0x10
9d00a28c:	00087c02 	srl	t7,t0,0x10
9d00a290:	012f4825 	or	t1,t1,t7
9d00a294:	0124782b 	sltu	t7,t1,a0
9d00a298:	11e00006 	beqz	t7,9d00a2b4 <i20>
9d00a29c:	01244823 	subu	t1,t1,a0

9d00a2a0 <b21>:
9d00a2a0:	25ceffff 	addiu	t6,t6,-1
9d00a2a4:	012c4821 	addu	t1,t1,t4
9d00a2a8:	012c082b 	sltu	at,t1,t4
9d00a2ac:	1020fffc 	beqz	at,9d00a2a0 <b21>
9d00a2b0:	00000000 	nop

9d00a2b4 <i20>:
9d00a2b4:	00e001f4 	teq	a3,zero,0x7
9d00a2b8:	0127001b 	divu	zero,t1,a3
9d00a2bc:	00003812 	mflo	a3
9d00a2c0:	00004810 	mfhi	t1
9d00a2c4:	00c70019 	multu	a2,a3
9d00a2c8:	00002012 	mflo	a0
9d00a2cc:	00094c00 	sll	t1,t1,0x10
9d00a2d0:	310fffff 	andi	t7,t0,0xffff
9d00a2d4:	012f4825 	or	t1,t1,t7
9d00a2d8:	0124782b 	sltu	t7,t1,a0
9d00a2dc:	11e00006 	beqz	t7,9d00a2f8 <i22>
9d00a2e0:	01244823 	subu	t1,t1,a0

9d00a2e4 <b23>:
9d00a2e4:	24e7ffff 	addiu	a3,a3,-1
9d00a2e8:	012c4821 	addu	t1,t1,t4
9d00a2ec:	012c082b 	sltu	at,t1,t4
9d00a2f0:	1020fffc 	beqz	at,9d00a2e4 <b23>
9d00a2f4:	00000000 	nop

9d00a2f8 <i22>:
9d00a2f8:	000e7400 	sll	t6,t6,0x10
9d00a2fc:	01c77021 	addu	t6,t6,a3
9d00a300:	01cb0019 	multu	t6,t3
9d00a304:	00003812 	mflo	a3
9d00a308:	00002010 	mfhi	a0
9d00a30c:	24080000 	li	t0,0
9d00a310:	0107782b 	sltu	t7,t0,a3
9d00a314:	01074023 	subu	t0,t0,a3
9d00a318:	012f102b 	sltu	v0,t1,t7
9d00a31c:	012f4823 	subu	t1,t1,t7
9d00a320:	0124782b 	sltu	t7,t1,a0
9d00a324:	01e27825 	or	t7,t7,v0
9d00a328:	11e0000b 	beqz	t7,9d00a358 <i24>
9d00a32c:	01244823 	subu	t1,t1,a0

9d00a330 <Dlab3>:
9d00a330:	25ceffff 	addiu	t6,t6,-1
9d00a334:	010b4021 	addu	t0,t0,t3
9d00a338:	010b782b 	sltu	t7,t0,t3
9d00a33c:	012c4821 	addu	t1,t1,t4
9d00a340:	012f4821 	addu	t1,t1,t7
9d00a344:	112c0002 	beq	t1,t4,9d00a350 <L31>
9d00a348:	00000000 	nop
9d00a34c:	012c782b 	sltu	t7,t1,t4

9d00a350 <L31>:
9d00a350:	11e0fff7 	beqz	t7,9d00a330 <Dlab3>
9d00a354:	00000000 	nop

9d00a358 <i24>:
9d00a358:	152c0006 	bne	t1,t4,9d00a374 <i25>
9d00a35c:	00000000 	nop
9d00a360:	000b2025 	or	a0,zero,t3
9d00a364:	00084825 	or	t1,zero,t0
9d00a368:	240d0000 	li	t5,0
9d00a36c:	1000002a 	b	9d00a418 <e25>
9d00a370:	000d3825 	or	a3,zero,t5

9d00a374 <i25>:
9d00a374:	000c3c02 	srl	a3,t4,0x10
9d00a378:	00e001f4 	teq	a3,zero,0x7
9d00a37c:	0127001b 	divu	zero,t1,a3
9d00a380:	00006812 	mflo	t5
9d00a384:	00004810 	mfhi	t1
9d00a388:	3186ffff 	andi	a2,t4,0xffff
9d00a38c:	00cd0019 	multu	a2,t5
9d00a390:	00002012 	mflo	a0
9d00a394:	00094c00 	sll	t1,t1,0x10
9d00a398:	00087c02 	srl	t7,t0,0x10
9d00a39c:	012f4825 	or	t1,t1,t7
9d00a3a0:	0124782b 	sltu	t7,t1,a0
9d00a3a4:	11e00006 	beqz	t7,9d00a3c0 <i26>
9d00a3a8:	01244823 	subu	t1,t1,a0

9d00a3ac <b27>:
9d00a3ac:	25adffff 	addiu	t5,t5,-1
9d00a3b0:	012c4821 	addu	t1,t1,t4
9d00a3b4:	012c082b 	sltu	at,t1,t4
9d00a3b8:	1020fffc 	beqz	at,9d00a3ac <b27>
9d00a3bc:	00000000 	nop

9d00a3c0 <i26>:
9d00a3c0:	00e001f4 	teq	a3,zero,0x7
9d00a3c4:	0127001b 	divu	zero,t1,a3
9d00a3c8:	00003812 	mflo	a3
9d00a3cc:	00004810 	mfhi	t1
9d00a3d0:	00c70019 	multu	a2,a3
9d00a3d4:	00002012 	mflo	a0
9d00a3d8:	00094c00 	sll	t1,t1,0x10
9d00a3dc:	310fffff 	andi	t7,t0,0xffff
9d00a3e0:	012f4825 	or	t1,t1,t7
9d00a3e4:	0124782b 	sltu	t7,t1,a0
9d00a3e8:	11e00006 	beqz	t7,9d00a404 <i28>
9d00a3ec:	01244823 	subu	t1,t1,a0

9d00a3f0 <b29>:
9d00a3f0:	24e7ffff 	addiu	a3,a3,-1
9d00a3f4:	012c4821 	addu	t1,t1,t4
9d00a3f8:	012c082b 	sltu	at,t1,t4
9d00a3fc:	1020fffc 	beqz	at,9d00a3f0 <b29>
9d00a400:	00000000 	nop

9d00a404 <i28>:
9d00a404:	000d6c00 	sll	t5,t5,0x10
9d00a408:	01a76821 	addu	t5,t5,a3
9d00a40c:	01ab0019 	multu	t5,t3
9d00a410:	00003812 	mflo	a3
9d00a414:	00002010 	mfhi	a0

9d00a418 <e25>:
9d00a418:	24080000 	li	t0,0
9d00a41c:	0107782b 	sltu	t7,t0,a3
9d00a420:	01074023 	subu	t0,t0,a3
9d00a424:	012f102b 	sltu	v0,t1,t7
9d00a428:	012f4823 	subu	t1,t1,t7
9d00a42c:	0124782b 	sltu	t7,t1,a0
9d00a430:	01e27825 	or	t7,t7,v0
9d00a434:	11e0000b 	beqz	t7,9d00a464 <i30>
9d00a438:	01244823 	subu	t1,t1,a0

9d00a43c <Dlab4>:
9d00a43c:	25adffff 	addiu	t5,t5,-1
9d00a440:	010b4021 	addu	t0,t0,t3
9d00a444:	010b782b 	sltu	t7,t0,t3
9d00a448:	012c4821 	addu	t1,t1,t4
9d00a44c:	012f4821 	addu	t1,t1,t7
9d00a450:	112c0002 	beq	t1,t4,9d00a45c <L32>
9d00a454:	00000000 	nop
9d00a458:	012c782b 	sltu	t7,t1,t4

9d00a45c <L32>:
9d00a45c:	11e0fff7 	beqz	t7,9d00a43c <Dlab4>
9d00a460:	00000000 	nop

9d00a464 <i30>:
9d00a464:	05c00006 	bltz	t6,9d00a480 <i31>
9d00a468:	00000000 	nop
9d00a46c:	01a0782a 	slt	t7,t5,zero
9d00a470:	01ad6821 	addu	t5,t5,t5
9d00a474:	01ce7021 	addu	t6,t6,t6
9d00a478:	01cf7021 	addu	t6,t6,t7
9d00a47c:	254affff 	addiu	t2,t2,-1

9d00a480 <i31>:
9d00a480:	01287825 	or	t7,t1,t0
9d00a484:	11e00002 	beqz	t7,9d00a490 <i32>
9d00a488:	00000000 	nop
9d00a48c:	35ad0001 	ori	t5,t5,0x1

9d00a490 <i32>:
9d00a490:	000e4825 	or	t1,zero,t6
9d00a494:	000d4025 	or	t0,zero,t5
9d00a498:	254fffff 	addiu	t7,t2,-1
9d00a49c:	2de107fe 	sltiu	at,t7,2046
9d00a4a0:	10200015 	beqz	at,9d00a4f8 <Doveund>
9d00a4a4:	00000000 	nop
9d00a4a8:	25080400 	addiu	t0,t0,1024
9d00a4ac:	2d0f0400 	sltiu	t7,t0,1024
9d00a4b0:	012f4821 	addu	t1,t1,t7
9d00a4b4:	012f782b 	sltu	t7,t1,t7
9d00a4b8:	014f5021 	addu	t2,t2,t7

9d00a4bc <Dlab8>:
9d00a4bc:	00087ac2 	srl	t7,t0,0xb
9d00a4c0:	31ef0001 	andi	t7,t7,0x1
9d00a4c4:	010f4023 	subu	t0,t0,t7
9d00a4c8:	000822c2 	srl	a0,t0,0xb
9d00a4cc:	00097d40 	sll	t7,t1,0x15
9d00a4d0:	008f2025 	or	a0,a0,t7
9d00a4d4:	00097840 	sll	t7,t1,0x1
9d00a4d8:	000f7b02 	srl	t7,t7,0xc
9d00a4dc:	00af2825 	or	a1,a1,t7
9d00a4e0:	000a7d00 	sll	t7,t2,0x14
9d00a4e4:	00af2825 	or	a1,a1,t7

9d00a4e8 <Dret>:
9d00a4e8:	00041025 	or	v0,zero,a0
9d00a4ec:	00051825 	or	v1,zero,a1

9d00a4f0 <D999>:
9d00a4f0:	03e00008 	jr	ra
9d00a4f4:	00000000 	nop

9d00a4f8 <Doveund>:
9d00a4f8:	1d400044 	bgtz	t2,9d00a60c <Dinf>
9d00a4fc:	00000000 	nop
9d00a500:	240e0001 	li	t6,1
9d00a504:	01ca7023 	subu	t6,t6,t2

9d00a508 <L33>:
9d00a508:	2dc10020 	sltiu	at,t6,32
9d00a50c:	14200007 	bnez	at,9d00a52c <L34>
9d00a510:	00000000 	nop
9d00a514:	21ceffe0 	addi	t6,t6,-32
9d00a518:	0008202b 	sltu	a0,zero,t0
9d00a51c:	1009000d 	beq	zero,t1,9d00a554 <L35>
9d00a520:	01244025 	or	t0,t1,a0
9d00a524:	1000fff8 	b	9d00a508 <L33>
9d00a528:	34090000 	li	t1,0x0

9d00a52c <L34>:
9d00a52c:	11c00009 	beqz	t6,9d00a554 <L35>
9d00a530:	00000000 	nop
9d00a534:	000e3022 	neg	a2,t6
9d00a538:	00c82004 	sllv	a0,t0,a2
9d00a53c:	00c93004 	sllv	a2,t1,a2
9d00a540:	01c84006 	srlv	t0,t0,t6
9d00a544:	01c94806 	srlv	t1,t1,t6
9d00a548:	10800002 	beqz	a0,9d00a554 <L35>
9d00a54c:	00c84025 	or	t0,a2,t0
9d00a550:	35080002 	ori	t0,t0,0x2

9d00a554 <L35>:
9d00a554:	25080400 	addiu	t0,t0,1024
9d00a558:	2d0f0400 	sltiu	t7,t0,1024
9d00a55c:	012f4821 	addu	t1,t1,t7
9d00a560:	1000ffd6 	b	9d00a4bc <Dlab8>
9d00a564:	000957c2 	srl	t2,t1,0x1f

9d00a568 <DspecA>:
9d00a568:	0100782a 	slt	t7,t0,zero
9d00a56c:	01084021 	addu	t0,t0,t0
9d00a570:	01294821 	addu	t1,t1,t1
9d00a574:	15400017 	bnez	t2,9d00a5d4 <i33>
9d00a578:	012f4821 	addu	t1,t1,t7
9d00a57c:	01287825 	or	t7,t1,t0
9d00a580:	11e00014 	beqz	t7,9d00a5d4 <i33>
9d00a584:	00000000 	nop
9d00a588:	15200008 	bnez	t1,9d00a5ac <L36>
9d00a58c:	00000000 	nop
9d00a590:	15000003 	bnez	t0,9d00a5a0 <L37>
9d00a594:	00000000 	nop
9d00a598:	1000ff29 	b	9d00a240 <Dlab1>
9d00a59c:	240a0000 	li	t2,0

9d00a5a0 <L37>:
9d00a5a0:	01004825 	move	t1,t0
9d00a5a4:	24080000 	li	t0,0
9d00a5a8:	254affe0 	addiu	t2,t2,-32

9d00a5ac <L36>:
9d00a5ac:	712e7020 	clz	t6,t1
9d00a5b0:	11c0ff23 	beqz	t6,9d00a240 <Dlab1>
9d00a5b4:	00000000 	nop
9d00a5b8:	014e5023 	subu	t2,t2,t6
9d00a5bc:	000e3022 	neg	a2,t6
9d00a5c0:	00c83006 	srlv	a2,t0,a2
9d00a5c4:	01c84004 	sllv	t0,t0,t6
9d00a5c8:	01c94804 	sllv	t1,t1,t6
9d00a5cc:	1000ff1c 	b	9d00a240 <Dlab1>
9d00a5d0:	01264825 	or	t1,t1,a2

9d00a5d4 <i33>:
9d00a5d4:	154d0005 	bne	t2,t5,9d00a5ec <i35>
9d00a5d8:	00000000 	nop
9d00a5dc:	000c7840 	sll	t7,t4,0x1
9d00a5e0:	01eb7825 	or	t7,t7,t3
9d00a5e4:	11e0002b 	beqz	t7,9d00a694 <Dnan>
9d00a5e8:	00000000 	nop

9d00a5ec <i35>:
9d00a5ec:	240107ff 	li	at,2047
9d00a5f0:	11a1000a 	beq	t5,at,9d00a61c <DspecB>
9d00a5f4:	00000000 	nop
9d00a5f8:	1140ffbb 	beqz	t2,9d00a4e8 <Dret>
9d00a5fc:	00000000 	nop
9d00a600:	01287825 	or	t7,t1,t0
9d00a604:	15e00023 	bnez	t7,9d00a694 <Dnan>
9d00a608:	00000000 	nop

9d00a60c <Dinf>:
9d00a60c:	3c017ff0 	lui	at,0x7ff0
9d00a610:	00a12825 	or	a1,a1,at
9d00a614:	1000ffb4 	b	9d00a4e8 <Dret>
9d00a618:	24040000 	li	a0,0

9d00a61c <DspecB>:
9d00a61c:	0160782a 	slt	t7,t3,zero
9d00a620:	016b5821 	addu	t3,t3,t3
9d00a624:	018c6021 	addu	t4,t4,t4
9d00a628:	15a00017 	bnez	t5,9d00a688 <i36>
9d00a62c:	018f6021 	addu	t4,t4,t7
9d00a630:	018b7825 	or	t7,t4,t3
9d00a634:	11e0fff5 	beqz	t7,9d00a60c <Dinf>
9d00a638:	00000000 	nop
9d00a63c:	15800008 	bnez	t4,9d00a660 <L39>
9d00a640:	00000000 	nop
9d00a644:	15600003 	bnez	t3,9d00a654 <L40>
9d00a648:	00000000 	nop
9d00a64c:	1000ff00 	b	9d00a250 <Dlab2>
9d00a650:	240d0000 	li	t5,0

9d00a654 <L40>:
9d00a654:	01606025 	move	t4,t3
9d00a658:	240b0000 	li	t3,0
9d00a65c:	25adffe0 	addiu	t5,t5,-32

9d00a660 <L39>:
9d00a660:	718e7020 	clz	t6,t4
9d00a664:	11c0fefa 	beqz	t6,9d00a250 <Dlab2>
9d00a668:	00000000 	nop
9d00a66c:	01ae6823 	subu	t5,t5,t6
9d00a670:	000e3022 	neg	a2,t6
9d00a674:	00cb3006 	srlv	a2,t3,a2
9d00a678:	01cb5804 	sllv	t3,t3,t6
9d00a67c:	01cc6004 	sllv	t4,t4,t6
9d00a680:	1000fef3 	b	9d00a250 <Dlab2>
9d00a684:	01866025 	or	t4,t4,a2

9d00a688 <i36>:
9d00a688:	018b7825 	or	t7,t4,t3
9d00a68c:	11e00002 	beqz	t7,9d00a698 <i38>
9d00a690:	00000000 	nop

9d00a694 <Dnan>:
9d00a694:	3c05fff8 	lui	a1,0xfff8

9d00a698 <i38>:
9d00a698:	1000ff93 	b	9d00a4e8 <Dret>
9d00a69c:	24040000 	li	a0,0
9d00a6a0:	00000000 	nop

Disassembly of section .text.dreml:

9d00a6a4 <dreml>:
9d00a6a4:	27bdffa8 	addiu	sp,sp,-88
9d00a6a8:	afa70064 	sw	a3,100(sp)
9d00a6ac:	afa5005c 	sw	a1,92(sp)
9d00a6b0:	afbe0050 	sw	s8,80(sp)
9d00a6b4:	afb10034 	sw	s1,52(sp)
9d00a6b8:	97be005e 	lhu	s8,94(sp)
9d00a6bc:	97b10066 	lhu	s1,102(sp)
9d00a6c0:	afb40040 	sw	s4,64(sp)
9d00a6c4:	afb00030 	sw	s0,48(sp)
9d00a6c8:	24147ff0 	li	s4,32752
9d00a6cc:	32307fff 	andi	s0,s1,0x7fff
9d00a6d0:	33c27ff0 	andi	v0,s8,0x7ff0
9d00a6d4:	afbf0054 	sw	ra,84(sp)
9d00a6d8:	afb7004c 	sw	s7,76(sp)
9d00a6dc:	afb60048 	sw	s6,72(sp)
9d00a6e0:	afb50044 	sw	s5,68(sp)
9d00a6e4:	afb3003c 	sw	s3,60(sp)
9d00a6e8:	afb20038 	sw	s2,56(sp)
9d00a6ec:	afa60060 	sw	a2,96(sp)
9d00a6f0:	afa40058 	sw	a0,88(sp)
9d00a6f4:	105400a6 	beq	v0,s4,9d00a990 <dreml+0x2ec>
9d00a6f8:	a7b00066 	sh	s0,102(sp)
9d00a6fc:	8fb20060 	lw	s2,96(sp)
9d00a700:	8fb30064 	lw	s3,100(sp)
9d00a704:	00003025 	move	a2,zero
9d00a708:	00003825 	move	a3,zero
9d00a70c:	02402025 	move	a0,s2
9d00a710:	0f40389b 	jal	9d00e26c <__eqdf2>
9d00a714:	02602825 	move	a1,s3
9d00a718:	10400088 	beqz	v0,9d00a93c <dreml+0x298>
9d00a71c:	32317ff0 	andi	s1,s1,0x7ff0
9d00a720:	123400b3 	beq	s1,s4,9d00a9f0 <dreml+0x34c>
9d00a724:	00108103 	sra	s0,s0,0x4
9d00a728:	321007fe 	andi	s0,s0,0x7fe
9d00a72c:	120000cb 	beqz	s0,9d00aa5c <dreml+0x3b8>
9d00a730:	3c109d00 	lui	s0,0x9d00
9d00a734:	8e067550 	lw	a2,30032(s0)
9d00a738:	8e077554 	lw	a3,30036(s0)
9d00a73c:	02402025 	move	a0,s2
9d00a740:	0f4030c3 	jal	9d00c30c <__muldf3>
9d00a744:	02602825 	move	a1,s3
9d00a748:	afa20020 	sw	v0,32(sp)
9d00a74c:	3c029d00 	lui	v0,0x9d00
9d00a750:	8c467558 	lw	a2,30040(v0)
9d00a754:	8c47755c 	lw	a3,30044(v0)
9d00a758:	02402025 	move	a0,s2
9d00a75c:	02602825 	move	a1,s3
9d00a760:	0f40389b 	jal	9d00e26c <__eqdf2>
9d00a764:	afa30024 	sw	v1,36(sp)
9d00a768:	044100aa 	bgez	v0,9d00aa14 <dreml+0x370>
9d00a76c:	33c87fff 	andi	t0,s8,0x7fff
9d00a770:	02403025 	move	a2,s2
9d00a774:	02603825 	move	a3,s3
9d00a778:	02402025 	move	a0,s2
9d00a77c:	02602825 	move	a1,s3
9d00a780:	0f402cde 	jal	9d00b378 <__adddf3>
9d00a784:	afa80018 	sw	t0,24(sp)
9d00a788:	8fa80018 	lw	t0,24(sp)
9d00a78c:	8fb00058 	lw	s0,88(sp)
9d00a790:	7c1e7004 	ins	s8,zero,0x0,0xf
9d00a794:	a7a8005e 	sh	t0,94(sp)
9d00a798:	8fb1005c 	lw	s1,92(sp)
9d00a79c:	00402025 	move	a0,v0
9d00a7a0:	0040a825 	move	s5,v0
9d00a7a4:	00602825 	move	a1,v1
9d00a7a8:	7c1e1620 	seh	v0,s8
9d00a7ac:	02003025 	move	a2,s0
9d00a7b0:	02203825 	move	a3,s1
9d00a7b4:	0003b402 	srl	s6,v1,0x10
9d00a7b8:	0060a025 	move	s4,v1
9d00a7bc:	0f4038e6 	jal	9d00e398 <dpcmplt>
9d00a7c0:	afa20028 	sw	v0,40(sp)
9d00a7c4:	32d77ff0 	andi	s7,s6,0x7ff0
9d00a7c8:	04400003 	bltz	v0,9d00a7d8 <dreml+0x134>
9d00a7cc:	8fa80018 	lw	t0,24(sp)
9d00a7d0:	10000029 	b	9d00a878 <dreml+0x1d4>
9d00a7d4:	8fb40020 	lw	s4,32(sp)
9d00a7d8:	31037ff0 	andi	v1,t0,0x7ff0
9d00a7dc:	02c31821 	addu	v1,s6,v1
9d00a7e0:	00771823 	subu	v1,v1,s7
9d00a7e4:	307effff 	andi	s8,v1,0xffff
9d00a7e8:	afb40014 	sw	s4,20(sp)
9d00a7ec:	afb50010 	sw	s5,16(sp)
9d00a7f0:	a7be0016 	sh	s8,22(sp)
9d00a7f4:	8fa80010 	lw	t0,16(sp)
9d00a7f8:	8fa90014 	lw	t1,20(sp)
9d00a7fc:	02003025 	move	a2,s0
9d00a800:	01002025 	move	a0,t0
9d00a804:	01202825 	move	a1,t1
9d00a808:	02203825 	move	a3,s1
9d00a80c:	afa80018 	sw	t0,24(sp)
9d00a810:	0f40389b 	jal	9d00e26c <__eqdf2>
9d00a814:	afa9001c 	sw	t1,28(sp)
9d00a818:	02002025 	move	a0,s0
9d00a81c:	02202825 	move	a1,s1
9d00a820:	27c3fff0 	addiu	v1,s8,-16
9d00a824:	8fa80018 	lw	t0,24(sp)
9d00a828:	18400004 	blez	v0,9d00a83c <dreml+0x198>
9d00a82c:	8fa9001c 	lw	t1,28(sp)
9d00a830:	a7a30016 	sh	v1,22(sp)
9d00a834:	8fa80010 	lw	t0,16(sp)
9d00a838:	8fa90014 	lw	t1,20(sp)
9d00a83c:	01003025 	move	a2,t0
9d00a840:	0f402cdc 	jal	9d00b370 <__subdf3>
9d00a844:	01203825 	move	a3,t1
9d00a848:	00403025 	move	a2,v0
9d00a84c:	02a02025 	move	a0,s5
9d00a850:	02802825 	move	a1,s4
9d00a854:	00603825 	move	a3,v1
9d00a858:	00408025 	move	s0,v0
9d00a85c:	00608825 	move	s1,v1
9d00a860:	afa20058 	sw	v0,88(sp)
9d00a864:	0f4038e6 	jal	9d00e398 <dpcmplt>
9d00a868:	afa3005c 	sw	v1,92(sp)
9d00a86c:	0440ffda 	bltz	v0,9d00a7d8 <dreml+0x134>
9d00a870:	97a8005e 	lhu	t0,94(sp)
9d00a874:	8fb40020 	lw	s4,32(sp)
9d00a878:	8fb50024 	lw	s5,36(sp)
9d00a87c:	02002025 	move	a0,s0
9d00a880:	02803025 	move	a2,s4
9d00a884:	02a03825 	move	a3,s5
9d00a888:	0f40389b 	jal	9d00e26c <__eqdf2>
9d00a88c:	02202825 	move	a1,s1
9d00a890:	18400017 	blez	v0,9d00a8f0 <dreml+0x24c>
9d00a894:	97a2005e 	lhu	v0,94(sp)
9d00a898:	02002025 	move	a0,s0
9d00a89c:	02202825 	move	a1,s1
9d00a8a0:	02403025 	move	a2,s2
9d00a8a4:	0f402cdc 	jal	9d00b370 <__subdf3>
9d00a8a8:	02603825 	move	a3,s3
9d00a8ac:	00402025 	move	a0,v0
9d00a8b0:	02803025 	move	a2,s4
9d00a8b4:	02a03825 	move	a3,s5
9d00a8b8:	00602825 	move	a1,v1
9d00a8bc:	00408025 	move	s0,v0
9d00a8c0:	0f40389b 	jal	9d00e26c <__eqdf2>
9d00a8c4:	00608825 	move	s1,v1
9d00a8c8:	04420089 	bltzl	v0,9d00aaf0 <dreml+0x44c>
9d00a8cc:	afb00058 	sw	s0,88(sp)
9d00a8d0:	02403025 	move	a2,s2
9d00a8d4:	02603825 	move	a3,s3
9d00a8d8:	02002025 	move	a0,s0
9d00a8dc:	0f402cdc 	jal	9d00b370 <__subdf3>
9d00a8e0:	02202825 	move	a1,s1
9d00a8e4:	afa20058 	sw	v0,88(sp)
9d00a8e8:	afa3005c 	sw	v1,92(sp)
9d00a8ec:	97a2005e 	lhu	v0,94(sp)
9d00a8f0:	8fa30028 	lw	v1,40(sp)
9d00a8f4:	0062f026 	xor	s8,v1,v0
9d00a8f8:	a7be005e 	sh	s8,94(sp)
9d00a8fc:	8fb20058 	lw	s2,88(sp)
9d00a900:	8fb3005c 	lw	s3,92(sp)
9d00a904:	8fbf0054 	lw	ra,84(sp)
9d00a908:	02401025 	move	v0,s2
9d00a90c:	02601825 	move	v1,s3
9d00a910:	8fbe0050 	lw	s8,80(sp)
9d00a914:	8fb7004c 	lw	s7,76(sp)
9d00a918:	8fb60048 	lw	s6,72(sp)
9d00a91c:	8fb50044 	lw	s5,68(sp)
9d00a920:	8fb40040 	lw	s4,64(sp)
9d00a924:	8fb3003c 	lw	s3,60(sp)
9d00a928:	8fb20038 	lw	s2,56(sp)
9d00a92c:	8fb10034 	lw	s1,52(sp)
9d00a930:	8fb00030 	lw	s0,48(sp)
9d00a934:	03e00008 	jr	ra
9d00a938:	27bd0058 	addiu	sp,sp,88
9d00a93c:	00003025 	move	a2,zero
9d00a940:	00003825 	move	a3,zero
9d00a944:	00c02025 	move	a0,a2
9d00a948:	0f40287b 	jal	9d00a1ec <__divdf3>
9d00a94c:	00e02825 	move	a1,a3
9d00a950:	00409025 	move	s2,v0
9d00a954:	00609825 	move	s3,v1
9d00a958:	8fbf0054 	lw	ra,84(sp)
9d00a95c:	02401025 	move	v0,s2
9d00a960:	02601825 	move	v1,s3
9d00a964:	8fbe0050 	lw	s8,80(sp)
9d00a968:	8fb7004c 	lw	s7,76(sp)
9d00a96c:	8fb60048 	lw	s6,72(sp)
9d00a970:	8fb50044 	lw	s5,68(sp)
9d00a974:	8fb40040 	lw	s4,64(sp)
9d00a978:	8fb3003c 	lw	s3,60(sp)
9d00a97c:	8fb20038 	lw	s2,56(sp)
9d00a980:	8fb10034 	lw	s1,52(sp)
9d00a984:	8fb00030 	lw	s0,48(sp)
9d00a988:	03e00008 	jr	ra
9d00a98c:	27bd0058 	addiu	sp,sp,88
9d00a990:	8fa60060 	lw	a2,96(sp)
9d00a994:	0f402cdc 	jal	9d00b370 <__subdf3>
9d00a998:	8fa70064 	lw	a3,100(sp)
9d00a99c:	00403025 	move	a2,v0
9d00a9a0:	00603825 	move	a3,v1
9d00a9a4:	00402025 	move	a0,v0
9d00a9a8:	0f402cdc 	jal	9d00b370 <__subdf3>
9d00a9ac:	00602825 	move	a1,v1
9d00a9b0:	8fbf0054 	lw	ra,84(sp)
9d00a9b4:	00409025 	move	s2,v0
9d00a9b8:	00609825 	move	s3,v1
9d00a9bc:	02401025 	move	v0,s2
9d00a9c0:	02601825 	move	v1,s3
9d00a9c4:	8fbe0050 	lw	s8,80(sp)
9d00a9c8:	8fb7004c 	lw	s7,76(sp)
9d00a9cc:	8fb60048 	lw	s6,72(sp)
9d00a9d0:	8fb50044 	lw	s5,68(sp)
9d00a9d4:	8fb40040 	lw	s4,64(sp)
9d00a9d8:	8fb3003c 	lw	s3,60(sp)
9d00a9dc:	8fb20038 	lw	s2,56(sp)
9d00a9e0:	8fb10034 	lw	s1,52(sp)
9d00a9e4:	8fb00030 	lw	s0,48(sp)
9d00a9e8:	03e00008 	jr	ra
9d00a9ec:	27bd0058 	addiu	sp,sp,88
9d00a9f0:	02403025 	move	a2,s2
9d00a9f4:	02603825 	move	a3,s3
9d00a9f8:	02402025 	move	a0,s2
9d00a9fc:	0f40389b 	jal	9d00e26c <__eqdf2>
9d00aa00:	02602825 	move	a1,s3
9d00aa04:	1440ffd5 	bnez	v0,9d00a95c <dreml+0x2b8>
9d00aa08:	8fbf0054 	lw	ra,84(sp)
9d00aa0c:	1000ffbc 	b	9d00a900 <dreml+0x25c>
9d00aa10:	8fb20058 	lw	s2,88(sp)
9d00aa14:	8e067550 	lw	a2,30032(s0)
9d00aa18:	8e077554 	lw	a3,30036(s0)
9d00aa1c:	8fa40058 	lw	a0,88(sp)
9d00aa20:	0f4030c3 	jal	9d00c30c <__muldf3>
9d00aa24:	8fa5005c 	lw	a1,92(sp)
9d00aa28:	8fa60020 	lw	a2,32(sp)
9d00aa2c:	8fa70024 	lw	a3,36(sp)
9d00aa30:	00402025 	move	a0,v0
9d00aa34:	0f4029a9 	jal	9d00a6a4 <dreml>
9d00aa38:	00602825 	move	a1,v1
9d00aa3c:	00403025 	move	a2,v0
9d00aa40:	00603825 	move	a3,v1
9d00aa44:	00402025 	move	a0,v0
9d00aa48:	0f402cde 	jal	9d00b378 <__adddf3>
9d00aa4c:	00602825 	move	a1,v1
9d00aa50:	00409025 	move	s2,v0
9d00aa54:	1000ffc0 	b	9d00a958 <dreml+0x2b4>
9d00aa58:	00609825 	move	s3,v1
9d00aa5c:	3c029d00 	lui	v0,0x9d00
9d00aa60:	8c447548 	lw	a0,30024(v0)
9d00aa64:	8c45754c 	lw	a1,30028(v0)
9d00aa68:	0f4036ab 	jal	9d00daac <__mchp_ldexp>
9d00aa6c:	24060036 	li	a2,54
9d00aa70:	00403025 	move	a2,v0
9d00aa74:	02402025 	move	a0,s2
9d00aa78:	02602825 	move	a1,s3
9d00aa7c:	00603825 	move	a3,v1
9d00aa80:	00408025 	move	s0,v0
9d00aa84:	0f4030c3 	jal	9d00c30c <__muldf3>
9d00aa88:	00608825 	move	s1,v1
9d00aa8c:	8fa40058 	lw	a0,88(sp)
9d00aa90:	8fa5005c 	lw	a1,92(sp)
9d00aa94:	00403025 	move	a2,v0
9d00aa98:	00603825 	move	a3,v1
9d00aa9c:	00409025 	move	s2,v0
9d00aaa0:	0f4029a9 	jal	9d00a6a4 <dreml>
9d00aaa4:	00609825 	move	s3,v1
9d00aaa8:	00402025 	move	a0,v0
9d00aaac:	02003025 	move	a2,s0
9d00aab0:	02203825 	move	a3,s1
9d00aab4:	0f4030c3 	jal	9d00c30c <__muldf3>
9d00aab8:	00602825 	move	a1,v1
9d00aabc:	00402025 	move	a0,v0
9d00aac0:	02403025 	move	a2,s2
9d00aac4:	02603825 	move	a3,s3
9d00aac8:	0f4029a9 	jal	9d00a6a4 <dreml>
9d00aacc:	00602825 	move	a1,v1
9d00aad0:	00402025 	move	a0,v0
9d00aad4:	02003025 	move	a2,s0
9d00aad8:	02203825 	move	a3,s1
9d00aadc:	0f40287b 	jal	9d00a1ec <__divdf3>
9d00aae0:	00602825 	move	a1,v1
9d00aae4:	00409025 	move	s2,v0
9d00aae8:	1000ff9b 	b	9d00a958 <dreml+0x2b4>
9d00aaec:	00609825 	move	s3,v1
9d00aaf0:	1000ff7e 	b	9d00a8ec <dreml+0x248>
9d00aaf4:	afb1005c 	sw	s1,92(sp)

Disassembly of section .text:

9d00aaf8 <__divdi3>:
9d00aaf8:	04a10007 	bgez	a1,9d00ab18 <__divdi3+0x20>
9d00aafc:	00005025 	move	t2,zero
9d00ab00:	00041023 	negu	v0,a0
9d00ab04:	0002182b 	sltu	v1,zero,v0
9d00ab08:	00052823 	negu	a1,a1
9d00ab0c:	00402025 	move	a0,v0
9d00ab10:	00a32823 	subu	a1,a1,v1
9d00ab14:	240affff 	li	t2,-1
9d00ab18:	04e10008 	bgez	a3,9d00ab3c <__divdi3+0x44>
9d00ab1c:	00c04025 	move	t0,a2
9d00ab20:	00061023 	negu	v0,a2
9d00ab24:	0002182b 	sltu	v1,zero,v0
9d00ab28:	00073823 	negu	a3,a3
9d00ab2c:	000a5027 	nor	t2,zero,t2
9d00ab30:	00403025 	move	a2,v0
9d00ab34:	00e33823 	subu	a3,a3,v1
9d00ab38:	00c04025 	move	t0,a2
9d00ab3c:	00e01825 	move	v1,a3
9d00ab40:	00804825 	move	t1,a0
9d00ab44:	14e000ab 	bnez	a3,9d00adf4 <__divdi3+0x2fc>
9d00ab48:	00a01025 	move	v0,a1
9d00ab4c:	00a6302b 	sltu	a2,a1,a2
9d00ab50:	10c0003c 	beqz	a2,9d00ac44 <__divdi3+0x14c>
9d00ab54:	00000000 	nop
9d00ab58:	71052820 	clz	a1,t0
9d00ab5c:	10a00006 	beqz	a1,9d00ab78 <__divdi3+0x80>
9d00ab60:	00a22004 	sllv	a0,v0,a1
9d00ab64:	00051023 	negu	v0,a1
9d00ab68:	00491006 	srlv	v0,t1,v0
9d00ab6c:	00a84004 	sllv	t0,t0,a1
9d00ab70:	00441025 	or	v0,v0,a0
9d00ab74:	00a94804 	sllv	t1,t1,a1
9d00ab78:	00083402 	srl	a2,t0,0x10
9d00ab7c:	0046001b 	divu	zero,v0,a2
9d00ab80:	00c001f4 	teq	a2,zero,0x7
9d00ab84:	310bffff 	andi	t3,t0,0xffff
9d00ab88:	00091402 	srl	v0,t1,0x10
9d00ab8c:	00003812 	mflo	a3
9d00ab90:	00002010 	mfhi	a0
9d00ab94:	00042400 	sll	a0,a0,0x10
9d00ab98:	00821025 	or	v0,a0,v0
9d00ab9c:	71676002 	mul	t4,t3,a3
9d00aba0:	004c202b 	sltu	a0,v0,t4
9d00aba4:	1080000a 	beqz	a0,9d00abd0 <__divdi3+0xd8>
9d00aba8:	00e02825 	move	a1,a3
9d00abac:	00481021 	addu	v0,v0,t0
9d00abb0:	0048202b 	sltu	a0,v0,t0
9d00abb4:	14800006 	bnez	a0,9d00abd0 <__divdi3+0xd8>
9d00abb8:	24e5ffff 	addiu	a1,a3,-1
9d00abbc:	004c202b 	sltu	a0,v0,t4
9d00abc0:	50800004 	beqzl	a0,9d00abd4 <__divdi3+0xdc>
9d00abc4:	004c1023 	subu	v0,v0,t4
9d00abc8:	24e5fffe 	addiu	a1,a3,-2
9d00abcc:	00481021 	addu	v0,v0,t0
9d00abd0:	004c1023 	subu	v0,v0,t4
9d00abd4:	0046001b 	divu	zero,v0,a2
9d00abd8:	00c001f4 	teq	a2,zero,0x7
9d00abdc:	3129ffff 	andi	t1,t1,0xffff
9d00abe0:	00001012 	mflo	v0
9d00abe4:	00003010 	mfhi	a2
9d00abe8:	00063400 	sll	a2,a2,0x10
9d00abec:	00c94825 	or	t1,a2,t1
9d00abf0:	71625802 	mul	t3,t3,v0
9d00abf4:	012b302b 	sltu	a2,t1,t3
9d00abf8:	10c00008 	beqz	a2,9d00ac1c <__divdi3+0x124>
9d00abfc:	00402025 	move	a0,v0
9d00ac00:	01094821 	addu	t1,t0,t1
9d00ac04:	0128402b 	sltu	t0,t1,t0
9d00ac08:	15000004 	bnez	t0,9d00ac1c <__divdi3+0x124>
9d00ac0c:	2444ffff 	addiu	a0,v0,-1
9d00ac10:	012b482b 	sltu	t1,t1,t3
9d00ac14:	55200001 	bnezl	t1,9d00ac1c <__divdi3+0x124>
9d00ac18:	2444fffe 	addiu	a0,v0,-2
9d00ac1c:	00051400 	sll	v0,a1,0x10
9d00ac20:	00441025 	or	v0,v0,a0
9d00ac24:	11400005 	beqz	t2,9d00ac3c <__divdi3+0x144>
9d00ac28:	00000000 	nop
9d00ac2c:	00021023 	negu	v0,v0
9d00ac30:	0002202b 	sltu	a0,zero,v0
9d00ac34:	00031823 	negu	v1,v1
9d00ac38:	00641823 	subu	v1,v1,a0
9d00ac3c:	03e00008 	jr	ra
9d00ac40:	00000000 	nop
9d00ac44:	15000006 	bnez	t0,9d00ac60 <__divdi3+0x168>
9d00ac48:	710b5820 	clz	t3,t0
9d00ac4c:	24080001 	li	t0,1
9d00ac50:	0107001b 	divu	zero,t0,a3
9d00ac54:	00e001f4 	teq	a3,zero,0x7
9d00ac58:	00004012 	mflo	t0
9d00ac5c:	710b5820 	clz	t3,t0
9d00ac60:	1560002d 	bnez	t3,9d00ad18 <__divdi3+0x220>
9d00ac64:	24030001 	li	v1,1
9d00ac68:	00a82823 	subu	a1,a1,t0
9d00ac6c:	00083c02 	srl	a3,t0,0x10
9d00ac70:	00a7001b 	divu	zero,a1,a3
9d00ac74:	00e001f4 	teq	a3,zero,0x7
9d00ac78:	310bffff 	andi	t3,t0,0xffff
9d00ac7c:	00091402 	srl	v0,t1,0x10
9d00ac80:	00002812 	mflo	a1
9d00ac84:	00002010 	mfhi	a0
9d00ac88:	00042400 	sll	a0,a0,0x10
9d00ac8c:	00821025 	or	v0,a0,v0
9d00ac90:	71656002 	mul	t4,t3,a1
9d00ac94:	004c202b 	sltu	a0,v0,t4
9d00ac98:	1080000a 	beqz	a0,9d00acc4 <__divdi3+0x1cc>
9d00ac9c:	00a03025 	move	a2,a1
9d00aca0:	00481021 	addu	v0,v0,t0
9d00aca4:	0048202b 	sltu	a0,v0,t0
9d00aca8:	14800006 	bnez	a0,9d00acc4 <__divdi3+0x1cc>
9d00acac:	24a6ffff 	addiu	a2,a1,-1
9d00acb0:	004c202b 	sltu	a0,v0,t4
9d00acb4:	50800004 	beqzl	a0,9d00acc8 <__divdi3+0x1d0>
9d00acb8:	004c1023 	subu	v0,v0,t4
9d00acbc:	24a6fffe 	addiu	a2,a1,-2
9d00acc0:	00481021 	addu	v0,v0,t0
9d00acc4:	004c1023 	subu	v0,v0,t4
9d00acc8:	0047001b 	divu	zero,v0,a3
9d00accc:	00e001f4 	teq	a3,zero,0x7
9d00acd0:	3129ffff 	andi	t1,t1,0xffff
9d00acd4:	00001012 	mflo	v0
9d00acd8:	00003810 	mfhi	a3
9d00acdc:	00073c00 	sll	a3,a3,0x10
9d00ace0:	00e93825 	or	a3,a3,t1
9d00ace4:	71622802 	mul	a1,t3,v0
9d00ace8:	00e5482b 	sltu	t1,a3,a1
9d00acec:	11200008 	beqz	t1,9d00ad10 <__divdi3+0x218>
9d00acf0:	00402025 	move	a0,v0
9d00acf4:	01073821 	addu	a3,t0,a3
9d00acf8:	00e8402b 	sltu	t0,a3,t0
9d00acfc:	15000004 	bnez	t0,9d00ad10 <__divdi3+0x218>
9d00ad00:	2444ffff 	addiu	a0,v0,-1
9d00ad04:	00e5382b 	sltu	a3,a3,a1
9d00ad08:	54e00001 	bnezl	a3,9d00ad10 <__divdi3+0x218>
9d00ad0c:	2444fffe 	addiu	a0,v0,-2
9d00ad10:	1000ffc3 	b	9d00ac20 <__divdi3+0x128>
9d00ad14:	00061400 	sll	v0,a2,0x10
9d00ad18:	24070020 	li	a3,32
9d00ad1c:	00eb3823 	subu	a3,a3,t3
9d00ad20:	01684004 	sllv	t0,t0,t3
9d00ad24:	01651004 	sllv	v0,a1,t3
9d00ad28:	00081c02 	srl	v1,t0,0x10
9d00ad2c:	00e52806 	srlv	a1,a1,a3
9d00ad30:	00a3001b 	divu	zero,a1,v1
9d00ad34:	006001f4 	teq	v1,zero,0x7
9d00ad38:	3106ffff 	andi	a2,t0,0xffff
9d00ad3c:	00e44806 	srlv	t1,a0,a3
9d00ad40:	01224825 	or	t1,t1,v0
9d00ad44:	00091402 	srl	v0,t1,0x10
9d00ad48:	00002812 	mflo	a1
9d00ad4c:	00003810 	mfhi	a3
9d00ad50:	00073c00 	sll	a3,a3,0x10
9d00ad54:	00e23825 	or	a3,a3,v0
9d00ad58:	70c56002 	mul	t4,a2,a1
9d00ad5c:	00ec682b 	sltu	t5,a3,t4
9d00ad60:	11a0000a 	beqz	t5,9d00ad8c <__divdi3+0x294>
9d00ad64:	00a01025 	move	v0,a1
9d00ad68:	00e83821 	addu	a3,a3,t0
9d00ad6c:	00e8682b 	sltu	t5,a3,t0
9d00ad70:	15a00006 	bnez	t5,9d00ad8c <__divdi3+0x294>
9d00ad74:	24a2ffff 	addiu	v0,a1,-1
9d00ad78:	00ec682b 	sltu	t5,a3,t4
9d00ad7c:	51a00004 	beqzl	t5,9d00ad90 <__divdi3+0x298>
9d00ad80:	00ec3823 	subu	a3,a3,t4
9d00ad84:	24a2fffe 	addiu	v0,a1,-2
9d00ad88:	00e83821 	addu	a3,a3,t0
9d00ad8c:	00ec3823 	subu	a3,a3,t4
9d00ad90:	00e3001b 	divu	zero,a3,v1
9d00ad94:	006001f4 	teq	v1,zero,0x7
9d00ad98:	3125ffff 	andi	a1,t1,0xffff
9d00ad9c:	00001812 	mflo	v1
9d00ada0:	00003810 	mfhi	a3
9d00ada4:	00073c00 	sll	a3,a3,0x10
9d00ada8:	00e52825 	or	a1,a3,a1
9d00adac:	70c33002 	mul	a2,a2,v1
9d00adb0:	00a6482b 	sltu	t1,a1,a2
9d00adb4:	1120000a 	beqz	t1,9d00ade0 <__divdi3+0x2e8>
9d00adb8:	00603825 	move	a3,v1
9d00adbc:	00a82821 	addu	a1,a1,t0
9d00adc0:	00a8482b 	sltu	t1,a1,t0
9d00adc4:	15200006 	bnez	t1,9d00ade0 <__divdi3+0x2e8>
9d00adc8:	2467ffff 	addiu	a3,v1,-1
9d00adcc:	00a6482b 	sltu	t1,a1,a2
9d00add0:	51200004 	beqzl	t1,9d00ade4 <__divdi3+0x2ec>
9d00add4:	00021c00 	sll	v1,v0,0x10
9d00add8:	2467fffe 	addiu	a3,v1,-2
9d00addc:	00a82821 	addu	a1,a1,t0
9d00ade0:	00021c00 	sll	v1,v0,0x10
9d00ade4:	01644804 	sllv	t1,a0,t3
9d00ade8:	00a62823 	subu	a1,a1,a2
9d00adec:	1000ff9f 	b	9d00ac6c <__divdi3+0x174>
9d00adf0:	00671825 	or	v1,v1,a3
9d00adf4:	00a7402b 	sltu	t0,a1,a3
9d00adf8:	00001825 	move	v1,zero
9d00adfc:	1500ff89 	bnez	t0,9d00ac24 <__divdi3+0x12c>
9d00ae00:	00001025 	move	v0,zero
9d00ae04:	70eb5820 	clz	t3,a3
9d00ae08:	15600007 	bnez	t3,9d00ae28 <__divdi3+0x330>
9d00ae0c:	24090020 	li	t1,32
9d00ae10:	00e5282b 	sltu	a1,a3,a1
9d00ae14:	14a0ff83 	bnez	a1,9d00ac24 <__divdi3+0x12c>
9d00ae18:	24020001 	li	v0,1
9d00ae1c:	0086102b 	sltu	v0,a0,a2
9d00ae20:	1000ff80 	b	9d00ac24 <__divdi3+0x12c>
9d00ae24:	38420001 	xori	v0,v0,0x1
9d00ae28:	012b4823 	subu	t1,t1,t3
9d00ae2c:	01261006 	srlv	v0,a2,t1
9d00ae30:	01673804 	sllv	a3,a3,t3
9d00ae34:	00473825 	or	a3,v0,a3
9d00ae38:	00074402 	srl	t0,a3,0x10
9d00ae3c:	01651004 	sllv	v0,a1,t3
9d00ae40:	01252806 	srlv	a1,a1,t1
9d00ae44:	00a8001b 	divu	zero,a1,t0
9d00ae48:	010001f4 	teq	t0,zero,0x7
9d00ae4c:	30ecffff 	andi	t4,a3,0xffff
9d00ae50:	01241806 	srlv	v1,a0,t1
9d00ae54:	00621025 	or	v0,v1,v0
9d00ae58:	00021c02 	srl	v1,v0,0x10
9d00ae5c:	00002812 	mflo	a1
9d00ae60:	00004810 	mfhi	t1
9d00ae64:	00094c00 	sll	t1,t1,0x10
9d00ae68:	01234825 	or	t1,t1,v1
9d00ae6c:	71856802 	mul	t5,t4,a1
9d00ae70:	012d702b 	sltu	t6,t1,t5
9d00ae74:	11c0000a 	beqz	t6,9d00aea0 <__divdi3+0x3a8>
9d00ae78:	00a01825 	move	v1,a1
9d00ae7c:	01274821 	addu	t1,t1,a3
9d00ae80:	0127702b 	sltu	t6,t1,a3
9d00ae84:	15c00006 	bnez	t6,9d00aea0 <__divdi3+0x3a8>
9d00ae88:	24a3ffff 	addiu	v1,a1,-1
9d00ae8c:	012d702b 	sltu	t6,t1,t5
9d00ae90:	51c00004 	beqzl	t6,9d00aea4 <__divdi3+0x3ac>
9d00ae94:	012d4823 	subu	t1,t1,t5
9d00ae98:	24a3fffe 	addiu	v1,a1,-2
9d00ae9c:	01274821 	addu	t1,t1,a3
9d00aea0:	012d4823 	subu	t1,t1,t5
9d00aea4:	0128001b 	divu	zero,t1,t0
9d00aea8:	010001f4 	teq	t0,zero,0x7
9d00aeac:	3045ffff 	andi	a1,v0,0xffff
9d00aeb0:	00004012 	mflo	t0
9d00aeb4:	00004810 	mfhi	t1
9d00aeb8:	00094c00 	sll	t1,t1,0x10
9d00aebc:	01252825 	or	a1,t1,a1
9d00aec0:	71886002 	mul	t4,t4,t0
9d00aec4:	00ac102b 	sltu	v0,a1,t4
9d00aec8:	1040000a 	beqz	v0,9d00aef4 <__divdi3+0x3fc>
9d00aecc:	01004825 	move	t1,t0
9d00aed0:	00a72821 	addu	a1,a1,a3
9d00aed4:	00a7102b 	sltu	v0,a1,a3
9d00aed8:	14400006 	bnez	v0,9d00aef4 <__divdi3+0x3fc>
9d00aedc:	2509ffff 	addiu	t1,t0,-1
9d00aee0:	00ac102b 	sltu	v0,a1,t4
9d00aee4:	10400004 	beqz	v0,9d00aef8 <__divdi3+0x400>
9d00aee8:	00031400 	sll	v0,v1,0x10
9d00aeec:	2509fffe 	addiu	t1,t0,-2
9d00aef0:	00a72821 	addu	a1,a1,a3
9d00aef4:	00031400 	sll	v0,v1,0x10
9d00aef8:	01663004 	sllv	a2,a2,t3
9d00aefc:	00491025 	or	v0,v0,t1
9d00af00:	00c20019 	multu	a2,v0
9d00af04:	00ac2823 	subu	a1,a1,t4
9d00af08:	00003810 	mfhi	a3
9d00af0c:	00a7182b 	sltu	v1,a1,a3
9d00af10:	14600007 	bnez	v1,9d00af30 <__divdi3+0x438>
9d00af14:	00003012 	mflo	a2
9d00af18:	14a7ff42 	bne	a1,a3,9d00ac24 <__divdi3+0x12c>
9d00af1c:	00001825 	move	v1,zero
9d00af20:	01642004 	sllv	a0,a0,t3
9d00af24:	0086202b 	sltu	a0,a0,a2
9d00af28:	1080ff3e 	beqz	a0,9d00ac24 <__divdi3+0x12c>
9d00af2c:	00000000 	nop
9d00af30:	2442ffff 	addiu	v0,v0,-1
9d00af34:	1000ff3b 	b	9d00ac24 <__divdi3+0x12c>
9d00af38:	00001825 	move	v1,zero

9d00af3c <__moddi3>:
9d00af3c:	04a10007 	bgez	a1,9d00af5c <__moddi3+0x20>
9d00af40:	00006025 	move	t4,zero
9d00af44:	00041023 	negu	v0,a0
9d00af48:	0002482b 	sltu	t1,zero,v0
9d00af4c:	00052823 	negu	a1,a1
9d00af50:	00402025 	move	a0,v0
9d00af54:	00a92823 	subu	a1,a1,t1
9d00af58:	240cffff 	li	t4,-1
9d00af5c:	04e10006 	bgez	a3,9d00af78 <__moddi3+0x3c>
9d00af60:	00c04825 	move	t1,a2
9d00af64:	00063023 	negu	a2,a2
9d00af68:	0006102b 	sltu	v0,zero,a2
9d00af6c:	00073823 	negu	a3,a3
9d00af70:	00e23823 	subu	a3,a3,v0
9d00af74:	00c04825 	move	t1,a2
9d00af78:	00801025 	move	v0,a0
9d00af7c:	14e0009c 	bnez	a3,9d00b1f0 <__moddi3+0x2b4>
9d00af80:	00a01825 	move	v1,a1
9d00af84:	00a6302b 	sltu	a2,a1,a2
9d00af88:	10c00039 	beqz	a2,9d00b070 <__moddi3+0x134>
9d00af8c:	712a5020 	clz	t2,t1
9d00af90:	51400008 	beqzl	t2,9d00afb4 <__moddi3+0x78>
9d00af94:	00092402 	srl	a0,t1,0x10
9d00af98:	01451804 	sllv	v1,a1,t2
9d00af9c:	000a2823 	negu	a1,t2
9d00afa0:	00a42806 	srlv	a1,a0,a1
9d00afa4:	01494804 	sllv	t1,t1,t2
9d00afa8:	00a31825 	or	v1,a1,v1
9d00afac:	01441004 	sllv	v0,a0,t2
9d00afb0:	00092402 	srl	a0,t1,0x10
9d00afb4:	0064001b 	divu	zero,v1,a0
9d00afb8:	008001f4 	teq	a0,zero,0x7
9d00afbc:	3127ffff 	andi	a3,t1,0xffff
9d00afc0:	00001812 	mflo	v1
9d00afc4:	00002810 	mfhi	a1
9d00afc8:	70673002 	mul	a2,v1,a3
9d00afcc:	00051c00 	sll	v1,a1,0x10
9d00afd0:	00022c02 	srl	a1,v0,0x10
9d00afd4:	00651825 	or	v1,v1,a1
9d00afd8:	0066282b 	sltu	a1,v1,a2
9d00afdc:	50a00008 	beqzl	a1,9d00b000 <__moddi3+0xc4>
9d00afe0:	00661823 	subu	v1,v1,a2
9d00afe4:	00691821 	addu	v1,v1,t1
9d00afe8:	0069282b 	sltu	a1,v1,t1
9d00afec:	14a00003 	bnez	a1,9d00affc <__moddi3+0xc0>
9d00aff0:	0066282b 	sltu	a1,v1,a2
9d00aff4:	54a00001 	bnezl	a1,9d00affc <__moddi3+0xc0>
9d00aff8:	00691821 	addu	v1,v1,t1
9d00affc:	00661823 	subu	v1,v1,a2
9d00b000:	0064001b 	divu	zero,v1,a0
9d00b004:	008001f4 	teq	a0,zero,0x7
9d00b008:	3042ffff 	andi	v0,v0,0xffff
9d00b00c:	00001812 	mflo	v1
9d00b010:	00003010 	mfhi	a2
9d00b014:	70672002 	mul	a0,v1,a3
9d00b018:	00061c00 	sll	v1,a2,0x10
9d00b01c:	00621025 	or	v0,v1,v0
9d00b020:	0044182b 	sltu	v1,v0,a0
9d00b024:	50600008 	beqzl	v1,9d00b048 <__moddi3+0x10c>
9d00b028:	00441023 	subu	v0,v0,a0
9d00b02c:	00491021 	addu	v0,v0,t1
9d00b030:	0049182b 	sltu	v1,v0,t1
9d00b034:	14600003 	bnez	v1,9d00b044 <__moddi3+0x108>
9d00b038:	0044182b 	sltu	v1,v0,a0
9d00b03c:	54600001 	bnezl	v1,9d00b044 <__moddi3+0x108>
9d00b040:	00491021 	addu	v0,v0,t1
9d00b044:	00441023 	subu	v0,v0,a0
9d00b048:	01421006 	srlv	v0,v0,t2
9d00b04c:	00001825 	move	v1,zero
9d00b050:	11800005 	beqz	t4,9d00b068 <__moddi3+0x12c>
9d00b054:	00000000 	nop
9d00b058:	00021023 	negu	v0,v0
9d00b05c:	0002202b 	sltu	a0,zero,v0
9d00b060:	00031823 	negu	v1,v1
9d00b064:	00641823 	subu	v1,v1,a0
9d00b068:	03e00008 	jr	ra
9d00b06c:	00000000 	nop
9d00b070:	15200006 	bnez	t1,9d00b08c <__moddi3+0x150>
9d00b074:	00000000 	nop
9d00b078:	24090001 	li	t1,1
9d00b07c:	0127001b 	divu	zero,t1,a3
9d00b080:	00e001f4 	teq	a3,zero,0x7
9d00b084:	00004812 	mflo	t1
9d00b088:	712a5020 	clz	t2,t1
9d00b08c:	15400029 	bnez	t2,9d00b134 <__moddi3+0x1f8>
9d00b090:	24070020 	li	a3,32
9d00b094:	00a92823 	subu	a1,a1,t1
9d00b098:	00092402 	srl	a0,t1,0x10
9d00b09c:	00a4001b 	divu	zero,a1,a0
9d00b0a0:	008001f4 	teq	a0,zero,0x7
9d00b0a4:	3127ffff 	andi	a3,t1,0xffff
9d00b0a8:	00002812 	mflo	a1
9d00b0ac:	00001810 	mfhi	v1
9d00b0b0:	70a73002 	mul	a2,a1,a3
9d00b0b4:	00032c00 	sll	a1,v1,0x10
9d00b0b8:	00021c02 	srl	v1,v0,0x10
9d00b0bc:	00a32825 	or	a1,a1,v1
9d00b0c0:	00a6182b 	sltu	v1,a1,a2
9d00b0c4:	50600008 	beqzl	v1,9d00b0e8 <__moddi3+0x1ac>
9d00b0c8:	00a63023 	subu	a2,a1,a2
9d00b0cc:	00a92821 	addu	a1,a1,t1
9d00b0d0:	00a9182b 	sltu	v1,a1,t1
9d00b0d4:	14600003 	bnez	v1,9d00b0e4 <__moddi3+0x1a8>
9d00b0d8:	00a6182b 	sltu	v1,a1,a2
9d00b0dc:	54600001 	bnezl	v1,9d00b0e4 <__moddi3+0x1a8>
9d00b0e0:	00a92821 	addu	a1,a1,t1
9d00b0e4:	00a63023 	subu	a2,a1,a2
9d00b0e8:	00c4001b 	divu	zero,a2,a0
9d00b0ec:	008001f4 	teq	a0,zero,0x7
9d00b0f0:	3042ffff 	andi	v0,v0,0xffff
9d00b0f4:	00003012 	mflo	a2
9d00b0f8:	00002810 	mfhi	a1
9d00b0fc:	70c71802 	mul	v1,a2,a3
9d00b100:	00053400 	sll	a2,a1,0x10
9d00b104:	00c21025 	or	v0,a2,v0
9d00b108:	0043202b 	sltu	a0,v0,v1
9d00b10c:	5080ffce 	beqzl	a0,9d00b048 <__moddi3+0x10c>
9d00b110:	00431023 	subu	v0,v0,v1
9d00b114:	00491021 	addu	v0,v0,t1
9d00b118:	0049202b 	sltu	a0,v0,t1
9d00b11c:	14800003 	bnez	a0,9d00b12c <__moddi3+0x1f0>
9d00b120:	0043202b 	sltu	a0,v0,v1
9d00b124:	54800001 	bnezl	a0,9d00b12c <__moddi3+0x1f0>
9d00b128:	00491021 	addu	v0,v0,t1
9d00b12c:	1000ffc6 	b	9d00b048 <__moddi3+0x10c>
9d00b130:	00431023 	subu	v0,v0,v1
9d00b134:	00ea3823 	subu	a3,a3,t2
9d00b138:	01494804 	sllv	t1,t1,t2
9d00b13c:	00e41806 	srlv	v1,a0,a3
9d00b140:	00093402 	srl	a2,t1,0x10
9d00b144:	00e53806 	srlv	a3,a1,a3
9d00b148:	00e6001b 	divu	zero,a3,a2
9d00b14c:	00c001f4 	teq	a2,zero,0x7
9d00b150:	01451004 	sllv	v0,a1,t2
9d00b154:	3128ffff 	andi	t0,t1,0xffff
9d00b158:	00621825 	or	v1,v1,v0
9d00b15c:	00032c02 	srl	a1,v1,0x10
9d00b160:	00003812 	mflo	a3
9d00b164:	00005810 	mfhi	t3
9d00b168:	70e81002 	mul	v0,a3,t0
9d00b16c:	000b3c00 	sll	a3,t3,0x10
9d00b170:	00e53825 	or	a3,a3,a1
9d00b174:	00e2282b 	sltu	a1,a3,v0
9d00b178:	50a00008 	beqzl	a1,9d00b19c <__moddi3+0x260>
9d00b17c:	00e23823 	subu	a3,a3,v0
9d00b180:	00e93821 	addu	a3,a3,t1
9d00b184:	00e9282b 	sltu	a1,a3,t1
9d00b188:	14a00003 	bnez	a1,9d00b198 <__moddi3+0x25c>
9d00b18c:	00e2282b 	sltu	a1,a3,v0
9d00b190:	54a00001 	bnezl	a1,9d00b198 <__moddi3+0x25c>
9d00b194:	00e93821 	addu	a3,a3,t1
9d00b198:	00e23823 	subu	a3,a3,v0
9d00b19c:	00e6001b 	divu	zero,a3,a2
9d00b1a0:	00c001f4 	teq	a2,zero,0x7
9d00b1a4:	3065ffff 	andi	a1,v1,0xffff
9d00b1a8:	00003012 	mflo	a2
9d00b1ac:	00003810 	mfhi	a3
9d00b1b0:	00073c00 	sll	a3,a3,0x10
9d00b1b4:	00e52825 	or	a1,a3,a1
9d00b1b8:	70c83002 	mul	a2,a2,t0
9d00b1bc:	00a6102b 	sltu	v0,a1,a2
9d00b1c0:	10400009 	beqz	v0,9d00b1e8 <__moddi3+0x2ac>
9d00b1c4:	01441004 	sllv	v0,a0,t2
9d00b1c8:	00a92821 	addu	a1,a1,t1
9d00b1cc:	00a9102b 	sltu	v0,a1,t1
9d00b1d0:	14400005 	bnez	v0,9d00b1e8 <__moddi3+0x2ac>
9d00b1d4:	01441004 	sllv	v0,a0,t2
9d00b1d8:	00a6102b 	sltu	v0,a1,a2
9d00b1dc:	54400001 	bnezl	v0,9d00b1e4 <__moddi3+0x2a8>
9d00b1e0:	00a92821 	addu	a1,a1,t1
9d00b1e4:	01441004 	sllv	v0,a0,t2
9d00b1e8:	1000ffab 	b	9d00b098 <__moddi3+0x15c>
9d00b1ec:	00a62823 	subu	a1,a1,a2
9d00b1f0:	00a7402b 	sltu	t0,a1,a3
9d00b1f4:	1500ff96 	bnez	t0,9d00b050 <__moddi3+0x114>
9d00b1f8:	70ed6820 	clz	t5,a3
9d00b1fc:	15a0000a 	bnez	t5,9d00b228 <__moddi3+0x2ec>
9d00b200:	00e5402b 	sltu	t0,a3,a1
9d00b204:	15000003 	bnez	t0,9d00b214 <__moddi3+0x2d8>
9d00b208:	0086402b 	sltu	t0,a0,a2
9d00b20c:	1500ff90 	bnez	t0,9d00b050 <__moddi3+0x114>
9d00b210:	00000000 	nop
9d00b214:	00861023 	subu	v0,a0,a2
9d00b218:	00a72823 	subu	a1,a1,a3
9d00b21c:	0082182b 	sltu	v1,a0,v0
9d00b220:	1000ff8b 	b	9d00b050 <__moddi3+0x114>
9d00b224:	00a31823 	subu	v1,a1,v1
9d00b228:	240b0020 	li	t3,32
9d00b22c:	016d5823 	subu	t3,t3,t5
9d00b230:	01664006 	srlv	t0,a2,t3
9d00b234:	01a73804 	sllv	a3,a3,t5
9d00b238:	01073825 	or	a3,t0,a3
9d00b23c:	01a51004 	sllv	v0,a1,t5
9d00b240:	00074c02 	srl	t1,a3,0x10
9d00b244:	01652806 	srlv	a1,a1,t3
9d00b248:	00a9001b 	divu	zero,a1,t1
9d00b24c:	012001f4 	teq	t1,zero,0x7
9d00b250:	30e8ffff 	andi	t0,a3,0xffff
9d00b254:	01641806 	srlv	v1,a0,t3
9d00b258:	00621825 	or	v1,v1,v0
9d00b25c:	00031402 	srl	v0,v1,0x10
9d00b260:	00002812 	mflo	a1
9d00b264:	00005010 	mfhi	t2
9d00b268:	000a5400 	sll	t2,t2,0x10
9d00b26c:	01425025 	or	t2,t2,v0
9d00b270:	71057002 	mul	t6,t0,a1
9d00b274:	014e782b 	sltu	t7,t2,t6
9d00b278:	11e0000a 	beqz	t7,9d00b2a4 <__moddi3+0x368>
9d00b27c:	00a01025 	move	v0,a1
9d00b280:	01475021 	addu	t2,t2,a3
9d00b284:	0147782b 	sltu	t7,t2,a3
9d00b288:	15e00006 	bnez	t7,9d00b2a4 <__moddi3+0x368>
9d00b28c:	24a2ffff 	addiu	v0,a1,-1
9d00b290:	014e782b 	sltu	t7,t2,t6
9d00b294:	51e00004 	beqzl	t7,9d00b2a8 <__moddi3+0x36c>
9d00b298:	014e5023 	subu	t2,t2,t6
9d00b29c:	24a2fffe 	addiu	v0,a1,-2
9d00b2a0:	01475021 	addu	t2,t2,a3
9d00b2a4:	014e5023 	subu	t2,t2,t6
9d00b2a8:	0149001b 	divu	zero,t2,t1
9d00b2ac:	012001f4 	teq	t1,zero,0x7
9d00b2b0:	00004812 	mflo	t1
9d00b2b4:	00005010 	mfhi	t2
9d00b2b8:	000a5400 	sll	t2,t2,0x10
9d00b2bc:	71092802 	mul	a1,t0,t1
9d00b2c0:	3068ffff 	andi	t0,v1,0xffff
9d00b2c4:	01484025 	or	t0,t2,t0
9d00b2c8:	0105182b 	sltu	v1,t0,a1
9d00b2cc:	1060000a 	beqz	v1,9d00b2f8 <__moddi3+0x3bc>
9d00b2d0:	01205025 	move	t2,t1
9d00b2d4:	01074021 	addu	t0,t0,a3
9d00b2d8:	0107182b 	sltu	v1,t0,a3
9d00b2dc:	14600006 	bnez	v1,9d00b2f8 <__moddi3+0x3bc>
9d00b2e0:	252affff 	addiu	t2,t1,-1
9d00b2e4:	0105182b 	sltu	v1,t0,a1
9d00b2e8:	10600004 	beqz	v1,9d00b2fc <__moddi3+0x3c0>
9d00b2ec:	00027400 	sll	t6,v0,0x10
9d00b2f0:	252afffe 	addiu	t2,t1,-2
9d00b2f4:	01074021 	addu	t0,t0,a3
9d00b2f8:	00027400 	sll	t6,v0,0x10
9d00b2fc:	01ca7025 	or	t6,t6,t2
9d00b300:	01a63004 	sllv	a2,a2,t5
9d00b304:	01c60019 	multu	t6,a2
9d00b308:	01054023 	subu	t0,t0,a1
9d00b30c:	01a41804 	sllv	v1,a0,t5
9d00b310:	00007810 	mfhi	t7
9d00b314:	010f102b 	sltu	v0,t0,t7
9d00b318:	01e02825 	move	a1,t7
9d00b31c:	00007012 	mflo	t6
9d00b320:	14400006 	bnez	v0,9d00b33c <__moddi3+0x400>
9d00b324:	00002012 	mflo	a0
9d00b328:	150f0009 	bne	t0,t7,9d00b350 <__moddi3+0x414>
9d00b32c:	00642023 	subu	a0,v1,a0
9d00b330:	006e102b 	sltu	v0,v1,t6
9d00b334:	50400007 	beqzl	v0,9d00b354 <__moddi3+0x418>
9d00b338:	0064182b 	sltu	v1,v1,a0
9d00b33c:	01c62023 	subu	a0,t6,a2
9d00b340:	01e73823 	subu	a3,t7,a3
9d00b344:	01c4702b 	sltu	t6,t6,a0
9d00b348:	00ee2823 	subu	a1,a3,t6
9d00b34c:	00642023 	subu	a0,v1,a0
9d00b350:	0064182b 	sltu	v1,v1,a0
9d00b354:	01054023 	subu	t0,t0,a1
9d00b358:	01031823 	subu	v1,t0,v1
9d00b35c:	01631004 	sllv	v0,v1,t3
9d00b360:	01a42006 	srlv	a0,a0,t5
9d00b364:	00441025 	or	v0,v0,a0
9d00b368:	1000ff39 	b	9d00b050 <__moddi3+0x114>
9d00b36c:	01a31806 	srlv	v1,v1,t5

Disassembly of section .text.dp32subadd:

9d00b370 <__subdf3>:
9d00b370:	3c018000 00e13826                       ...<&8..

9d00b378 <__adddf3>:
9d00b378:	00055840 000b5d42 000552c0 00047d42     @X..B]...R..B}..
9d00b388:	014f5025 00044ac0 3c088000 01485025     %PO..J.....<%PH.
9d00b398:	00077040 000e7542 00076ac0 00067d42     @p..Bu...j..B}..
9d00b3a8:	01af6825 000662c0 01a86825 256fffff     %h...b..%h....o%
9d00b3b8:	2de107fe 1020008d 00000000              ...-.. .....

9d00b3c4 <Blab1>:
9d00b3c4:	25cfffff 	addiu	t7,t6,-1
9d00b3c8:	2de107fe 	sltiu	at,t7,2046
9d00b3cc:	102000bb 	beqz	at,9d00b6bc <BspecB>
9d00b3d0:	00000000 	nop

9d00b3d4 <Blab2>:
9d00b3d4:	3c018000 	lui	at,0x8000
9d00b3d8:	00a12824 	and	a1,a1,at
9d00b3dc:	016e4023 	subu	t0,t3,t6
9d00b3e0:	1100002c 	beqz	t0,9d00b494 <Badd3>
9d00b3e4:	00000000 	nop
9d00b3e8:	19000015 	blez	t0,9d00b440 <i1>
9d00b3ec:	00000000 	nop

9d00b3f0 <L1>:
9d00b3f0:	2d010020 	sltiu	at,t0,32
9d00b3f4:	14200007 	bnez	at,9d00b414 <L2>
9d00b3f8:	00000000 	nop
9d00b3fc:	2108ffe0 	addi	t0,t0,-32
9d00b400:	000c302b 	sltu	a2,zero,t4
9d00b404:	100d0023 	beq	zero,t5,9d00b494 <Badd3>
9d00b408:	01a66025 	or	t4,t5,a2
9d00b40c:	1000fff8 	b	9d00b3f0 <L1>
9d00b410:	340d0000 	li	t5,0x0

9d00b414 <L2>:
9d00b414:	1100001f 	beqz	t0,9d00b494 <Badd3>
9d00b418:	00000000 	nop
9d00b41c:	00082022 	neg	a0,t0
9d00b420:	008c3004 	sllv	a2,t4,a0
9d00b424:	008d2004 	sllv	a0,t5,a0
9d00b428:	010c6006 	srlv	t4,t4,t0
9d00b42c:	010d6806 	srlv	t5,t5,t0
9d00b430:	10c00018 	beqz	a2,9d00b494 <Badd3>
9d00b434:	008c6025 	or	t4,a0,t4
9d00b438:	10000016 	b	9d00b494 <Badd3>
9d00b43c:	358c0002 	ori	t4,t4,0x2

9d00b440 <i1>:
9d00b440:	000e5825 	or	t3,zero,t6
9d00b444:	00084023 	negu	t0,t0

9d00b448 <L4>:
9d00b448:	2d010020 	sltiu	at,t0,32
9d00b44c:	14200007 	bnez	at,9d00b46c <L5>
9d00b450:	00000000 	nop
9d00b454:	2108ffe0 	addi	t0,t0,-32
9d00b458:	0009302b 	sltu	a2,zero,t1
9d00b45c:	100a000d 	beq	zero,t2,9d00b494 <Badd3>
9d00b460:	01464825 	or	t1,t2,a2
9d00b464:	1000fff8 	b	9d00b448 <L4>
9d00b468:	340a0000 	li	t2,0x0

9d00b46c <L5>:
9d00b46c:	11000009 	beqz	t0,9d00b494 <Badd3>
9d00b470:	00000000 	nop
9d00b474:	00082022 	neg	a0,t0
9d00b478:	00893004 	sllv	a2,t1,a0
9d00b47c:	008a2004 	sllv	a0,t2,a0
9d00b480:	01094806 	srlv	t1,t1,t0
9d00b484:	010a5006 	srlv	t2,t2,t0
9d00b488:	10c00002 	beqz	a2,9d00b494 <Badd3>
9d00b48c:	00894825 	or	t1,a0,t1
9d00b490:	35290002 	ori	t1,t1,0x2

9d00b494 <Badd3>:
9d00b494:	00a77826 	xor	t7,a1,a3
9d00b498:	05e0001c 	bltz	t7,9d00b50c <Bsub1>
9d00b49c:	00000000 	nop
9d00b4a0:	012c4821 	addu	t1,t1,t4
9d00b4a4:	012c782b 	sltu	t7,t1,t4
9d00b4a8:	014d5021 	addu	t2,t2,t5
9d00b4ac:	014f5021 	addu	t2,t2,t7
9d00b4b0:	114d0002 	beq	t2,t5,9d00b4bc <L7>
9d00b4b4:	00000000 	nop
9d00b4b8:	014d782b 	sltu	t7,t2,t5

9d00b4bc <L7>:
9d00b4bc:	11e00037 	beqz	t7,9d00b59c <Bres>
9d00b4c0:	00000000 	nop
9d00b4c4:	312f0001 	andi	t7,t1,0x1
9d00b4c8:	11e00002 	beqz	t7,9d00b4d4 <i3>
9d00b4cc:	00000000 	nop
9d00b4d0:	35290002 	ori	t1,t1,0x2

9d00b4d4 <i3>:
9d00b4d4:	00094842 	srl	t1,t1,0x1
9d00b4d8:	000a7fc0 	sll	t7,t2,0x1f
9d00b4dc:	012f4825 	or	t1,t1,t7
9d00b4e0:	000a5042 	srl	t2,t2,0x1
9d00b4e4:	3c018000 	lui	at,0x8000
9d00b4e8:	01415025 	or	t2,t2,at
9d00b4ec:	256b0001 	addiu	t3,t3,1
9d00b4f0:	240107ff 	li	at,2047
9d00b4f4:	15610029 	bne	t3,at,9d00b59c <Bres>
9d00b4f8:	00000000 	nop
9d00b4fc:	3c017ff0 	lui	at,0x7ff0
9d00b500:	00a12825 	or	a1,a1,at
9d00b504:	10000037 	b	9d00b5e4 <BretA>
9d00b508:	24040000 	li	a0,0

9d00b50c <Bsub1>:
9d00b50c:	012c782b 	sltu	t7,t1,t4
9d00b510:	012c4823 	subu	t1,t1,t4
9d00b514:	014f102b 	sltu	v0,t2,t7
9d00b518:	014f5023 	subu	t2,t2,t7
9d00b51c:	014d782b 	sltu	t7,t2,t5
9d00b520:	01e27825 	or	t7,t7,v0
9d00b524:	11e00007 	beqz	t7,9d00b544 <i5>
9d00b528:	014d5023 	subu	t2,t2,t5
9d00b52c:	3c018000 	lui	at,0x8000
9d00b530:	00a12826 	xor	a1,a1,at
9d00b534:	0009782b 	sltu	t7,zero,t1
9d00b538:	00094823 	negu	t1,t1
9d00b53c:	000a5023 	negu	t2,t2
9d00b540:	014f5023 	subu	t2,t2,t7

9d00b544 <i5>:
9d00b544:	15400008 	bnez	t2,9d00b568 <L8>
9d00b548:	00000000 	nop
9d00b54c:	15200003 	bnez	t1,9d00b55c <L9>
9d00b550:	00000000 	nop
9d00b554:	1000000d 	b	9d00b58c <L10>
9d00b558:	240b0000 	li	t3,0

9d00b55c <L9>:
9d00b55c:	01205025 	move	t2,t1
9d00b560:	24090000 	li	t1,0
9d00b564:	256bffe0 	addiu	t3,t3,-32

9d00b568 <L8>:
9d00b568:	71484020 	clz	t0,t2
9d00b56c:	11000007 	beqz	t0,9d00b58c <L10>
9d00b570:	00000000 	nop
9d00b574:	01685823 	subu	t3,t3,t0
9d00b578:	00082022 	neg	a0,t0
9d00b57c:	00892006 	srlv	a0,t1,a0
9d00b580:	01094804 	sllv	t1,t1,t0
9d00b584:	010a5004 	sllv	t2,t2,t0
9d00b588:	01445025 	or	t2,t2,a0

9d00b58c <L10>:
9d00b58c:	01497825 	or	t7,t2,t1
9d00b590:	15e00002 	bnez	t7,9d00b59c <Bres>
9d00b594:	00000000 	nop
9d00b598:	24050000 	li	a1,0

9d00b59c <Bres>:
9d00b59c:	19600068 	blez	t3,9d00b740 <Bund>
9d00b5a0:	00000000 	nop

9d00b5a4 <Blab8>:
9d00b5a4:	25290400 	addiu	t1,t1,1024
9d00b5a8:	2d2f0400 	sltiu	t7,t1,1024
9d00b5ac:	014f5021 	addu	t2,t2,t7
9d00b5b0:	014f782b 	sltu	t7,t2,t7
9d00b5b4:	016f5821 	addu	t3,t3,t7
9d00b5b8:	00097ac2 	srl	t7,t1,0xb
9d00b5bc:	31ef0001 	andi	t7,t7,0x1
9d00b5c0:	012f4823 	subu	t1,t1,t7
9d00b5c4:	000922c2 	srl	a0,t1,0xb
9d00b5c8:	000a7d40 	sll	t7,t2,0x15
9d00b5cc:	008f2025 	or	a0,a0,t7
9d00b5d0:	000a7840 	sll	t7,t2,0x1
9d00b5d4:	000f7b02 	srl	t7,t7,0xc
9d00b5d8:	00af2825 	or	a1,a1,t7
9d00b5dc:	000b7d00 	sll	t7,t3,0x14
9d00b5e0:	00af2825 	or	a1,a1,t7

9d00b5e4 <BretA>:
9d00b5e4:	00041025 	or	v0,zero,a0
9d00b5e8:	00051825 	or	v1,zero,a1

9d00b5ec <B999>:
9d00b5ec:	03e00008 	jr	ra
9d00b5f0:	00000000 	nop

9d00b5f4 <BspecA>:
9d00b5f4:	0120782a 	slt	t7,t1,zero
9d00b5f8:	01294821 	addu	t1,t1,t1
9d00b5fc:	014a5021 	addu	t2,t2,t2
9d00b600:	15600023 	bnez	t3,9d00b690 <i7>
9d00b604:	014f5021 	addu	t2,t2,t7
9d00b608:	01497825 	or	t7,t2,t1
9d00b60c:	11e00014 	beqz	t7,9d00b660 <i8>
9d00b610:	00000000 	nop
9d00b614:	15400008 	bnez	t2,9d00b638 <L11>
9d00b618:	00000000 	nop
9d00b61c:	15200003 	bnez	t1,9d00b62c <L12>
9d00b620:	00000000 	nop
9d00b624:	1000ff67 	b	9d00b3c4 <Blab1>
9d00b628:	240b0000 	li	t3,0

9d00b62c <L12>:
9d00b62c:	01205025 	move	t2,t1
9d00b630:	24090000 	li	t1,0
9d00b634:	256bffe0 	addiu	t3,t3,-32

9d00b638 <L11>:
9d00b638:	71484020 	clz	t0,t2
9d00b63c:	1100ff61 	beqz	t0,9d00b3c4 <Blab1>
9d00b640:	00000000 	nop
9d00b644:	01685823 	subu	t3,t3,t0
9d00b648:	00082022 	neg	a0,t0
9d00b64c:	00892006 	srlv	a0,t1,a0
9d00b650:	01094804 	sllv	t1,t1,t0
9d00b654:	010a5004 	sllv	t2,t2,t0
9d00b658:	1000ff5a 	b	9d00b3c4 <Blab1>
9d00b65c:	01445025 	or	t2,t2,a0

9d00b660 <i8>:
9d00b660:	240107ff 	li	at,2047
9d00b664:	11c10015 	beq	t6,at,9d00b6bc <BspecB>
9d00b668:	00000000 	nop
9d00b66c:	00e74021 	addu	t0,a3,a3
9d00b670:	01067825 	or	t7,t0,a2
9d00b674:	15e00003 	bnez	t7,9d00b684 <BretB>
9d00b678:	00000000 	nop
9d00b67c:	04e0ffd9 	bltz	a3,9d00b5e4 <BretA>
9d00b680:	00000000 	nop

9d00b684 <BretB>:
9d00b684:	00061025 	or	v0,zero,a2
9d00b688:	1000ffd8 	b	9d00b5ec <B999>
9d00b68c:	00071825 	or	v1,zero,a3

9d00b690 <i7>:
9d00b690:	01497825 	or	t7,t2,t1
9d00b694:	15e00027 	bnez	t7,9d00b734 <Bnan>
9d00b698:	00000000 	nop
9d00b69c:	240107ff 	li	at,2047
9d00b6a0:	15c1ffd0 	bne	t6,at,9d00b5e4 <BretA>
9d00b6a4:	00000000 	nop
9d00b6a8:	00a77826 	xor	t7,a1,a3
9d00b6ac:	05e00021 	bltz	t7,9d00b734 <Bnan>
9d00b6b0:	00000000 	nop
9d00b6b4:	1000fff3 	b	9d00b684 <BretB>
9d00b6b8:	00000000 	nop

9d00b6bc <BspecB>:
9d00b6bc:	0180782a 	slt	t7,t4,zero
9d00b6c0:	018c6021 	addu	t4,t4,t4
9d00b6c4:	01ad6821 	addu	t5,t5,t5
9d00b6c8:	15c00017 	bnez	t6,9d00b728 <i11>
9d00b6cc:	01af6821 	addu	t5,t5,t7
9d00b6d0:	01ac7825 	or	t7,t5,t4
9d00b6d4:	11e0ffc3 	beqz	t7,9d00b5e4 <BretA>
9d00b6d8:	00000000 	nop
9d00b6dc:	15a00008 	bnez	t5,9d00b700 <L14>
9d00b6e0:	00000000 	nop
9d00b6e4:	15800003 	bnez	t4,9d00b6f4 <L15>
9d00b6e8:	00000000 	nop
9d00b6ec:	1000ff39 	b	9d00b3d4 <Blab2>
9d00b6f0:	240e0000 	li	t6,0

9d00b6f4 <L15>:
9d00b6f4:	01806825 	move	t5,t4
9d00b6f8:	240c0000 	li	t4,0
9d00b6fc:	25ceffe0 	addiu	t6,t6,-32

9d00b700 <L14>:
9d00b700:	71a84020 	clz	t0,t5
9d00b704:	1100ff33 	beqz	t0,9d00b3d4 <Blab2>
9d00b708:	00000000 	nop
9d00b70c:	01c87023 	subu	t6,t6,t0
9d00b710:	00082022 	neg	a0,t0
9d00b714:	008c2006 	srlv	a0,t4,a0
9d00b718:	010c6004 	sllv	t4,t4,t0
9d00b71c:	010d6804 	sllv	t5,t5,t0
9d00b720:	1000ff2c 	b	9d00b3d4 <Blab2>
9d00b724:	01a46825 	or	t5,t5,a0

9d00b728 <i11>:
9d00b728:	01ac7825 	or	t7,t5,t4
9d00b72c:	11e0ffd5 	beqz	t7,9d00b684 <BretB>
9d00b730:	00000000 	nop

9d00b734 <Bnan>:
9d00b734:	3c05fff8 	lui	a1,0xfff8
9d00b738:	1000ffaa 	b	9d00b5e4 <BretA>
9d00b73c:	24040000 	li	a0,0

9d00b740 <Bund>:
9d00b740:	24080001 	li	t0,1
9d00b744:	010b4023 	subu	t0,t0,t3

9d00b748 <L17>:
9d00b748:	2d010020 	sltiu	at,t0,32
9d00b74c:	14200007 	bnez	at,9d00b76c <L18>
9d00b750:	00000000 	nop
9d00b754:	2108ffe0 	addi	t0,t0,-32
9d00b758:	0009302b 	sltu	a2,zero,t1
9d00b75c:	100a000d 	beq	zero,t2,9d00b794 <L19>
9d00b760:	01464825 	or	t1,t2,a2
9d00b764:	1000fff8 	b	9d00b748 <L17>
9d00b768:	340a0000 	li	t2,0x0

9d00b76c <L18>:
9d00b76c:	11000009 	beqz	t0,9d00b794 <L19>
9d00b770:	00000000 	nop
9d00b774:	00082022 	neg	a0,t0
9d00b778:	00893004 	sllv	a2,t1,a0
9d00b77c:	008a2004 	sllv	a0,t2,a0
9d00b780:	01094806 	srlv	t1,t1,t0
9d00b784:	010a5006 	srlv	t2,t2,t0
9d00b788:	10c00002 	beqz	a2,9d00b794 <L19>
9d00b78c:	00894825 	or	t1,a0,t1
9d00b790:	35290002 	ori	t1,t1,0x2

9d00b794 <L19>:
9d00b794:	1000ff83 	b	9d00b5a4 <Blab8>
9d00b798:	240b0000 	li	t3,0
9d00b79c:	00000000 	nop

Disassembly of section .text.__scan_fp:

9d00b7a0 <__scan_fp>:
9d00b7a0:	27bdffb0 	addiu	sp,sp,-80
9d00b7a4:	afb60040 	sw	s6,64(sp)
9d00b7a8:	afb00028 	sw	s0,40(sp)
9d00b7ac:	00e0b025 	move	s6,a3
9d00b7b0:	8cd00010 	lw	s0,16(a2)
9d00b7b4:	afb70044 	sw	s7,68(sp)
9d00b7b8:	afb5003c 	sw	s5,60(sp)
9d00b7bc:	afb40038 	sw	s4,56(sp)
9d00b7c0:	afb30034 	sw	s3,52(sp)
9d00b7c4:	afb20030 	sw	s2,48(sp)
9d00b7c8:	afb1002c 	sw	s1,44(sp)
9d00b7cc:	00809825 	move	s3,a0
9d00b7d0:	8cd10008 	lw	s1,8(a2)
9d00b7d4:	8cd4000c 	lw	s4,12(a2)
9d00b7d8:	afbf004c 	sw	ra,76(sp)
9d00b7dc:	afbe0048 	sw	s8,72(sp)
9d00b7e0:	0f403c62 	jal	9d00f188 <__skipws>
9d00b7e4:	afa50054 	sw	a1,84(sp)
9d00b7e8:	8ec40000 	lw	a0,0(s6)
9d00b7ec:	2603ffff 	addiu	v1,s0,-1
9d00b7f0:	0071880a 	movz	s1,v1,s1
9d00b7f4:	00821021 	addu	v0,a0,v0
9d00b7f8:	aec20000 	sw	v0,0(s6)
9d00b7fc:	0071102a 	slt	v0,v1,s1
9d00b800:	0222180a 	movz	v1,s1,v0
9d00b804:	afa30024 	sw	v1,36(sp)
9d00b808:	02808825 	move	s1,s4
9d00b80c:	24170001 	li	s7,1
9d00b810:	00008025 	move	s0,zero
9d00b814:	afa0001c 	sw	zero,28(sp)
9d00b818:	00009025 	move	s2,zero
9d00b81c:	0000a825 	move	s5,zero
9d00b820:	afa00020 	sw	zero,32(sp)
9d00b824:	8fa20024 	lw	v0,36(sp)
9d00b828:	0202102a 	slt	v0,s0,v0
9d00b82c:	10400017 	beqz	v0,9d00b88c <__scan_fp+0xec>
9d00b830:	afb00018 	sw	s0,24(sp)
9d00b834:	8e62003c 	lw	v0,60(s3)
9d00b838:	8e63004c 	lw	v1,76(s3)
9d00b83c:	0043182b 	sltu	v1,v0,v1
9d00b840:	10600022 	beqz	v1,9d00b8cc <__scan_fp+0x12c>
9d00b844:	24430001 	addiu	v1,v0,1
9d00b848:	ae63003c 	sw	v1,60(s3)
9d00b84c:	905e0000 	lbu	s8,0(v0)
9d00b850:	27c2ffd5 	addiu	v0,s8,-43
9d00b854:	7c020844 	ins	v0,zero,0x1,0x1
9d00b858:	00521025 	or	v0,v0,s2
9d00b85c:	54400038 	bnezl	v0,9d00b940 <__scan_fp+0x1a0>
9d00b860:	8fa20020 	lw	v0,32(sp)
9d00b864:	5200002e 	beqzl	s0,9d00b920 <__scan_fp+0x180>
9d00b868:	a23e0000 	sb	s8,0(s1)
9d00b86c:	52b0002c 	beql	s5,s0,9d00b920 <__scan_fp+0x180>
9d00b870:	a23e0000 	sb	s8,0(s1)
9d00b874:	8e62004c 	lw	v0,76(s3)
9d00b878:	10400005 	beqz	v0,9d00b890 <__scan_fp+0xf0>
9d00b87c:	8fa20018 	lw	v0,24(sp)
9d00b880:	8e62003c 	lw	v0,60(s3)
9d00b884:	2442ffff 	addiu	v0,v0,-1
9d00b888:	ae62003c 	sw	v0,60(s3)
9d00b88c:	8fa20018 	lw	v0,24(sp)
9d00b890:	02802025 	move	a0,s4
9d00b894:	27a50010 	addiu	a1,sp,16
9d00b898:	02829821 	addu	s3,s4,v0
9d00b89c:	0f4043d8 	jal	9d010f60 <strtold>
9d00b8a0:	a2600000 	sb	zero,0(s3)
9d00b8a4:	8fa40054 	lw	a0,84(sp)
9d00b8a8:	ac830004 	sw	v1,4(a0)
9d00b8ac:	8fa30010 	lw	v1,16(sp)
9d00b8b0:	ac820000 	sw	v0,0(a0)
9d00b8b4:	2402fffe 	li	v0,-2
9d00b8b8:	0074a026 	xor	s4,v1,s4
9d00b8bc:	24030001 	li	v1,1
9d00b8c0:	0054180a 	movz	v1,v0,s4
9d00b8c4:	10000009 	b	9d00b8ec <__scan_fp+0x14c>
9d00b8c8:	0060f025 	move	s8,v1
9d00b8cc:	0f403c35 	jal	9d00f0d4 <__shgetc>
9d00b8d0:	02602025 	move	a0,s3
9d00b8d4:	0040f025 	move	s8,v0
9d00b8d8:	2402ffff 	li	v0,-1
9d00b8dc:	17c2ffdc 	bne	s8,v0,9d00b850 <__scan_fp+0xb0>
9d00b8e0:	8fa20018 	lw	v0,24(sp)
9d00b8e4:	5440ffeb 	bnezl	v0,9d00b894 <__scan_fp+0xf4>
9d00b8e8:	02802025 	move	a0,s4
9d00b8ec:	8fbf004c 	lw	ra,76(sp)
9d00b8f0:	03c01025 	move	v0,s8
9d00b8f4:	8fb70044 	lw	s7,68(sp)
9d00b8f8:	8fbe0048 	lw	s8,72(sp)
9d00b8fc:	8fb60040 	lw	s6,64(sp)
9d00b900:	8fb5003c 	lw	s5,60(sp)
9d00b904:	8fb40038 	lw	s4,56(sp)
9d00b908:	8fb30034 	lw	s3,52(sp)
9d00b90c:	8fb20030 	lw	s2,48(sp)
9d00b910:	8fb1002c 	lw	s1,44(sp)
9d00b914:	8fb00028 	lw	s0,40(sp)
9d00b918:	03e00008 	jr	ra
9d00b91c:	27bd0050 	addiu	sp,sp,80
9d00b920:	8ec20000 	lw	v0,0(s6)
9d00b924:	24120001 	li	s2,1
9d00b928:	24420001 	addiu	v0,v0,1
9d00b92c:	aec20000 	sw	v0,0(s6)
9d00b930:	26100001 	addiu	s0,s0,1
9d00b934:	26f70001 	addiu	s7,s7,1
9d00b938:	1000ffba 	b	9d00b824 <__scan_fp+0x84>
9d00b93c:	26310001 	addiu	s1,s1,1
9d00b940:	1440000c 	bnez	v0,9d00b974 <__scan_fp+0x1d4>
9d00b944:	2402002e 	li	v0,46
9d00b948:	17c2000a 	bne	s8,v0,9d00b974 <__scan_fp+0x1d4>
9d00b94c:	00000000 	nop
9d00b950:	56a0ffc9 	bnezl	s5,9d00b878 <__scan_fp+0xd8>
9d00b954:	8e62004c 	lw	v0,76(s3)
9d00b958:	a23e0000 	sb	s8,0(s1)
9d00b95c:	8ec20000 	lw	v0,0(s6)
9d00b960:	24420001 	addiu	v0,v0,1
9d00b964:	aec20000 	sw	v0,0(s6)
9d00b968:	24020001 	li	v0,1
9d00b96c:	1000fff0 	b	9d00b930 <__scan_fp+0x190>
9d00b970:	afa20020 	sw	v0,32(sp)
9d00b974:	16a0004b 	bnez	s5,9d00baa4 <__scan_fp+0x304>
9d00b978:	8fa2001c 	lw	v0,28(sp)
9d00b97c:	1040000e 	beqz	v0,9d00b9b8 <__scan_fp+0x218>
9d00b980:	03c02025 	move	a0,s8
9d00b984:	0f4043e6 	jal	9d010f98 <tolower>
9d00b988:	00000000 	nop
9d00b98c:	38420070 	xori	v0,v0,0x70
9d00b990:	2c420001 	sltiu	v0,v0,1
9d00b994:	10400041 	beqz	v0,9d00ba9c <__scan_fp+0x2fc>
9d00b998:	26420001 	addiu	v0,s2,1
9d00b99c:	a23e0000 	sb	s8,0(s1)
9d00b9a0:	8ec20000 	lw	v0,0(s6)
9d00b9a4:	00009025 	move	s2,zero
9d00b9a8:	02e0a825 	move	s5,s7
9d00b9ac:	24420001 	addiu	v0,v0,1
9d00b9b0:	1000ffdf 	b	9d00b930 <__scan_fp+0x190>
9d00b9b4:	aec20000 	sw	v0,0(s6)
9d00b9b8:	0f4043e6 	jal	9d010f98 <tolower>
9d00b9bc:	00000000 	nop
9d00b9c0:	1000fff3 	b	9d00b990 <__scan_fp+0x1f0>
9d00b9c4:	38420065 	xori	v0,v0,0x65
9d00b9c8:	0f4043e6 	jal	9d010f98 <tolower>
9d00b9cc:	03c02025 	move	a0,s8
9d00b9d0:	24030078 	li	v1,120
9d00b9d4:	14430033 	bne	v0,v1,9d00baa4 <__scan_fp+0x304>
9d00b9d8:	24030030 	li	v1,48
9d00b9dc:	8222ffff 	lb	v0,-1(s1)
9d00b9e0:	14430031 	bne	v0,v1,9d00baa8 <__scan_fp+0x308>
9d00b9e4:	8fa2001c 	lw	v0,28(sp)
9d00b9e8:	a23e0000 	sb	s8,0(s1)
9d00b9ec:	8ec20000 	lw	v0,0(s6)
9d00b9f0:	24420001 	addiu	v0,v0,1
9d00b9f4:	aec20000 	sw	v0,0(s6)
9d00b9f8:	24020001 	li	v0,1
9d00b9fc:	1000ffcc 	b	9d00b930 <__scan_fp+0x190>
9d00ba00:	afa2001c 	sw	v0,28(sp)
9d00ba04:	2c42000a 	sltiu	v0,v0,10
9d00ba08:	1000002c 	b	9d00babc <__scan_fp+0x31c>
9d00ba0c:	38420001 	xori	v0,v0,0x1
9d00ba10:	0f403c35 	jal	9d00f0d4 <__shgetc>
9d00ba14:	02602025 	move	a0,s3
9d00ba18:	0040b825 	move	s7,v0
9d00ba1c:	2402ffff 	li	v0,-1
9d00ba20:	52e2ff9b 	beql	s7,v0,9d00b890 <__scan_fp+0xf0>
9d00ba24:	8fa20018 	lw	v0,24(sp)
9d00ba28:	10000043 	b	9d00bb38 <__scan_fp+0x398>
9d00ba2c:	02e02025 	move	a0,s7
9d00ba30:	0f4043e6 	jal	9d010f98 <tolower>
9d00ba34:	00000000 	nop
9d00ba38:	00122080 	sll	a0,s2,0x2
9d00ba3c:	27a30010 	addiu	v1,sp,16
9d00ba40:	00642021 	addu	a0,v1,a0
9d00ba44:	8c840000 	lw	a0,0(a0)
9d00ba48:	00952021 	addu	a0,a0,s5
9d00ba4c:	80840000 	lb	a0,0(a0)
9d00ba50:	54440044 	bnel	v0,a0,9d00bb64 <__scan_fp+0x3c4>
9d00ba54:	023e882a 	slt	s1,s1,s8
9d00ba58:	029e1821 	addu	v1,s4,s8
9d00ba5c:	26b50001 	addiu	s5,s5,1
9d00ba60:	24020003 	li	v0,3
9d00ba64:	16a2002a 	bne	s5,v0,9d00bb10 <__scan_fp+0x370>
9d00ba68:	a0770000 	sb	s7,0(v1)
9d00ba6c:	26020003 	addiu	v0,s0,3
9d00ba70:	afa20018 	sw	v0,24(sp)
9d00ba74:	8ec20000 	lw	v0,0(s6)
9d00ba78:	24420003 	addiu	v0,v0,3
9d00ba7c:	1000ff83 	b	9d00b88c <__scan_fp+0xec>
9d00ba80:	aec20000 	sw	v0,0(s6)
9d00ba84:	1000fff4 	b	9d00ba58 <__scan_fp+0x2b8>
9d00ba88:	00009025 	move	s2,zero
9d00ba8c:	8ec20000 	lw	v0,0(s6)
9d00ba90:	24420001 	addiu	v0,v0,1
9d00ba94:	1000ffa6 	b	9d00b930 <__scan_fp+0x190>
9d00ba98:	aec20000 	sw	v0,0(s6)
9d00ba9c:	1050ffca 	beq	v0,s0,9d00b9c8 <__scan_fp+0x228>
9d00baa0:	00000000 	nop
9d00baa4:	8fa2001c 	lw	v0,28(sp)
9d00baa8:	1040ffd6 	beqz	v0,9d00ba04 <__scan_fp+0x264>
9d00baac:	27c2ffd0 	addiu	v0,s8,-48
9d00bab0:	0f4043a9 	jal	9d010ea4 <isxdigit>
9d00bab4:	03c02025 	move	a0,s8
9d00bab8:	2c420001 	sltiu	v0,v0,1
9d00babc:	5040fff3 	beqzl	v0,9d00ba8c <__scan_fp+0x2ec>
9d00bac0:	a23e0000 	sb	s8,0(s1)
9d00bac4:	8e62004c 	lw	v0,76(s3)
9d00bac8:	10400004 	beqz	v0,9d00badc <__scan_fp+0x33c>
9d00bacc:	00000000 	nop
9d00bad0:	8e62003c 	lw	v0,60(s3)
9d00bad4:	2442ffff 	addiu	v0,v0,-1
9d00bad8:	ae62003c 	sw	v0,60(s3)
9d00badc:	1612ff6b 	bne	s0,s2,9d00b88c <__scan_fp+0xec>
9d00bae0:	3c029d00 	lui	v0,0x9d00
9d00bae4:	244274c8 	addiu	v0,v0,29896
9d00bae8:	afa20010 	sw	v0,16(sp)
9d00baec:	8fa20024 	lw	v0,36(sp)
9d00baf0:	26110002 	addiu	s1,s0,2
9d00baf4:	0222102a 	slt	v0,s1,v0
9d00baf8:	1040ff64 	beqz	v0,9d00b88c <__scan_fp+0xec>
9d00bafc:	3c029d00 	lui	v0,0x9d00
9d00bb00:	244274cc 	addiu	v0,v0,29900
9d00bb04:	afa20014 	sw	v0,20(sp)
9d00bb08:	0000a825 	move	s5,zero
9d00bb0c:	2412ffff 	li	s2,-1
9d00bb10:	8e62003c 	lw	v0,60(s3)
9d00bb14:	8e64004c 	lw	a0,76(s3)
9d00bb18:	0044202b 	sltu	a0,v0,a0
9d00bb1c:	1080ffbc 	beqz	a0,9d00ba10 <__scan_fp+0x270>
9d00bb20:	02b0f021 	addu	s8,s5,s0
9d00bb24:	24440001 	addiu	a0,v0,1
9d00bb28:	ae64003c 	sw	a0,60(s3)
9d00bb2c:	90570000 	lbu	s7,0(v0)
9d00bb30:	2402ffff 	li	v0,-1
9d00bb34:	02e02025 	move	a0,s7
9d00bb38:	1642ffbd 	bne	s2,v0,9d00ba30 <__scan_fp+0x290>
9d00bb3c:	00000000 	nop
9d00bb40:	0f4043e6 	jal	9d010f98 <tolower>
9d00bb44:	00000000 	nop
9d00bb48:	0040b825 	move	s7,v0
9d00bb4c:	24020069 	li	v0,105
9d00bb50:	12e2ffcc 	beq	s7,v0,9d00ba84 <__scan_fp+0x2e4>
9d00bb54:	2402006e 	li	v0,110
9d00bb58:	52e2ffbf 	beql	s7,v0,9d00ba58 <__scan_fp+0x2b8>
9d00bb5c:	24120001 	li	s2,1
9d00bb60:	023e882a 	slt	s1,s1,s8
9d00bb64:	1620ffc2 	bnez	s1,9d00ba70 <__scan_fp+0x2d0>
9d00bb68:	26020003 	addiu	v0,s0,3
9d00bb6c:	27deffff 	addiu	s8,s8,-1
9d00bb70:	03d0102a 	slt	v0,s8,s0
9d00bb74:	1440ff46 	bnez	v0,9d00b890 <__scan_fp+0xf0>
9d00bb78:	8fa20018 	lw	v0,24(sp)
9d00bb7c:	8e62004c 	lw	v0,76(s3)
9d00bb80:	5040fffb 	beqzl	v0,9d00bb70 <__scan_fp+0x3d0>
9d00bb84:	27deffff 	addiu	s8,s8,-1
9d00bb88:	8e62003c 	lw	v0,60(s3)
9d00bb8c:	2442ffff 	addiu	v0,v0,-1
9d00bb90:	1000fff6 	b	9d00bb6c <__scan_fp+0x3cc>
9d00bb94:	ae62003c 	sw	v0,60(s3)

Disassembly of section .text:

9d00bb98 <__udivdi3>:
9d00bb98:	00c04025 	move	t0,a2
9d00bb9c:	00e01825 	move	v1,a3
9d00bba0:	00805025 	move	t2,a0
9d00bba4:	14e00098 	bnez	a3,9d00be08 <__udivdi3+0x270>
9d00bba8:	00a01025 	move	v0,a1
9d00bbac:	00a6302b 	sltu	a2,a1,a2
9d00bbb0:	10c00035 	beqz	a2,9d00bc88 <__udivdi3+0xf0>
9d00bbb4:	00000000 	nop
9d00bbb8:	71052820 	clz	a1,t0
9d00bbbc:	10a00006 	beqz	a1,9d00bbd8 <__udivdi3+0x40>
9d00bbc0:	00052023 	negu	a0,a1
9d00bbc4:	008a2006 	srlv	a0,t2,a0
9d00bbc8:	00a21004 	sllv	v0,v0,a1
9d00bbcc:	00a84004 	sllv	t0,t0,a1
9d00bbd0:	00821025 	or	v0,a0,v0
9d00bbd4:	00aa5004 	sllv	t2,t2,a1
9d00bbd8:	00083402 	srl	a2,t0,0x10
9d00bbdc:	0046001b 	divu	zero,v0,a2
9d00bbe0:	00c001f4 	teq	a2,zero,0x7
9d00bbe4:	3105ffff 	andi	a1,t0,0xffff
9d00bbe8:	000a2402 	srl	a0,t2,0x10
9d00bbec:	00003812 	mflo	a3
9d00bbf0:	00001010 	mfhi	v0
9d00bbf4:	00021400 	sll	v0,v0,0x10
9d00bbf8:	00442025 	or	a0,v0,a0
9d00bbfc:	70a74802 	mul	t1,a1,a3
9d00bc00:	0089582b 	sltu	t3,a0,t1
9d00bc04:	1160000a 	beqz	t3,9d00bc30 <__udivdi3+0x98>
9d00bc08:	00e01025 	move	v0,a3
9d00bc0c:	00882021 	addu	a0,a0,t0
9d00bc10:	0088582b 	sltu	t3,a0,t0
9d00bc14:	15600006 	bnez	t3,9d00bc30 <__udivdi3+0x98>
9d00bc18:	24e2ffff 	addiu	v0,a3,-1
9d00bc1c:	0089582b 	sltu	t3,a0,t1
9d00bc20:	51600004 	beqzl	t3,9d00bc34 <__udivdi3+0x9c>
9d00bc24:	00892023 	subu	a0,a0,t1
9d00bc28:	24e2fffe 	addiu	v0,a3,-2
9d00bc2c:	00882021 	addu	a0,a0,t0
9d00bc30:	00892023 	subu	a0,a0,t1
9d00bc34:	0086001b 	divu	zero,a0,a2
9d00bc38:	00c001f4 	teq	a2,zero,0x7
9d00bc3c:	00003010 	mfhi	a2
9d00bc40:	00063400 	sll	a2,a2,0x10
9d00bc44:	00002012 	mflo	a0
9d00bc48:	70a43802 	mul	a3,a1,a0
9d00bc4c:	3145ffff 	andi	a1,t2,0xffff
9d00bc50:	00c52825 	or	a1,a2,a1
9d00bc54:	00a7482b 	sltu	t1,a1,a3
9d00bc58:	11200008 	beqz	t1,9d00bc7c <__udivdi3+0xe4>
9d00bc5c:	00803025 	move	a2,a0
9d00bc60:	01052821 	addu	a1,t0,a1
9d00bc64:	00a8402b 	sltu	t0,a1,t0
9d00bc68:	15000004 	bnez	t0,9d00bc7c <__udivdi3+0xe4>
9d00bc6c:	2486ffff 	addiu	a2,a0,-1
9d00bc70:	00a7282b 	sltu	a1,a1,a3
9d00bc74:	54a00001 	bnezl	a1,9d00bc7c <__udivdi3+0xe4>
9d00bc78:	2486fffe 	addiu	a2,a0,-2
9d00bc7c:	00021400 	sll	v0,v0,0x10
9d00bc80:	03e00008 	jr	ra
9d00bc84:	00461025 	or	v0,v0,a2
9d00bc88:	15000004 	bnez	t0,9d00bc9c <__udivdi3+0x104>
9d00bc8c:	24020001 	li	v0,1
9d00bc90:	0048001b 	divu	zero,v0,t0
9d00bc94:	010001f4 	teq	t0,zero,0x7
9d00bc98:	00004012 	mflo	t0
9d00bc9c:	710b5820 	clz	t3,t0
9d00bca0:	15600023 	bnez	t3,9d00bd30 <__udivdi3+0x198>
9d00bca4:	24070020 	li	a3,32
9d00bca8:	00a82823 	subu	a1,a1,t0
9d00bcac:	24030001 	li	v1,1
9d00bcb0:	00083402 	srl	a2,t0,0x10
9d00bcb4:	00a6001b 	divu	zero,a1,a2
9d00bcb8:	00c001f4 	teq	a2,zero,0x7
9d00bcbc:	3107ffff 	andi	a3,t0,0xffff
9d00bcc0:	000a2402 	srl	a0,t2,0x10
9d00bcc4:	00002812 	mflo	a1
9d00bcc8:	00001010 	mfhi	v0
9d00bccc:	00021400 	sll	v0,v0,0x10
9d00bcd0:	00442025 	or	a0,v0,a0
9d00bcd4:	70e54802 	mul	t1,a3,a1
9d00bcd8:	0089582b 	sltu	t3,a0,t1
9d00bcdc:	1160000a 	beqz	t3,9d00bd08 <__udivdi3+0x170>
9d00bce0:	00a01025 	move	v0,a1
9d00bce4:	00882021 	addu	a0,a0,t0
9d00bce8:	0088582b 	sltu	t3,a0,t0
9d00bcec:	15600006 	bnez	t3,9d00bd08 <__udivdi3+0x170>
9d00bcf0:	24a2ffff 	addiu	v0,a1,-1
9d00bcf4:	0089582b 	sltu	t3,a0,t1
9d00bcf8:	51600004 	beqzl	t3,9d00bd0c <__udivdi3+0x174>
9d00bcfc:	00892023 	subu	a0,a0,t1
9d00bd00:	24a2fffe 	addiu	v0,a1,-2
9d00bd04:	00882021 	addu	a0,a0,t0
9d00bd08:	00892023 	subu	a0,a0,t1
9d00bd0c:	0086001b 	divu	zero,a0,a2
9d00bd10:	00c001f4 	teq	a2,zero,0x7
9d00bd14:	314affff 	andi	t2,t2,0xffff
9d00bd18:	00002810 	mfhi	a1
9d00bd1c:	00052c00 	sll	a1,a1,0x10
9d00bd20:	00aa2825 	or	a1,a1,t2
9d00bd24:	00002012 	mflo	a0
9d00bd28:	1000ffca 	b	9d00bc54 <__udivdi3+0xbc>
9d00bd2c:	70e43802 	mul	a3,a3,a0
9d00bd30:	00eb3823 	subu	a3,a3,t3
9d00bd34:	01684004 	sllv	t0,t0,t3
9d00bd38:	00e44806 	srlv	t1,a0,a3
9d00bd3c:	00083402 	srl	a2,t0,0x10
9d00bd40:	00e53806 	srlv	a3,a1,a3
9d00bd44:	00e6001b 	divu	zero,a3,a2
9d00bd48:	00c001f4 	teq	a2,zero,0x7
9d00bd4c:	01651004 	sllv	v0,a1,t3
9d00bd50:	01224825 	or	t1,t1,v0
9d00bd54:	3102ffff 	andi	v0,t0,0xffff
9d00bd58:	00091c02 	srl	v1,t1,0x10
9d00bd5c:	00002812 	mflo	a1
9d00bd60:	00003810 	mfhi	a3
9d00bd64:	00073c00 	sll	a3,a3,0x10
9d00bd68:	00e33825 	or	a3,a3,v1
9d00bd6c:	70455002 	mul	t2,v0,a1
9d00bd70:	00ea602b 	sltu	t4,a3,t2
9d00bd74:	1180000a 	beqz	t4,9d00bda0 <__udivdi3+0x208>
9d00bd78:	00a01825 	move	v1,a1
9d00bd7c:	00e83821 	addu	a3,a3,t0
9d00bd80:	00e8602b 	sltu	t4,a3,t0
9d00bd84:	15800006 	bnez	t4,9d00bda0 <__udivdi3+0x208>
9d00bd88:	24a3ffff 	addiu	v1,a1,-1
9d00bd8c:	00ea602b 	sltu	t4,a3,t2
9d00bd90:	51800004 	beqzl	t4,9d00bda4 <__udivdi3+0x20c>
9d00bd94:	00ea3823 	subu	a3,a3,t2
9d00bd98:	24a3fffe 	addiu	v1,a1,-2
9d00bd9c:	00e83821 	addu	a3,a3,t0
9d00bda0:	00ea3823 	subu	a3,a3,t2
9d00bda4:	00e6001b 	divu	zero,a3,a2
9d00bda8:	00c001f4 	teq	a2,zero,0x7
9d00bdac:	3125ffff 	andi	a1,t1,0xffff
9d00bdb0:	00003012 	mflo	a2
9d00bdb4:	00003810 	mfhi	a3
9d00bdb8:	00073c00 	sll	a3,a3,0x10
9d00bdbc:	00e52825 	or	a1,a3,a1
9d00bdc0:	70461002 	mul	v0,v0,a2
9d00bdc4:	00a2482b 	sltu	t1,a1,v0
9d00bdc8:	1120000a 	beqz	t1,9d00bdf4 <__udivdi3+0x25c>
9d00bdcc:	00c03825 	move	a3,a2
9d00bdd0:	00a82821 	addu	a1,a1,t0
9d00bdd4:	00a8482b 	sltu	t1,a1,t0
9d00bdd8:	15200006 	bnez	t1,9d00bdf4 <__udivdi3+0x25c>
9d00bddc:	24c7ffff 	addiu	a3,a2,-1
9d00bde0:	00a2482b 	sltu	t1,a1,v0
9d00bde4:	51200004 	beqzl	t1,9d00bdf8 <__udivdi3+0x260>
9d00bde8:	00031c00 	sll	v1,v1,0x10
9d00bdec:	24c7fffe 	addiu	a3,a2,-2
9d00bdf0:	00a82821 	addu	a1,a1,t0
9d00bdf4:	00031c00 	sll	v1,v1,0x10
9d00bdf8:	01645004 	sllv	t2,a0,t3
9d00bdfc:	00a22823 	subu	a1,a1,v0
9d00be00:	1000ffab 	b	9d00bcb0 <__udivdi3+0x118>
9d00be04:	00671825 	or	v1,v1,a3
9d00be08:	00a7402b 	sltu	t0,a1,a3
9d00be0c:	00001825 	move	v1,zero
9d00be10:	1500004e 	bnez	t0,9d00bf4c <__udivdi3+0x3b4>
9d00be14:	00001025 	move	v0,zero
9d00be18:	70ea5020 	clz	t2,a3
9d00be1c:	15400007 	bnez	t2,9d00be3c <__udivdi3+0x2a4>
9d00be20:	24090020 	li	t1,32
9d00be24:	00e5282b 	sltu	a1,a3,a1
9d00be28:	14a00048 	bnez	a1,9d00bf4c <__udivdi3+0x3b4>
9d00be2c:	24020001 	li	v0,1
9d00be30:	0086102b 	sltu	v0,a0,a2
9d00be34:	03e00008 	jr	ra
9d00be38:	38420001 	xori	v0,v0,0x1
9d00be3c:	012a4823 	subu	t1,t1,t2
9d00be40:	01261006 	srlv	v0,a2,t1
9d00be44:	01473804 	sllv	a3,a3,t2
9d00be48:	00473825 	or	a3,v0,a3
9d00be4c:	01451804 	sllv	v1,a1,t2
9d00be50:	00074402 	srl	t0,a3,0x10
9d00be54:	01252806 	srlv	a1,a1,t1
9d00be58:	00a8001b 	divu	zero,a1,t0
9d00be5c:	010001f4 	teq	t0,zero,0x7
9d00be60:	30ebffff 	andi	t3,a3,0xffff
9d00be64:	01241006 	srlv	v0,a0,t1
9d00be68:	00431025 	or	v0,v0,v1
9d00be6c:	00021c02 	srl	v1,v0,0x10
9d00be70:	00002812 	mflo	a1
9d00be74:	00004810 	mfhi	t1
9d00be78:	00094c00 	sll	t1,t1,0x10
9d00be7c:	01234825 	or	t1,t1,v1
9d00be80:	71656002 	mul	t4,t3,a1
9d00be84:	012c682b 	sltu	t5,t1,t4
9d00be88:	11a0000a 	beqz	t5,9d00beb4 <__udivdi3+0x31c>
9d00be8c:	00a01825 	move	v1,a1
9d00be90:	01274821 	addu	t1,t1,a3
9d00be94:	0127682b 	sltu	t5,t1,a3
9d00be98:	15a00006 	bnez	t5,9d00beb4 <__udivdi3+0x31c>
9d00be9c:	24a3ffff 	addiu	v1,a1,-1
9d00bea0:	012c682b 	sltu	t5,t1,t4
9d00bea4:	51a00004 	beqzl	t5,9d00beb8 <__udivdi3+0x320>
9d00bea8:	012c4823 	subu	t1,t1,t4
9d00beac:	24a3fffe 	addiu	v1,a1,-2
9d00beb0:	01274821 	addu	t1,t1,a3
9d00beb4:	012c4823 	subu	t1,t1,t4
9d00beb8:	0128001b 	divu	zero,t1,t0
9d00bebc:	010001f4 	teq	t0,zero,0x7
9d00bec0:	3045ffff 	andi	a1,v0,0xffff
9d00bec4:	00004012 	mflo	t0
9d00bec8:	00004810 	mfhi	t1
9d00becc:	00094c00 	sll	t1,t1,0x10
9d00bed0:	01252825 	or	a1,t1,a1
9d00bed4:	71685802 	mul	t3,t3,t0
9d00bed8:	00ab102b 	sltu	v0,a1,t3
9d00bedc:	1040000a 	beqz	v0,9d00bf08 <__udivdi3+0x370>
9d00bee0:	01004825 	move	t1,t0
9d00bee4:	00a72821 	addu	a1,a1,a3
9d00bee8:	00a7102b 	sltu	v0,a1,a3
9d00beec:	14400006 	bnez	v0,9d00bf08 <__udivdi3+0x370>
9d00bef0:	2509ffff 	addiu	t1,t0,-1
9d00bef4:	00ab102b 	sltu	v0,a1,t3
9d00bef8:	10400004 	beqz	v0,9d00bf0c <__udivdi3+0x374>
9d00befc:	00031400 	sll	v0,v1,0x10
9d00bf00:	2509fffe 	addiu	t1,t0,-2
9d00bf04:	00a72821 	addu	a1,a1,a3
9d00bf08:	00031400 	sll	v0,v1,0x10
9d00bf0c:	01463004 	sllv	a2,a2,t2
9d00bf10:	00491025 	or	v0,v0,t1
9d00bf14:	00c20019 	multu	a2,v0
9d00bf18:	00ab2823 	subu	a1,a1,t3
9d00bf1c:	00003810 	mfhi	a3
9d00bf20:	00a7182b 	sltu	v1,a1,a3
9d00bf24:	14600007 	bnez	v1,9d00bf44 <__udivdi3+0x3ac>
9d00bf28:	00003012 	mflo	a2
9d00bf2c:	14a70007 	bne	a1,a3,9d00bf4c <__udivdi3+0x3b4>
9d00bf30:	00001825 	move	v1,zero
9d00bf34:	01442004 	sllv	a0,a0,t2
9d00bf38:	0086202b 	sltu	a0,a0,a2
9d00bf3c:	10800003 	beqz	a0,9d00bf4c <__udivdi3+0x3b4>
9d00bf40:	00000000 	nop
9d00bf44:	2442ffff 	addiu	v0,v0,-1
9d00bf48:	00001825 	move	v1,zero
9d00bf4c:	03e00008 	jr	ra
9d00bf50:	00000000 	nop

9d00bf54 <__umoddi3>:
9d00bf54:	00c04825 	move	t1,a2
9d00bf58:	00801025 	move	v0,a0
9d00bf5c:	14e0008b 	bnez	a3,9d00c18c <__umoddi3+0x238>
9d00bf60:	00a01825 	move	v1,a1
9d00bf64:	00a6302b 	sltu	a2,a1,a2
9d00bf68:	10c00033 	beqz	a2,9d00c038 <__umoddi3+0xe4>
9d00bf6c:	712a5020 	clz	t2,t1
9d00bf70:	11400008 	beqz	t2,9d00bf94 <__umoddi3+0x40>
9d00bf74:	00095c02 	srl	t3,t1,0x10
9d00bf78:	01451804 	sllv	v1,a1,t2
9d00bf7c:	000a2823 	negu	a1,t2
9d00bf80:	00a42806 	srlv	a1,a0,a1
9d00bf84:	01494804 	sllv	t1,t1,t2
9d00bf88:	00a31825 	or	v1,a1,v1
9d00bf8c:	01441004 	sllv	v0,a0,t2
9d00bf90:	00095c02 	srl	t3,t1,0x10
9d00bf94:	006b001b 	divu	zero,v1,t3
9d00bf98:	016001f4 	teq	t3,zero,0x7
9d00bf9c:	3124ffff 	andi	a0,t1,0xffff
9d00bfa0:	00001812 	mflo	v1
9d00bfa4:	00002810 	mfhi	a1
9d00bfa8:	70643002 	mul	a2,v1,a0
9d00bfac:	00051c00 	sll	v1,a1,0x10
9d00bfb0:	00022c02 	srl	a1,v0,0x10
9d00bfb4:	00651825 	or	v1,v1,a1
9d00bfb8:	0066282b 	sltu	a1,v1,a2
9d00bfbc:	50a00008 	beqzl	a1,9d00bfe0 <__umoddi3+0x8c>
9d00bfc0:	00661823 	subu	v1,v1,a2
9d00bfc4:	00691821 	addu	v1,v1,t1
9d00bfc8:	0069282b 	sltu	a1,v1,t1
9d00bfcc:	14a00003 	bnez	a1,9d00bfdc <__umoddi3+0x88>
9d00bfd0:	0066282b 	sltu	a1,v1,a2
9d00bfd4:	54a00001 	bnezl	a1,9d00bfdc <__umoddi3+0x88>
9d00bfd8:	00691821 	addu	v1,v1,t1
9d00bfdc:	00661823 	subu	v1,v1,a2
9d00bfe0:	006b001b 	divu	zero,v1,t3
9d00bfe4:	016001f4 	teq	t3,zero,0x7
9d00bfe8:	3042ffff 	andi	v0,v0,0xffff
9d00bfec:	00003010 	mfhi	a2
9d00bff0:	00001812 	mflo	v1
9d00bff4:	70645802 	mul	t3,v1,a0
9d00bff8:	00061c00 	sll	v1,a2,0x10
9d00bffc:	00621025 	or	v0,v1,v0
9d00c000:	004b182b 	sltu	v1,v0,t3
9d00c004:	50600009 	beqzl	v1,9d00c02c <__umoddi3+0xd8>
9d00c008:	004b1023 	subu	v0,v0,t3
9d00c00c:	00491021 	addu	v0,v0,t1
9d00c010:	0049182b 	sltu	v1,v0,t1
9d00c014:	54600005 	bnezl	v1,9d00c02c <__umoddi3+0xd8>
9d00c018:	004b1023 	subu	v0,v0,t3
9d00c01c:	004b182b 	sltu	v1,v0,t3
9d00c020:	54600001 	bnezl	v1,9d00c028 <__umoddi3+0xd4>
9d00c024:	00491021 	addu	v0,v0,t1
9d00c028:	004b1023 	subu	v0,v0,t3
9d00c02c:	01421006 	srlv	v0,v0,t2
9d00c030:	03e00008 	jr	ra
9d00c034:	00001825 	move	v1,zero
9d00c038:	15200004 	bnez	t1,9d00c04c <__umoddi3+0xf8>
9d00c03c:	24030001 	li	v1,1
9d00c040:	0069001b 	divu	zero,v1,t1
9d00c044:	012001f4 	teq	t1,zero,0x7
9d00c048:	00004812 	mflo	t1
9d00c04c:	712a5020 	clz	t2,t1
9d00c050:	1540001f 	bnez	t2,9d00c0d0 <__umoddi3+0x17c>
9d00c054:	24070020 	li	a3,32
9d00c058:	00a92823 	subu	a1,a1,t1
9d00c05c:	00095c02 	srl	t3,t1,0x10
9d00c060:	00ab001b 	divu	zero,a1,t3
9d00c064:	016001f4 	teq	t3,zero,0x7
9d00c068:	3124ffff 	andi	a0,t1,0xffff
9d00c06c:	00002812 	mflo	a1
9d00c070:	00001810 	mfhi	v1
9d00c074:	70a43002 	mul	a2,a1,a0
9d00c078:	00032c00 	sll	a1,v1,0x10
9d00c07c:	00021c02 	srl	v1,v0,0x10
9d00c080:	00a32825 	or	a1,a1,v1
9d00c084:	00a6182b 	sltu	v1,a1,a2
9d00c088:	50600008 	beqzl	v1,9d00c0ac <__umoddi3+0x158>
9d00c08c:	00a63023 	subu	a2,a1,a2
9d00c090:	00a92821 	addu	a1,a1,t1
9d00c094:	00a9182b 	sltu	v1,a1,t1
9d00c098:	14600003 	bnez	v1,9d00c0a8 <__umoddi3+0x154>
9d00c09c:	00a6182b 	sltu	v1,a1,a2
9d00c0a0:	54600001 	bnezl	v1,9d00c0a8 <__umoddi3+0x154>
9d00c0a4:	00a92821 	addu	a1,a1,t1
9d00c0a8:	00a63023 	subu	a2,a1,a2
9d00c0ac:	00cb001b 	divu	zero,a2,t3
9d00c0b0:	016001f4 	teq	t3,zero,0x7
9d00c0b4:	3042ffff 	andi	v0,v0,0xffff
9d00c0b8:	00002810 	mfhi	a1
9d00c0bc:	00003012 	mflo	a2
9d00c0c0:	70c45802 	mul	t3,a2,a0
9d00c0c4:	00053400 	sll	a2,a1,0x10
9d00c0c8:	1000ffcd 	b	9d00c000 <__umoddi3+0xac>
9d00c0cc:	00c21025 	or	v0,a2,v0
9d00c0d0:	00ea3823 	subu	a3,a3,t2
9d00c0d4:	01494804 	sllv	t1,t1,t2
9d00c0d8:	00e41806 	srlv	v1,a0,a3
9d00c0dc:	00093402 	srl	a2,t1,0x10
9d00c0e0:	00e53806 	srlv	a3,a1,a3
9d00c0e4:	00e6001b 	divu	zero,a3,a2
9d00c0e8:	00c001f4 	teq	a2,zero,0x7
9d00c0ec:	01451004 	sllv	v0,a1,t2
9d00c0f0:	3128ffff 	andi	t0,t1,0xffff
9d00c0f4:	00621825 	or	v1,v1,v0
9d00c0f8:	00032c02 	srl	a1,v1,0x10
9d00c0fc:	00003812 	mflo	a3
9d00c100:	00006010 	mfhi	t4
9d00c104:	70e81002 	mul	v0,a3,t0
9d00c108:	000c3c00 	sll	a3,t4,0x10
9d00c10c:	00e53825 	or	a3,a3,a1
9d00c110:	00e2282b 	sltu	a1,a3,v0
9d00c114:	50a00008 	beqzl	a1,9d00c138 <__umoddi3+0x1e4>
9d00c118:	00e23823 	subu	a3,a3,v0
9d00c11c:	00e93821 	addu	a3,a3,t1
9d00c120:	00e9282b 	sltu	a1,a3,t1
9d00c124:	14a00003 	bnez	a1,9d00c134 <__umoddi3+0x1e0>
9d00c128:	00e2282b 	sltu	a1,a3,v0
9d00c12c:	54a00001 	bnezl	a1,9d00c134 <__umoddi3+0x1e0>
9d00c130:	00e93821 	addu	a3,a3,t1
9d00c134:	00e23823 	subu	a3,a3,v0
9d00c138:	00e6001b 	divu	zero,a3,a2
9d00c13c:	00c001f4 	teq	a2,zero,0x7
9d00c140:	3065ffff 	andi	a1,v1,0xffff
9d00c144:	00003012 	mflo	a2
9d00c148:	00003810 	mfhi	a3
9d00c14c:	00073c00 	sll	a3,a3,0x10
9d00c150:	00e52825 	or	a1,a3,a1
9d00c154:	70c83002 	mul	a2,a2,t0
9d00c158:	00a6102b 	sltu	v0,a1,a2
9d00c15c:	10400009 	beqz	v0,9d00c184 <__umoddi3+0x230>
9d00c160:	01441004 	sllv	v0,a0,t2
9d00c164:	00a92821 	addu	a1,a1,t1
9d00c168:	00a9102b 	sltu	v0,a1,t1
9d00c16c:	14400005 	bnez	v0,9d00c184 <__umoddi3+0x230>
9d00c170:	01441004 	sllv	v0,a0,t2
9d00c174:	00a6102b 	sltu	v0,a1,a2
9d00c178:	54400001 	bnezl	v0,9d00c180 <__umoddi3+0x22c>
9d00c17c:	00a92821 	addu	a1,a1,t1
9d00c180:	01441004 	sllv	v0,a0,t2
9d00c184:	1000ffb5 	b	9d00c05c <__umoddi3+0x108>
9d00c188:	00a62823 	subu	a1,a1,a2
9d00c18c:	00a7402b 	sltu	t0,a1,a3
9d00c190:	1500005c 	bnez	t0,9d00c304 <__umoddi3+0x3b0>
9d00c194:	70ee7020 	clz	t6,a3
9d00c198:	15c0000a 	bnez	t6,9d00c1c4 <__umoddi3+0x270>
9d00c19c:	00e5402b 	sltu	t0,a3,a1
9d00c1a0:	15000003 	bnez	t0,9d00c1b0 <__umoddi3+0x25c>
9d00c1a4:	0086402b 	sltu	t0,a0,a2
9d00c1a8:	15000056 	bnez	t0,9d00c304 <__umoddi3+0x3b0>
9d00c1ac:	00000000 	nop
9d00c1b0:	00861023 	subu	v0,a0,a2
9d00c1b4:	00a72823 	subu	a1,a1,a3
9d00c1b8:	0082182b 	sltu	v1,a0,v0
9d00c1bc:	03e00008 	jr	ra
9d00c1c0:	00a31823 	subu	v1,a1,v1
9d00c1c4:	240b0020 	li	t3,32
9d00c1c8:	016e5823 	subu	t3,t3,t6
9d00c1cc:	01666006 	srlv	t4,a2,t3
9d00c1d0:	01c73804 	sllv	a3,a3,t6
9d00c1d4:	01873825 	or	a3,t4,a3
9d00c1d8:	01c54004 	sllv	t0,a1,t6
9d00c1dc:	00074c02 	srl	t1,a3,0x10
9d00c1e0:	01652806 	srlv	a1,a1,t3
9d00c1e4:	00a9001b 	divu	zero,a1,t1
9d00c1e8:	012001f4 	teq	t1,zero,0x7
9d00c1ec:	01641006 	srlv	v0,a0,t3
9d00c1f0:	00481025 	or	v0,v0,t0
9d00c1f4:	30e8ffff 	andi	t0,a3,0xffff
9d00c1f8:	00026402 	srl	t4,v0,0x10
9d00c1fc:	00002812 	mflo	a1
9d00c200:	00005010 	mfhi	t2
9d00c204:	000a5400 	sll	t2,t2,0x10
9d00c208:	014c5025 	or	t2,t2,t4
9d00c20c:	71051802 	mul	v1,t0,a1
9d00c210:	0143602b 	sltu	t4,t2,v1
9d00c214:	1180000a 	beqz	t4,9d00c240 <__umoddi3+0x2ec>
9d00c218:	00a06825 	move	t5,a1
9d00c21c:	01475021 	addu	t2,t2,a3
9d00c220:	0147602b 	sltu	t4,t2,a3
9d00c224:	15800006 	bnez	t4,9d00c240 <__umoddi3+0x2ec>
9d00c228:	24adffff 	addiu	t5,a1,-1
9d00c22c:	0143602b 	sltu	t4,t2,v1
9d00c230:	51800004 	beqzl	t4,9d00c244 <__umoddi3+0x2f0>
9d00c234:	01435023 	subu	t2,t2,v1
9d00c238:	24adfffe 	addiu	t5,a1,-2
9d00c23c:	01475021 	addu	t2,t2,a3
9d00c240:	01435023 	subu	t2,t2,v1
9d00c244:	0149001b 	divu	zero,t2,t1
9d00c248:	012001f4 	teq	t1,zero,0x7
9d00c24c:	00004812 	mflo	t1
9d00c250:	00005010 	mfhi	t2
9d00c254:	000a5400 	sll	t2,t2,0x10
9d00c258:	71092802 	mul	a1,t0,t1
9d00c25c:	3048ffff 	andi	t0,v0,0xffff
9d00c260:	01484025 	or	t0,t2,t0
9d00c264:	0105102b 	sltu	v0,t0,a1
9d00c268:	1040000a 	beqz	v0,9d00c294 <__umoddi3+0x340>
9d00c26c:	01205025 	move	t2,t1
9d00c270:	01074021 	addu	t0,t0,a3
9d00c274:	0107102b 	sltu	v0,t0,a3
9d00c278:	14400006 	bnez	v0,9d00c294 <__umoddi3+0x340>
9d00c27c:	252affff 	addiu	t2,t1,-1
9d00c280:	0105102b 	sltu	v0,t0,a1
9d00c284:	10400004 	beqz	v0,9d00c298 <__umoddi3+0x344>
9d00c288:	000d6400 	sll	t4,t5,0x10
9d00c28c:	252afffe 	addiu	t2,t1,-2
9d00c290:	01074021 	addu	t0,t0,a3
9d00c294:	000d6400 	sll	t4,t5,0x10
9d00c298:	01c61004 	sllv	v0,a2,t6
9d00c29c:	018a6025 	or	t4,t4,t2
9d00c2a0:	01820019 	multu	t4,v0
9d00c2a4:	01054023 	subu	t0,t0,a1
9d00c2a8:	01c41804 	sllv	v1,a0,t6
9d00c2ac:	00006810 	mfhi	t5
9d00c2b0:	010d202b 	sltu	a0,t0,t5
9d00c2b4:	01a02825 	move	a1,t5
9d00c2b8:	00006012 	mflo	t4
9d00c2bc:	14800005 	bnez	a0,9d00c2d4 <__umoddi3+0x380>
9d00c2c0:	00003012 	mflo	a2
9d00c2c4:	150d0007 	bne	t0,t5,9d00c2e4 <__umoddi3+0x390>
9d00c2c8:	006c202b 	sltu	a0,v1,t4
9d00c2cc:	10800006 	beqz	a0,9d00c2e8 <__umoddi3+0x394>
9d00c2d0:	00663023 	subu	a2,v1,a2
9d00c2d4:	01823023 	subu	a2,t4,v0
9d00c2d8:	01a73823 	subu	a3,t5,a3
9d00c2dc:	0186602b 	sltu	t4,t4,a2
9d00c2e0:	00ec2823 	subu	a1,a3,t4
9d00c2e4:	00663023 	subu	a2,v1,a2
9d00c2e8:	0066182b 	sltu	v1,v1,a2
9d00c2ec:	01054023 	subu	t0,t0,a1
9d00c2f0:	01031823 	subu	v1,t0,v1
9d00c2f4:	01631004 	sllv	v0,v1,t3
9d00c2f8:	01c63006 	srlv	a2,a2,t6
9d00c2fc:	00461025 	or	v0,v0,a2
9d00c300:	01c31806 	srlv	v1,v1,t6
9d00c304:	03e00008 	jr	ra
9d00c308:	00000000 	nop

Disassembly of section .text.dp32mul:

9d00c30c <__muldf3>:
9d00c30c:	00055040 000a5542 00054ac0 00047d42     @P..BU...J..B}..
9d00c31c:	012f4825 000442c0 3c0e8000 012e4825     %H/..B.....<%H..
9d00c32c:	00076840 000d6d42 000762c0 00067d42     @h..Bm...b..B}..
9d00c33c:	018f6025 00065ac0 018e6025 00a72826     %`...Z..%`..&(..
9d00c34c:	00ae2824 254fffff 2de107fe 10200047     $(....O%...-G. .
9d00c35c:	00000000                                ....

9d00c360 <Clab1>:
9d00c360:	25afffff 	addiu	t7,t5,-1
9d00c364:	2de107fe 	sltiu	at,t7,2046
9d00c368:	1020006f 	beqz	at,9d00c528 <CspecB>
9d00c36c:	00000000 	nop

9d00c370 <Clab2>:
9d00c370:	25affc02 	addiu	t7,t5,-1022
9d00c374:	014f5021 	addu	t2,t2,t7
9d00c378:	012c0019 	multu	t1,t4
9d00c37c:	00003812 	mflo	a3
9d00c380:	00007010 	mfhi	t6
9d00c384:	010b0019 	multu	t0,t3
9d00c388:	00002012 	mflo	a0
9d00c38c:	00003010 	mfhi	a2
9d00c390:	012b0019 	multu	t1,t3
9d00c394:	00005812 	mflo	t3
9d00c398:	00006810 	mfhi	t5
9d00c39c:	00cb3021 	addu	a2,a2,t3
9d00c3a0:	00cb782b 	sltu	t7,a2,t3
9d00c3a4:	00ed3821 	addu	a3,a3,t5
9d00c3a8:	00ef3821 	addu	a3,a3,t7
9d00c3ac:	10ed0002 	beq	a3,t5,9d00c3b8 <L20>
9d00c3b0:	00000000 	nop
9d00c3b4:	00ed782b 	sltu	t7,a3,t5

9d00c3b8 <L20>:
9d00c3b8:	01cf7021 	addu	t6,t6,t7
9d00c3bc:	010c0019 	multu	t0,t4
9d00c3c0:	00004012 	mflo	t0
9d00c3c4:	00004810 	mfhi	t1
9d00c3c8:	00c83021 	addu	a2,a2,t0
9d00c3cc:	00c8782b 	sltu	t7,a2,t0
9d00c3d0:	00e93821 	addu	a3,a3,t1
9d00c3d4:	00ef3821 	addu	a3,a3,t7
9d00c3d8:	10e90002 	beq	a3,t1,9d00c3e4 <L21>
9d00c3dc:	00000000 	nop
9d00c3e0:	00e9782b 	sltu	t7,a3,t1

9d00c3e4 <L21>:
9d00c3e4:	01cf7021 	addu	t6,t6,t7
9d00c3e8:	00867825 	or	t7,a0,a2
9d00c3ec:	11e00002 	beqz	t7,9d00c3f8 <i13>
9d00c3f0:	00000000 	nop
9d00c3f4:	34e70001 	ori	a3,a3,0x1

9d00c3f8 <i13>:
9d00c3f8:	000e4825 	or	t1,zero,t6
9d00c3fc:	05200006 	bltz	t1,9d00c418 <i14>
9d00c400:	00074025 	or	t0,zero,a3
9d00c404:	0100782a 	slt	t7,t0,zero
9d00c408:	01084021 	addu	t0,t0,t0
9d00c40c:	01294821 	addu	t1,t1,t1
9d00c410:	012f4821 	addu	t1,t1,t7
9d00c414:	254affff 	addiu	t2,t2,-1

9d00c418 <i14>:
9d00c418:	254fffff 	addiu	t7,t2,-1
9d00c41c:	2de107fe 	sltiu	at,t7,2046
9d00c420:	10200068 	beqz	at,9d00c5c4 <Coveund>
9d00c424:	00000000 	nop
9d00c428:	25080400 	addiu	t0,t0,1024
9d00c42c:	2d0f0400 	sltiu	t7,t0,1024
9d00c430:	012f4821 	addu	t1,t1,t7
9d00c434:	012f782b 	sltu	t7,t1,t7
9d00c438:	014f5021 	addu	t2,t2,t7

9d00c43c <Clab8>:
9d00c43c:	00087ac2 	srl	t7,t0,0xb
9d00c440:	31ef0001 	andi	t7,t7,0x1
9d00c444:	010f4023 	subu	t0,t0,t7
9d00c448:	000822c2 	srl	a0,t0,0xb
9d00c44c:	00097d40 	sll	t7,t1,0x15
9d00c450:	008f2025 	or	a0,a0,t7
9d00c454:	00097840 	sll	t7,t1,0x1
9d00c458:	000f7b02 	srl	t7,t7,0xc
9d00c45c:	00af2825 	or	a1,a1,t7
9d00c460:	000a7d00 	sll	t7,t2,0x14
9d00c464:	00af2825 	or	a1,a1,t7

9d00c468 <Cret>:
9d00c468:	00041025 	or	v0,zero,a0
9d00c46c:	00051825 	or	v1,zero,a1

9d00c470 <C999>:
9d00c470:	03e00008 	jr	ra
9d00c474:	00000000 	nop

9d00c478 <CspecA>:
9d00c478:	0100782a 	slt	t7,t0,zero
9d00c47c:	01084021 	addu	t0,t0,t0
9d00c480:	01294821 	addu	t1,t1,t1
9d00c484:	1540001c 	bnez	t2,9d00c4f8 <i15>
9d00c488:	012f4821 	addu	t1,t1,t7
9d00c48c:	01287825 	or	t7,t1,t0
9d00c490:	11e00014 	beqz	t7,9d00c4e4 <i16>
9d00c494:	00000000 	nop
9d00c498:	15200008 	bnez	t1,9d00c4bc <L22>
9d00c49c:	00000000 	nop
9d00c4a0:	15000003 	bnez	t0,9d00c4b0 <L23>
9d00c4a4:	00000000 	nop
9d00c4a8:	1000ffad 	b	9d00c360 <Clab1>
9d00c4ac:	240a0000 	li	t2,0

9d00c4b0 <L23>:
9d00c4b0:	01004825 	move	t1,t0
9d00c4b4:	24080000 	li	t0,0
9d00c4b8:	254affe0 	addiu	t2,t2,-32

9d00c4bc <L22>:
9d00c4bc:	712e7020 	clz	t6,t1
9d00c4c0:	11c0ffa7 	beqz	t6,9d00c360 <Clab1>
9d00c4c4:	00000000 	nop
9d00c4c8:	014e5023 	subu	t2,t2,t6
9d00c4cc:	000e3822 	neg	a3,t6
9d00c4d0:	00e83806 	srlv	a3,t0,a3
9d00c4d4:	01c84004 	sllv	t0,t0,t6
9d00c4d8:	01c94804 	sllv	t1,t1,t6
9d00c4dc:	1000ffa0 	b	9d00c360 <Clab1>
9d00c4e0:	01274825 	or	t1,t1,a3

9d00c4e4 <i16>:
9d00c4e4:	240107ff 	li	at,2047
9d00c4e8:	11a10033 	beq	t5,at,9d00c5b8 <Cnan>
9d00c4ec:	00000000 	nop
9d00c4f0:	1000ffdd 	b	9d00c468 <Cret>
9d00c4f4:	00000000 	nop

9d00c4f8 <i15>:
9d00c4f8:	01287825 	or	t7,t1,t0
9d00c4fc:	15e0002e 	bnez	t7,9d00c5b8 <Cnan>
9d00c500:	00000000 	nop
9d00c504:	15a00005 	bnez	t5,9d00c51c <i17>
9d00c508:	00000000 	nop
9d00c50c:	000c7840 	sll	t7,t4,0x1
9d00c510:	01eb7825 	or	t7,t7,t3
9d00c514:	11e00028 	beqz	t7,9d00c5b8 <Cnan>
9d00c518:	00000000 	nop

9d00c51c <i17>:
9d00c51c:	240107ff 	li	at,2047
9d00c520:	15a10021 	bne	t5,at,9d00c5a8 <Cinf>
9d00c524:	00000000 	nop

9d00c528 <CspecB>:
9d00c528:	0160782a 	slt	t7,t3,zero
9d00c52c:	016b5821 	addu	t3,t3,t3
9d00c530:	018c6021 	addu	t4,t4,t4
9d00c534:	15a00019 	bnez	t5,9d00c59c <i18>
9d00c538:	018f6021 	addu	t4,t4,t7
9d00c53c:	018b7825 	or	t7,t4,t3
9d00c540:	11e00014 	beqz	t7,9d00c594 <i19>
9d00c544:	00000000 	nop
9d00c548:	15800008 	bnez	t4,9d00c56c <L25>
9d00c54c:	00000000 	nop
9d00c550:	15600003 	bnez	t3,9d00c560 <L26>
9d00c554:	00000000 	nop
9d00c558:	1000ff85 	b	9d00c370 <Clab2>
9d00c55c:	240d0000 	li	t5,0

9d00c560 <L26>:
9d00c560:	01606025 	move	t4,t3
9d00c564:	240b0000 	li	t3,0
9d00c568:	25adffe0 	addiu	t5,t5,-32

9d00c56c <L25>:
9d00c56c:	71863020 	clz	a2,t4
9d00c570:	10c0ff7f 	beqz	a2,9d00c370 <Clab2>
9d00c574:	00000000 	nop
9d00c578:	01a66823 	subu	t5,t5,a2
9d00c57c:	00067022 	neg	t6,a2
9d00c580:	01cb7006 	srlv	t6,t3,t6
9d00c584:	00cb5804 	sllv	t3,t3,a2
9d00c588:	00cc6004 	sllv	t4,t4,a2
9d00c58c:	1000ff78 	b	9d00c370 <Clab2>
9d00c590:	018e6025 	or	t4,t4,t6

9d00c594 <i19>:
9d00c594:	1000ffb4 	b	9d00c468 <Cret>
9d00c598:	24040000 	li	a0,0

9d00c59c <i18>:
9d00c59c:	018b7825 	or	t7,t4,t3
9d00c5a0:	15e00005 	bnez	t7,9d00c5b8 <Cnan>
9d00c5a4:	00000000 	nop

9d00c5a8 <Cinf>:
9d00c5a8:	3c017ff0 	lui	at,0x7ff0
9d00c5ac:	00a12825 	or	a1,a1,at
9d00c5b0:	1000ffad 	b	9d00c468 <Cret>
9d00c5b4:	24040000 	li	a0,0

9d00c5b8 <Cnan>:
9d00c5b8:	3c05fff8 	lui	a1,0xfff8
9d00c5bc:	1000ffaa 	b	9d00c468 <Cret>
9d00c5c0:	24040000 	li	a0,0

9d00c5c4 <Coveund>:
9d00c5c4:	1d40fff8 	bgtz	t2,9d00c5a8 <Cinf>
9d00c5c8:	00000000 	nop
9d00c5cc:	240e0001 	li	t6,1
9d00c5d0:	01ca7023 	subu	t6,t6,t2

9d00c5d4 <L28>:
9d00c5d4:	2dc10020 	sltiu	at,t6,32
9d00c5d8:	14200007 	bnez	at,9d00c5f8 <L29>
9d00c5dc:	00000000 	nop
9d00c5e0:	21ceffe0 	addi	t6,t6,-32
9d00c5e4:	0008302b 	sltu	a2,zero,t0
9d00c5e8:	1009000d 	beq	zero,t1,9d00c620 <L30>
9d00c5ec:	01264025 	or	t0,t1,a2
9d00c5f0:	1000fff8 	b	9d00c5d4 <L28>
9d00c5f4:	34090000 	li	t1,0x0

9d00c5f8 <L29>:
9d00c5f8:	11c00009 	beqz	t6,9d00c620 <L30>
9d00c5fc:	00000000 	nop
9d00c600:	000e3822 	neg	a3,t6
9d00c604:	00e83004 	sllv	a2,t0,a3
9d00c608:	00e93804 	sllv	a3,t1,a3
9d00c60c:	01c84006 	srlv	t0,t0,t6
9d00c610:	01c94806 	srlv	t1,t1,t6
9d00c614:	10c00002 	beqz	a2,9d00c620 <L30>
9d00c618:	00e84025 	or	t0,a3,t0
9d00c61c:	35080002 	ori	t0,t0,0x2

9d00c620 <L30>:
9d00c620:	25080400 	addiu	t0,t0,1024
9d00c624:	2d0f0400 	sltiu	t7,t0,1024
9d00c628:	012f4821 	addu	t1,t1,t7
9d00c62c:	1000ff83 	b	9d00c43c <Clab8>
9d00c630:	000957c2 	srl	t2,t1,0x1f
9d00c634:	00000000 	nop

Disassembly of section .text.scanexp:

9d00c638 <scanexp>:
9d00c638:	8c82003c 	lw	v0,60(a0)
9d00c63c:	8c83004c 	lw	v1,76(a0)
9d00c640:	27bdffc8 	addiu	sp,sp,-56
9d00c644:	afb10014 	sw	s1,20(sp)
9d00c648:	0043182b 	sltu	v1,v0,v1
9d00c64c:	afb00010 	sw	s0,16(sp)
9d00c650:	afbf0034 	sw	ra,52(sp)
9d00c654:	afbe0030 	sw	s8,48(sp)
9d00c658:	afb7002c 	sw	s7,44(sp)
9d00c65c:	afb60028 	sw	s6,40(sp)
9d00c660:	afb50024 	sw	s5,36(sp)
9d00c664:	afb40020 	sw	s4,32(sp)
9d00c668:	afb3001c 	sw	s3,28(sp)
9d00c66c:	afb20018 	sw	s2,24(sp)
9d00c670:	00808025 	move	s0,a0
9d00c674:	10600035 	beqz	v1,9d00c74c <scanexp+0x114>
9d00c678:	00a08825 	move	s1,a1
9d00c67c:	24430001 	addiu	v1,v0,1
9d00c680:	ac83003c 	sw	v1,60(a0)
9d00c684:	90520000 	lbu	s2,0(v0)
9d00c688:	2642ffd5 	addiu	v0,s2,-43
9d00c68c:	7c020844 	ins	v0,zero,0x1,0x1
9d00c690:	14400016 	bnez	v0,9d00c6ec <scanexp+0xb4>
9d00c694:	0000a025 	move	s4,zero
9d00c698:	8e02003c 	lw	v0,60(s0)
9d00c69c:	8e03004c 	lw	v1,76(s0)
9d00c6a0:	3a52002d 	xori	s2,s2,0x2d
9d00c6a4:	0043182b 	sltu	v1,v0,v1
9d00c6a8:	1060002c 	beqz	v1,9d00c75c <scanexp+0x124>
9d00c6ac:	2e540001 	sltiu	s4,s2,1
9d00c6b0:	24430001 	addiu	v1,v0,1
9d00c6b4:	ae03003c 	sw	v1,60(s0)
9d00c6b8:	90520000 	lbu	s2,0(v0)
9d00c6bc:	2642ffd0 	addiu	v0,s2,-48
9d00c6c0:	2c42000a 	sltiu	v0,v0,10
9d00c6c4:	1440000a 	bnez	v0,9d00c6f0 <scanexp+0xb8>
9d00c6c8:	2642ffd0 	addiu	v0,s2,-48
9d00c6cc:	12200009 	beqz	s1,9d00c6f4 <scanexp+0xbc>
9d00c6d0:	2c42000a 	sltiu	v0,v0,10
9d00c6d4:	8e02004c 	lw	v0,76(s0)
9d00c6d8:	10400005 	beqz	v0,9d00c6f0 <scanexp+0xb8>
9d00c6dc:	2642ffd0 	addiu	v0,s2,-48
9d00c6e0:	8e02003c 	lw	v0,60(s0)
9d00c6e4:	2442ffff 	addiu	v0,v0,-1
9d00c6e8:	ae02003c 	sw	v0,60(s0)
9d00c6ec:	2642ffd0 	addiu	v0,s2,-48
9d00c6f0:	2c42000a 	sltiu	v0,v0,10
9d00c6f4:	1440001d 	bnez	v0,9d00c76c <scanexp+0x134>
9d00c6f8:	00009825 	move	s3,zero
9d00c6fc:	8e02004c 	lw	v0,76(s0)
9d00c700:	10400004 	beqz	v0,9d00c714 <scanexp+0xdc>
9d00c704:	3c158000 	lui	s5,0x8000
9d00c708:	8e02003c 	lw	v0,60(s0)
9d00c70c:	2442ffff 	addiu	v0,v0,-1
9d00c710:	ae02003c 	sw	v0,60(s0)
9d00c714:	8fbf0034 	lw	ra,52(sp)
9d00c718:	02601025 	move	v0,s3
9d00c71c:	02a01825 	move	v1,s5
9d00c720:	8fbe0030 	lw	s8,48(sp)
9d00c724:	8fb7002c 	lw	s7,44(sp)
9d00c728:	8fb60028 	lw	s6,40(sp)
9d00c72c:	8fb50024 	lw	s5,36(sp)
9d00c730:	8fb40020 	lw	s4,32(sp)
9d00c734:	8fb3001c 	lw	s3,28(sp)
9d00c738:	8fb20018 	lw	s2,24(sp)
9d00c73c:	8fb10014 	lw	s1,20(sp)
9d00c740:	8fb00010 	lw	s0,16(sp)
9d00c744:	03e00008 	jr	ra
9d00c748:	27bd0038 	addiu	sp,sp,56
9d00c74c:	0f403c35 	jal	9d00f0d4 <__shgetc>
9d00c750:	00000000 	nop
9d00c754:	1000ffcc 	b	9d00c688 <scanexp+0x50>
9d00c758:	00409025 	move	s2,v0
9d00c75c:	0f403c35 	jal	9d00f0d4 <__shgetc>
9d00c760:	02002025 	move	a0,s0
9d00c764:	1000ffd5 	b	9d00c6bc <scanexp+0x84>
9d00c768:	00409025 	move	s2,v0
9d00c76c:	3c150ccc 	lui	s5,0xccc
9d00c770:	2416000a 	li	s6,10
9d00c774:	36b5cccc 	ori	s5,s5,0xcccc
9d00c778:	8e02003c 	lw	v0,60(s0)
9d00c77c:	8e03004c 	lw	v1,76(s0)
9d00c780:	0043182b 	sltu	v1,v0,v1
9d00c784:	1060001f 	beqz	v1,9d00c804 <scanexp+0x1cc>
9d00c788:	24430001 	addiu	v1,v0,1
9d00c78c:	ae03003c 	sw	v1,60(s0)
9d00c790:	90510000 	lbu	s1,0(v0)
9d00c794:	72761002 	mul	v0,s3,s6
9d00c798:	00529821 	addu	s3,v0,s2
9d00c79c:	2622ffd0 	addiu	v0,s1,-48
9d00c7a0:	2c42000a 	sltiu	v0,v0,10
9d00c7a4:	10400004 	beqz	v0,9d00c7b8 <scanexp+0x180>
9d00c7a8:	2673ffd0 	addiu	s3,s3,-48
9d00c7ac:	0275102a 	slt	v0,s3,s5
9d00c7b0:	1440fff1 	bnez	v0,9d00c778 <scanexp+0x140>
9d00c7b4:	02209025 	move	s2,s1
9d00c7b8:	3c160147 	lui	s6,0x147
9d00c7bc:	36d6ae15 	ori	s6,s6,0xae15
9d00c7c0:	3c177ae1 	lui	s7,0x7ae1
9d00c7c4:	0013afc3 	sra	s5,s3,0x1f
9d00c7c8:	26deffff 	addiu	s8,s6,-1
9d00c7cc:	26f747ae 	addiu	s7,s7,18350
9d00c7d0:	2622ffd0 	addiu	v0,s1,-48
9d00c7d4:	2c42000a 	sltiu	v0,v0,10
9d00c7d8:	14400012 	bnez	v0,9d00c824 <scanexp+0x1ec>
9d00c7dc:	02b6102a 	slt	v0,s5,s6
9d00c7e0:	8e02004c 	lw	v0,76(s0)
9d00c7e4:	5440003e 	bnezl	v0,9d00c8e0 <scanexp+0x2a8>
9d00c7e8:	8e02003c 	lw	v0,60(s0)
9d00c7ec:	1280ffc9 	beqz	s4,9d00c714 <scanexp+0xdc>
9d00c7f0:	00158823 	negu	s1,s5
9d00c7f4:	00139823 	negu	s3,s3
9d00c7f8:	0013102b 	sltu	v0,zero,s3
9d00c7fc:	1000ffc5 	b	9d00c714 <scanexp+0xdc>
9d00c800:	0222a823 	subu	s5,s1,v0
9d00c804:	0f403c35 	jal	9d00f0d4 <__shgetc>
9d00c808:	02002025 	move	a0,s0
9d00c80c:	1000ffe1 	b	9d00c794 <scanexp+0x15c>
9d00c810:	00408825 	move	s1,v0
9d00c814:	0f403c35 	jal	9d00f0d4 <__shgetc>
9d00c818:	02002025 	move	a0,s0
9d00c81c:	10000010 	b	9d00c860 <scanexp+0x228>
9d00c820:	2403000a 	li	v1,10
9d00c824:	50400025 	beqzl	v0,9d00c8bc <scanexp+0x284>
9d00c828:	2631ffd0 	addiu	s1,s1,-48
9d00c82c:	16be0003 	bne	s5,s8,9d00c83c <scanexp+0x204>
9d00c830:	0277102b 	sltu	v0,s3,s7
9d00c834:	50400021 	beqzl	v0,9d00c8bc <scanexp+0x284>
9d00c838:	2631ffd0 	addiu	s1,s1,-48
9d00c83c:	8e02003c 	lw	v0,60(s0)
9d00c840:	8e03004c 	lw	v1,76(s0)
9d00c844:	0043182b 	sltu	v1,v0,v1
9d00c848:	1060fff2 	beqz	v1,9d00c814 <scanexp+0x1dc>
9d00c84c:	00000000 	nop
9d00c850:	24430001 	addiu	v1,v0,1
9d00c854:	ae03003c 	sw	v1,60(s0)
9d00c858:	90420000 	lbu	v0,0(v0)
9d00c85c:	2403000a 	li	v1,10
9d00c860:	00730019 	multu	v1,s3
9d00c864:	00009012 	mflo	s2
9d00c868:	00009810 	mfhi	s3
9d00c86c:	70752002 	mul	a0,v1,s5
9d00c870:	00939821 	addu	s3,a0,s3
9d00c874:	001127c3 	sra	a0,s1,0x1f
9d00c878:	02518821 	addu	s1,s2,s1
9d00c87c:	0232182b 	sltu	v1,s1,s2
9d00c880:	02642021 	addu	a0,s3,a0
9d00c884:	00641821 	addu	v1,v1,a0
9d00c888:	2633ffd0 	addiu	s3,s1,-48
9d00c88c:	0271882b 	sltu	s1,s3,s1
9d00c890:	2463ffff 	addiu	v1,v1,-1
9d00c894:	0223a821 	addu	s5,s1,v1
9d00c898:	1000ffcd 	b	9d00c7d0 <scanexp+0x198>
9d00c89c:	00408825 	move	s1,v0
9d00c8a0:	8e03004c 	lw	v1,76(s0)
9d00c8a4:	0043182b 	sltu	v1,v0,v1
9d00c8a8:	10600009 	beqz	v1,9d00c8d0 <scanexp+0x298>
9d00c8ac:	24430001 	addiu	v1,v0,1
9d00c8b0:	ae03003c 	sw	v1,60(s0)
9d00c8b4:	90510000 	lbu	s1,0(v0)
9d00c8b8:	2631ffd0 	addiu	s1,s1,-48
9d00c8bc:	2e31000a 	sltiu	s1,s1,10
9d00c8c0:	5620fff7 	bnezl	s1,9d00c8a0 <scanexp+0x268>
9d00c8c4:	8e02003c 	lw	v0,60(s0)
9d00c8c8:	1000ffc6 	b	9d00c7e4 <scanexp+0x1ac>
9d00c8cc:	8e02004c 	lw	v0,76(s0)
9d00c8d0:	0f403c35 	jal	9d00f0d4 <__shgetc>
9d00c8d4:	02002025 	move	a0,s0
9d00c8d8:	1000fff7 	b	9d00c8b8 <scanexp+0x280>
9d00c8dc:	00408825 	move	s1,v0
9d00c8e0:	2442ffff 	addiu	v0,v0,-1
9d00c8e4:	1000ffc1 	b	9d00c7ec <scanexp+0x1b4>
9d00c8e8:	ae02003c 	sw	v0,60(s0)

Disassembly of section .text.libm:

9d00c8ec <dpfmod>:
9d00c8ec:	00055040 000a5542 00054ac0 00047d42     @P..BU...J..B}..
9d00c8fc:	012f4825 000442c0 3c0e8000 012e4825     %H/..B.....<%H..
9d00c90c:	00076840 000d6d42 000762c0 00067d42     @h..Bm...b..B}..
9d00c91c:	018f6025 00065ac0 018e6025 01c57024     %`...Z..%`..$p..
9d00c92c:	254fffff 2de107fe 10200056 00000000     ..O%...-V. .....

9d00c93c <Alab1>:
9d00c93c:	25afffff 	addiu	t7,t5,-1
9d00c940:	2de107fe 	sltiu	at,t7,2046
9d00c944:	1020006e 	beqz	at,9d00cb00 <AspecB>
9d00c948:	00000000 	nop

9d00c94c <Alab2>:
9d00c94c:	014d3823 	subu	a3,t2,t5
9d00c950:	04e0004b 	bltz	a3,9d00ca80 <Aret2>
9d00c954:	00000000 	nop
9d00c958:	00084042 	srl	t0,t0,0x1
9d00c95c:	00097fc0 	sll	t7,t1,0x1f
9d00c960:	010f4025 	or	t0,t0,t7
9d00c964:	00094842 	srl	t1,t1,0x1
9d00c968:	000b5842 	srl	t3,t3,0x1
9d00c96c:	000c7fc0 	sll	t7,t4,0x1f
9d00c970:	016f5825 	or	t3,t3,t7
9d00c974:	000c6042 	srl	t4,t4,0x1

9d00c978 <b1>:
9d00c978:	010b782b 	sltu	t7,t0,t3
9d00c97c:	010b4023 	subu	t0,t0,t3
9d00c980:	012f102b 	sltu	v0,t1,t7
9d00c984:	012f4823 	subu	t1,t1,t7
9d00c988:	012c782b 	sltu	t7,t1,t4
9d00c98c:	01e27825 	or	t7,t7,v0
9d00c990:	11e00005 	beqz	t7,9d00c9a8 <i2>
9d00c994:	012c4823 	subu	t1,t1,t4
9d00c998:	010b4021 	addu	t0,t0,t3
9d00c99c:	010b782b 	sltu	t7,t0,t3
9d00c9a0:	012c4821 	addu	t1,t1,t4
9d00c9a4:	012f4821 	addu	t1,t1,t7

9d00c9a8 <i2>:
9d00c9a8:	0100782a 	slt	t7,t0,zero
9d00c9ac:	01084021 	addu	t0,t0,t0
9d00c9b0:	01294821 	addu	t1,t1,t1
9d00c9b4:	012f4821 	addu	t1,t1,t7
9d00c9b8:	24e7ffff 	addiu	a3,a3,-1
9d00c9bc:	04e1ffee 	bgez	a3,9d00c978 <b1>
9d00c9c0:	00000000 	nop
9d00c9c4:	15200008 	bnez	t1,9d00c9e8 <L1>
9d00c9c8:	000d5025 	or	t2,zero,t5
9d00c9cc:	15000003 	bnez	t0,9d00c9dc <L2>
9d00c9d0:	00000000 	nop
9d00c9d4:	1000000d 	b	9d00ca0c <L3>
9d00c9d8:	240a0000 	li	t2,0

9d00c9dc <L2>:
9d00c9dc:	01004825 	move	t1,t0
9d00c9e0:	24080000 	li	t0,0
9d00c9e4:	254affe0 	addiu	t2,t2,-32

9d00c9e8 <L1>:
9d00c9e8:	71273820 	clz	a3,t1
9d00c9ec:	10e00007 	beqz	a3,9d00ca0c <L3>
9d00c9f0:	00000000 	nop
9d00c9f4:	01475023 	subu	t2,t2,a3
9d00c9f8:	00073022 	neg	a2,a3
9d00c9fc:	00c83006 	srlv	a2,t0,a2
9d00ca00:	00e84004 	sllv	t0,t0,a3
9d00ca04:	00e94804 	sllv	t1,t1,a3
9d00ca08:	01264825 	or	t1,t1,a2

9d00ca0c <L3>:
9d00ca0c:	1d400014 	bgtz	t2,9d00ca60 <i3>
9d00ca10:	00000000 	nop
9d00ca14:	24070001 	li	a3,1
9d00ca18:	00ea3823 	subu	a3,a3,t2

9d00ca1c <L4>:
9d00ca1c:	2ce10020 	sltiu	at,a3,32
9d00ca20:	14200005 	bnez	at,9d00ca38 <L5>
9d00ca24:	00000000 	nop
9d00ca28:	00094025 	or	t0,zero,t1
9d00ca2c:	24090000 	li	t1,0
9d00ca30:	1500fffa 	bnez	t0,9d00ca1c <L4>
9d00ca34:	24e7ffe0 	addiu	a3,a3,-32

9d00ca38 <L5>:
9d00ca38:	10e00008 	beqz	a3,9d00ca5c <L6>
9d00ca3c:	00000000 	nop
9d00ca40:	00093025 	or	a2,zero,t1
9d00ca44:	00e84006 	srlv	t0,t0,a3
9d00ca48:	00e94806 	srlv	t1,t1,a3
9d00ca4c:	240f0020 	li	t7,32
9d00ca50:	01e73823 	subu	a3,t7,a3
9d00ca54:	00e63004 	sllv	a2,a2,a3
9d00ca58:	01064025 	or	t0,t0,a2

9d00ca5c <L6>:
9d00ca5c:	240a0000 	li	t2,0

9d00ca60 <i3>:
9d00ca60:	000822c2 	srl	a0,t0,0xb
9d00ca64:	00097d40 	sll	t7,t1,0x15
9d00ca68:	008f2025 	or	a0,a0,t7
9d00ca6c:	00092840 	sll	a1,t1,0x1
9d00ca70:	00052b02 	srl	a1,a1,0xc
9d00ca74:	000a7d00 	sll	t7,t2,0x14
9d00ca78:	00af2825 	or	a1,a1,t7
9d00ca7c:	00ae2825 	or	a1,a1,t6

9d00ca80 <Aret2>:
9d00ca80:	00041025 	or	v0,zero,a0
9d00ca84:	00051825 	or	v1,zero,a1

9d00ca88 <A999>:
9d00ca88:	03e00008 	jr	ra
9d00ca8c:	00000000 	nop

9d00ca90 <AspecA>:
9d00ca90:	1540003b 	bnez	t2,9d00cb80 <Anan>
9d00ca94:	00000000 	nop
9d00ca98:	0100782a 	slt	t7,t0,zero
9d00ca9c:	01084021 	addu	t0,t0,t0
9d00caa0:	01294821 	addu	t1,t1,t1
9d00caa4:	012f4821 	addu	t1,t1,t7
9d00caa8:	01287825 	or	t7,t1,t0
9d00caac:	11e0ffa3 	beqz	t7,9d00c93c <Alab1>
9d00cab0:	00000000 	nop
9d00cab4:	15200008 	bnez	t1,9d00cad8 <L7>
9d00cab8:	00000000 	nop
9d00cabc:	15000003 	bnez	t0,9d00cacc <L8>
9d00cac0:	00000000 	nop
9d00cac4:	1000ff9d 	b	9d00c93c <Alab1>
9d00cac8:	240a0000 	li	t2,0

9d00cacc <L8>:
9d00cacc:	01004825 	move	t1,t0
9d00cad0:	24080000 	li	t0,0
9d00cad4:	254affe0 	addiu	t2,t2,-32

9d00cad8 <L7>:
9d00cad8:	71273820 	clz	a3,t1
9d00cadc:	10e0ff97 	beqz	a3,9d00c93c <Alab1>
9d00cae0:	00000000 	nop
9d00cae4:	01475023 	subu	t2,t2,a3
9d00cae8:	00073022 	neg	a2,a3
9d00caec:	00c83006 	srlv	a2,t0,a2
9d00caf0:	00e84004 	sllv	t0,t0,a3
9d00caf4:	00e94804 	sllv	t1,t1,a3
9d00caf8:	1000ff90 	b	9d00c93c <Alab1>
9d00cafc:	01264825 	or	t1,t1,a2

9d00cb00 <AspecB>:
9d00cb00:	15a0001b 	bnez	t5,9d00cb70 <i5>
9d00cb04:	00000000 	nop
9d00cb08:	0160782a 	slt	t7,t3,zero
9d00cb0c:	016b5821 	addu	t3,t3,t3
9d00cb10:	018c6021 	addu	t4,t4,t4
9d00cb14:	018f6021 	addu	t4,t4,t7
9d00cb18:	018b7825 	or	t7,t4,t3
9d00cb1c:	11e00018 	beqz	t7,9d00cb80 <Anan>
9d00cb20:	00000000 	nop
9d00cb24:	15800008 	bnez	t4,9d00cb48 <L10>
9d00cb28:	00000000 	nop
9d00cb2c:	15600003 	bnez	t3,9d00cb3c <L11>
9d00cb30:	00000000 	nop
9d00cb34:	1000ff85 	b	9d00c94c <Alab2>
9d00cb38:	240d0000 	li	t5,0

9d00cb3c <L11>:
9d00cb3c:	01606025 	move	t4,t3
9d00cb40:	240b0000 	li	t3,0
9d00cb44:	25adffe0 	addiu	t5,t5,-32

9d00cb48 <L10>:
9d00cb48:	71873820 	clz	a3,t4
9d00cb4c:	10e0ff7f 	beqz	a3,9d00c94c <Alab2>
9d00cb50:	00000000 	nop
9d00cb54:	01a76823 	subu	t5,t5,a3
9d00cb58:	00073022 	neg	a2,a3
9d00cb5c:	00cb3006 	srlv	a2,t3,a2
9d00cb60:	00eb5804 	sllv	t3,t3,a3
9d00cb64:	00ec6004 	sllv	t4,t4,a3
9d00cb68:	1000ff78 	b	9d00c94c <Alab2>
9d00cb6c:	01866025 	or	t4,t4,a2

9d00cb70 <i5>:
9d00cb70:	000c7840 	sll	t7,t4,0x1
9d00cb74:	01eb7825 	or	t7,t7,t3
9d00cb78:	11e0ffc1 	beqz	t7,9d00ca80 <Aret2>
9d00cb7c:	00000000 	nop

9d00cb80 <Anan>:
9d00cb80:	3c05fff8 	lui	a1,0xfff8
9d00cb84:	1000ffbe 	b	9d00ca80 <Aret2>
9d00cb88:	24040000 	li	a0,0
9d00cb8c:	00000000 	nop

Disassembly of section .text.malloc:

9d00cb90 <malloc>:
9d00cb90:	27bdffd8 	addiu	sp,sp,-40
9d00cb94:	afa40028 	sw	a0,40(sp)
9d00cb98:	27a40028 	addiu	a0,sp,40
9d00cb9c:	afbf0024 	sw	ra,36(sp)
9d00cba0:	afb10020 	sw	s1,32(sp)
9d00cba4:	0f404132 	jal	9d0104c8 <adjust_size>
9d00cba8:	afb0001c 	sw	s0,28(sp)
9d00cbac:	04410007 	bgez	v0,9d00cbcc <malloc+0x3c>
9d00cbb0:	8fa20028 	lw	v0,40(sp)
9d00cbb4:	00001025 	move	v0,zero
9d00cbb8:	8fbf0024 	lw	ra,36(sp)
9d00cbbc:	8fb10020 	lw	s1,32(sp)
9d00cbc0:	8fb0001c 	lw	s0,28(sp)
9d00cbc4:	03e00008 	jr	ra
9d00cbc8:	27bd0028 	addiu	sp,sp,40
9d00cbcc:	00021102 	srl	v0,v0,0x4
9d00cbd0:	2451ffff 	addiu	s1,v0,-1
9d00cbd4:	2e230021 	sltiu	v1,s1,33
9d00cbd8:	14600009 	bnez	v1,9d00cc00 <malloc+0x70>
9d00cbdc:	2442fffe 	addiu	v0,v0,-2
9d00cbe0:	3c039d01 	lui	v1,0x9d01
9d00cbe4:	2c440200 	sltiu	a0,v0,512
9d00cbe8:	10800022 	beqz	a0,9d00cc74 <malloc+0xe4>
9d00cbec:	24630434 	addiu	v1,v1,1076
9d00cbf0:	000210c2 	srl	v0,v0,0x3
9d00cbf4:	00621021 	addu	v0,v1,v0
9d00cbf8:	9051fffc 	lbu	s1,-4(v0)
9d00cbfc:	26310001 	addiu	s1,s1,1
9d00cc00:	02203025 	move	a2,s1
9d00cc04:	24040001 	li	a0,1
9d00cc08:	0f4042cf 	jal	9d010b3c <__ashldi3>
9d00cc0c:	00002825 	move	a1,zero
9d00cc10:	00025823 	negu	t3,v0
9d00cc14:	000b382b 	sltu	a3,zero,t3
9d00cc18:	00031823 	negu	v1,v1
9d00cc1c:	3c0aa000 	lui	t2,0xa000
9d00cc20:	3c089d01 	lui	t0,0x9d01
9d00cc24:	00673823 	subu	a3,v1,a3
9d00cc28:	25080414 	addiu	t0,t0,1044
9d00cc2c:	3c0c076b 	lui	t4,0x76b
9d00cc30:	254916c8 	addiu	t1,t2,5832
9d00cc34:	8d4216c8 	lw	v0,5832(t2)
9d00cc38:	8d4316cc 	lw	v1,5836(t2)
9d00cc3c:	01622824 	and	a1,t3,v0
9d00cc40:	00e31824 	and	v1,a3,v1
9d00cc44:	00a32025 	or	a0,a1,v1
9d00cc48:	14800039 	bnez	a0,9d00cd30 <malloc+0x1a0>
9d00cc4c:	8fa20028 	lw	v0,40(sp)
9d00cc50:	27a40010 	addiu	a0,sp,16
9d00cc54:	24420010 	addiu	v0,v0,16
9d00cc58:	0f404293 	jal	9d010a4c <__expand_heap>
9d00cc5c:	afa20010 	sw	v0,16(sp)
9d00cc60:	14400009 	bnez	v0,9d00cc88 <malloc+0xf8>
9d00cc64:	3c03a000 	lui	v1,0xa000
9d00cc68:	2404000c 	li	a0,12
9d00cc6c:	1000ffd2 	b	9d00cbb8 <malloc+0x28>
9d00cc70:	ac641948 	sw	a0,6472(v1)
9d00cc74:	000211c2 	srl	v0,v0,0x7
9d00cc78:	00621021 	addu	v0,v1,v0
9d00cc7c:	9051fffc 	lbu	s1,-4(v0)
9d00cc80:	1000ffdf 	b	9d00cc00 <malloc+0x70>
9d00cc84:	26310011 	addiu	s1,s1,17
9d00cc88:	3c03a000 	lui	v1,0xa000
9d00cc8c:	8c7116c0 	lw	s1,5824(v1)
9d00cc90:	10510006 	beq	v0,s1,9d00ccac <malloc+0x11c>
9d00cc94:	8fa40010 	lw	a0,16(sp)
9d00cc98:	24510010 	addiu	s1,v0,16
9d00cc9c:	2484fff0 	addiu	a0,a0,-16
9d00cca0:	afa40010 	sw	a0,16(sp)
9d00cca4:	24040001 	li	a0,1
9d00cca8:	ac440008 	sw	a0,8(v0)
9d00ccac:	8fa20010 	lw	v0,16(sp)
9d00ccb0:	2630fff8 	addiu	s0,s1,-8
9d00ccb4:	02222021 	addu	a0,s1,v0
9d00ccb8:	ac6416c0 	sw	a0,5824(v1)
9d00ccbc:	34420001 	ori	v0,v0,0x1
9d00ccc0:	24030001 	li	v1,1
9d00ccc4:	ac82fff8 	sw	v0,-8(a0)
9d00ccc8:	ac83fffc 	sw	v1,-4(a0)
9d00cccc:	1200ffb9 	beqz	s0,9d00cbb4 <malloc+0x24>
9d00ccd0:	ae22fffc 	sw	v0,-4(s1)
9d00ccd4:	0f404002 	jal	9d010008 <alloc_rev>
9d00ccd8:	02002025 	move	a0,s0
9d00ccdc:	10400010 	beqz	v0,9d00cd20 <malloc+0x190>
9d00cce0:	8fa50028 	lw	a1,40(sp)
9d00cce4:	8e23fff8 	lw	v1,-8(s1)
9d00cce8:	2402fffe 	li	v0,-2
9d00ccec:	8e25fffc 	lw	a1,-4(s1)
9d00ccf0:	00431824 	and	v1,v0,v1
9d00ccf4:	02031823 	subu	v1,s0,v1
9d00ccf8:	8c640004 	lw	a0,4(v1)
9d00ccfc:	00442024 	and	a0,v0,a0
9d00cd00:	00852021 	addu	a0,a0,a1
9d00cd04:	ac640004 	sw	a0,4(v1)
9d00cd08:	8e25fffc 	lw	a1,-4(s1)
9d00cd0c:	00451024 	and	v0,v0,a1
9d00cd10:	02028021 	addu	s0,s0,v0
9d00cd14:	ae040000 	sw	a0,0(s0)
9d00cd18:	00608025 	move	s0,v1
9d00cd1c:	8fa50028 	lw	a1,40(sp)
9d00cd20:	0f404148 	jal	9d010520 <trim>
9d00cd24:	02002025 	move	a0,s0
9d00cd28:	1000ffa3 	b	9d00cbb8 <malloc+0x28>
9d00cd2c:	26020008 	addiu	v0,s0,8
9d00cd30:	14a0002f 	bnez	a1,9d00cdf0 <malloc+0x260>
9d00cd34:	3582e629 	ori	v0,t4,0xe629
9d00cd38:	00032023 	negu	a0,v1
9d00cd3c:	00832024 	and	a0,a0,v1
9d00cd40:	70822002 	mul	a0,a0,v0
9d00cd44:	000426c2 	srl	a0,a0,0x1b
9d00cd48:	01042021 	addu	a0,t0,a0
9d00cd4c:	80860000 	lb	a2,0(a0)
9d00cd50:	24c60020 	addiu	a2,a2,32
9d00cd54:	0f4042ec 	jal	9d010bb0 <lock_bin>
9d00cd58:	00c02025 	move	a0,a2
9d00cd5c:	24c40001 	addiu	a0,a2,1
9d00cd60:	000420c0 	sll	a0,a0,0x3
9d00cd64:	00891021 	addu	v0,a0,t1
9d00cd68:	8c500000 	lw	s0,0(v0)
9d00cd6c:	2484fff8 	addiu	a0,a0,-8
9d00cd70:	01242021 	addu	a0,t1,a0
9d00cd74:	1204ffaf 	beq	s0,a0,9d00cc34 <malloc+0xa4>
9d00cd78:	28c20028 	slti	v0,a2,40
9d00cd7c:	14400023 	bnez	v0,9d00ce0c <malloc+0x27c>
9d00cd80:	26310002 	addiu	s1,s1,2
9d00cd84:	0226882a 	slt	s1,s1,a2
9d00cd88:	16200003 	bnez	s1,9d00cd98 <malloc+0x208>
9d00cd8c:	2402003f 	li	v0,63
9d00cd90:	14c2001f 	bne	a2,v0,9d00ce10 <malloc+0x280>
9d00cd94:	00c02825 	move	a1,a2
9d00cd98:	8e070004 	lw	a3,4(s0)
9d00cd9c:	8fa50028 	lw	a1,40(sp)
9d00cda0:	7c070004 	ins	a3,zero,0x0,0x1
9d00cda4:	00e54023 	subu	t0,a3,a1
9d00cda8:	0f4040a6 	jal	9d010298 <bin_index>
9d00cdac:	01002025 	move	a0,t0
9d00cdb0:	14c20016 	bne	a2,v0,9d00ce0c <malloc+0x27c>
9d00cdb4:	02073821 	addu	a3,s0,a3
9d00cdb8:	8e03000c 	lw	v1,12(s0)
9d00cdbc:	8e040008 	lw	a0,8(s0)
9d00cdc0:	02051021 	addu	v0,s0,a1
9d00cdc4:	ac43000c 	sw	v1,12(v0)
9d00cdc8:	ac440008 	sw	a0,8(v0)
9d00cdcc:	ac620008 	sw	v0,8(v1)
9d00cdd0:	8c430008 	lw	v1,8(v0)
9d00cdd4:	34a50001 	ori	a1,a1,0x1
9d00cdd8:	ac62000c 	sw	v0,12(v1)
9d00cddc:	ac450000 	sw	a1,0(v0)
9d00cde0:	ac480004 	sw	t0,4(v0)
9d00cde4:	ace80000 	sw	t0,0(a3)
9d00cde8:	1000ffcc 	b	9d00cd1c <malloc+0x18c>
9d00cdec:	ae050004 	sw	a1,4(s0)
9d00cdf0:	00052023 	negu	a0,a1
9d00cdf4:	00852024 	and	a0,a0,a1
9d00cdf8:	70822002 	mul	a0,a0,v0
9d00cdfc:	000426c2 	srl	a0,a0,0x1b
9d00ce00:	01042021 	addu	a0,t0,a0
9d00ce04:	1000ffd3 	b	9d00cd54 <malloc+0x1c4>
9d00ce08:	80860000 	lb	a2,0(a0)
9d00ce0c:	00c02825 	move	a1,a2
9d00ce10:	0f403cba 	jal	9d00f2e8 <unbin>
9d00ce14:	02002025 	move	a0,s0
9d00ce18:	1000ffc1 	b	9d00cd20 <malloc+0x190>
9d00ce1c:	8fa50028 	lw	a1,40(sp)

Disassembly of section .text.fpsubadd:

9d00ce20 <__subsf3>:
9d00ce20:	3c018000 00a12826                       ...<&(..

9d00ce28 <__addsf3>:
9d00ce28:	00044dc2 312900ff 00055dc2 316b00ff     .M....)1.]....k1
9d00ce38:	3c078000 00044200 01074025 00055200     ...<.B..%@...R..
9d00ce48:	01475025 252dffff 2da100fe 10200061     %PG...-%...-a. .
9d00ce58:	00000000                                ....

9d00ce5c <Blab1>:
9d00ce5c:	256dffff 	addiu	t5,t3,-1
9d00ce60:	2da100fe 	sltiu	at,t5,254
9d00ce64:	10200077 	beqz	at,9d00d044 <BspecB>
9d00ce68:	00000000 	nop

9d00ce6c <Blab2>:
9d00ce6c:	012b6023 	subu	t4,t1,t3
9d00ce70:	0580000d 	bltz	t4,9d00cea8 <i1>
9d00ce74:	00000000 	nop
9d00ce78:	29810020 	slti	at,t4,32
9d00ce7c:	14200003 	bnez	at,9d00ce8c <i2>
9d00ce80:	00000000 	nop
9d00ce84:	10000015 	b	9d00cedc <e1>
9d00ce88:	240a0002 	li	t2,2

9d00ce8c <i2>:
9d00ce8c:	000a3025 	or	a2,zero,t2
9d00ce90:	018a5006 	srlv	t2,t2,t4
9d00ce94:	018a6804 	sllv	t5,t2,t4
9d00ce98:	11a60010 	beq	t5,a2,9d00cedc <e1>
9d00ce9c:	00000000 	nop
9d00cea0:	1000000e 	b	9d00cedc <e1>
9d00cea4:	354a0002 	ori	t2,t2,0x2

9d00cea8 <i1>:
9d00cea8:	000b4825 	or	t1,zero,t3
9d00ceac:	000c6023 	negu	t4,t4
9d00ceb0:	29810020 	slti	at,t4,32
9d00ceb4:	14200003 	bnez	at,9d00cec4 <i4>
9d00ceb8:	00000000 	nop
9d00cebc:	10000007 	b	9d00cedc <e1>
9d00cec0:	24080002 	li	t0,2

9d00cec4 <i4>:
9d00cec4:	00083025 	or	a2,zero,t0
9d00cec8:	01884006 	srlv	t0,t0,t4
9d00cecc:	01886804 	sllv	t5,t0,t4
9d00ced0:	11a60002 	beq	t5,a2,9d00cedc <e1>
9d00ced4:	00000000 	nop
9d00ced8:	35080002 	ori	t0,t0,0x2

9d00cedc <e1>:
9d00cedc:	00876024 	and	t4,a0,a3
9d00cee0:	01856826 	xor	t5,t4,a1
9d00cee4:	05a00010 	bltz	t5,9d00cf28 <Bsub1>
9d00cee8:	00000000 	nop
9d00ceec:	010a4021 	addu	t0,t0,t2
9d00cef0:	010a682b 	sltu	t5,t0,t2
9d00cef4:	11a00017 	beqz	t5,9d00cf54 <Bres>
9d00cef8:	00000000 	nop
9d00cefc:	310d0001 	andi	t5,t0,0x1
9d00cf00:	11a00002 	beqz	t5,9d00cf0c <i7>
9d00cf04:	00000000 	nop
9d00cf08:	35080002 	ori	t0,t0,0x2

9d00cf0c <i7>:
9d00cf0c:	00084042 	srl	t0,t0,0x1
9d00cf10:	25290001 	addiu	t1,t1,1
9d00cf14:	240100ff 	li	at,255
9d00cf18:	1521000e 	bne	t1,at,9d00cf54 <Bres>
9d00cf1c:	00000000 	nop
9d00cf20:	1000000c 	b	9d00cf54 <Bres>
9d00cf24:	24080000 	li	t0,0

9d00cf28 <Bsub1>:
9d00cf28:	010a682b 	sltu	t5,t0,t2
9d00cf2c:	11a00004 	beqz	t5,9d00cf40 <i9>
9d00cf30:	010a4023 	subu	t0,t0,t2
9d00cf34:	00084023 	negu	t0,t0
9d00cf38:	10000003 	b	9d00cf48 <e9>
9d00cf3c:	01876026 	xor	t4,t4,a3

9d00cf40 <i9>:
9d00cf40:	11000050 	beqz	t0,9d00d084 <Bzer>
9d00cf44:	00000000 	nop

9d00cf48 <e9>:
9d00cf48:	71063020 	clz	a2,t0
9d00cf4c:	01264823 	subu	t1,t1,a2
9d00cf50:	00c84004 	sllv	t0,t0,a2

9d00cf54 <Bres>:
9d00cf54:	1920000e 	blez	t1,9d00cf90 <Bund>
9d00cf58:	00000000 	nop

9d00cf5c <Blab12>:
9d00cf5c:	25080080 	addiu	t0,t0,128
9d00cf60:	2d0d0080 	sltiu	t5,t0,128
9d00cf64:	012d4821 	addu	t1,t1,t5
9d00cf68:	00086a02 	srl	t5,t0,0x8
9d00cf6c:	31ad0001 	andi	t5,t5,0x1
9d00cf70:	010d4023 	subu	t0,t0,t5
9d00cf74:	00084040 	sll	t0,t0,0x1
9d00cf78:	00084242 	srl	t0,t0,0x9
9d00cf7c:	00096dc0 	sll	t5,t1,0x17
9d00cf80:	010d4025 	or	t0,t0,t5
9d00cf84:	010c1025 	or	v0,t0,t4

9d00cf88 <B999>:
9d00cf88:	03e00008 	jr	ra
9d00cf8c:	00000000 	nop

9d00cf90 <Bund>:
9d00cf90:	24060001 	li	a2,1
9d00cf94:	00c93023 	subu	a2,a2,t1
9d00cf98:	2cc10020 	sltiu	at,a2,32
9d00cf9c:	10200039 	beqz	at,9d00d084 <Bzer>
9d00cfa0:	00000000 	nop
9d00cfa4:	3c018000 	lui	at,0x8000
9d00cfa8:	01014025 	or	t0,t0,at
9d00cfac:	240d0020 	li	t5,32
9d00cfb0:	01a66823 	subu	t5,t5,a2
9d00cfb4:	01a84804 	sllv	t1,t0,t5
9d00cfb8:	11200002 	beqz	t1,9d00cfc4 <i10>
9d00cfbc:	00c84006 	srlv	t0,t0,a2
9d00cfc0:	35080001 	ori	t0,t0,0x1

9d00cfc4 <i10>:
9d00cfc4:	24090000 	li	t1,0
9d00cfc8:	250d0080 	addiu	t5,t0,128
9d00cfcc:	05a1ffe3 	bgez	t5,9d00cf5c <Blab12>
9d00cfd0:	00000000 	nop
9d00cfd4:	1000ffe1 	b	9d00cf5c <Blab12>
9d00cfd8:	24090001 	li	t1,1

9d00cfdc <BspecA>:
9d00cfdc:	1520000e 	bnez	t1,9d00d018 <i12>
9d00cfe0:	00000000 	nop
9d00cfe4:	01084021 	addu	t0,t0,t0
9d00cfe8:	11000005 	beqz	t0,9d00d000 <i13>
9d00cfec:	00000000 	nop
9d00cff0:	710c6020 	clz	t4,t0
9d00cff4:	012c4823 	subu	t1,t1,t4
9d00cff8:	1000ff98 	b	9d00ce5c <Blab1>
9d00cffc:	01884004 	sllv	t0,t0,t4

9d00d000 <i13>:
9d00d000:	240100ff 	li	at,255
9d00d004:	1161000f 	beq	t3,at,9d00d044 <BspecB>
9d00d008:	00000000 	nop
9d00d00c:	3c018000 	lui	at,0x8000
9d00d010:	14a10018 	bne	a1,at,9d00d074 <BretB>
9d00d014:	00000000 	nop

9d00d018 <i12>:
9d00d018:	01086821 	addu	t5,t0,t0
9d00d01c:	15a0001b 	bnez	t5,9d00d08c <Bnan>
9d00d020:	00000000 	nop
9d00d024:	240100ff 	li	at,255
9d00d028:	15610014 	bne	t3,at,9d00d07c <BretA>
9d00d02c:	00000000 	nop
9d00d030:	00856826 	xor	t5,a0,a1
9d00d034:	05a00015 	bltz	t5,9d00d08c <Bnan>
9d00d038:	00000000 	nop
9d00d03c:	1000000d 	b	9d00d074 <BretB>
9d00d040:	00000000 	nop

9d00d044 <BspecB>:
9d00d044:	15600008 	bnez	t3,9d00d068 <i15>
9d00d048:	00000000 	nop
9d00d04c:	014a5021 	addu	t2,t2,t2
9d00d050:	1140000a 	beqz	t2,9d00d07c <BretA>
9d00d054:	00000000 	nop
9d00d058:	714c6020 	clz	t4,t2
9d00d05c:	016c5823 	subu	t3,t3,t4
9d00d060:	1000ff82 	b	9d00ce6c <Blab2>
9d00d064:	018a5004 	sllv	t2,t2,t4

9d00d068 <i15>:
9d00d068:	014a6821 	addu	t5,t2,t2
9d00d06c:	15a00007 	bnez	t5,9d00d08c <Bnan>
9d00d070:	00000000 	nop

9d00d074 <BretB>:
9d00d074:	1000ffc4 	b	9d00cf88 <B999>
9d00d078:	00051025 	or	v0,zero,a1

9d00d07c <BretA>:
9d00d07c:	1000ffc2 	b	9d00cf88 <B999>
9d00d080:	00041025 	or	v0,zero,a0

9d00d084 <Bzer>:
9d00d084:	1000ffc0 	b	9d00cf88 <B999>
9d00d088:	24020000 	li	v0,0

9d00d08c <Bnan>:
9d00d08c:	1000ffbe 	b	9d00cf88 <B999>
9d00d090:	3c02ffc0 	lui	v0,0xffc0
9d00d094:	00000000 	nop

Disassembly of section .text.__fmt_x:

9d00d098 <__fmt_x>:
9d00d098:	8ca20004 	lw	v0,4(a1)
9d00d09c:	27bdffa8 	addiu	sp,sp,-88
9d00d0a0:	afb60048 	sw	s6,72(sp)
9d00d0a4:	afb3003c 	sw	s3,60(sp)
9d00d0a8:	afb20038 	sw	s2,56(sp)
9d00d0ac:	afbf0054 	sw	ra,84(sp)
9d00d0b0:	afbe0050 	sw	s8,80(sp)
9d00d0b4:	afb7004c 	sw	s7,76(sp)
9d00d0b8:	afb50044 	sw	s5,68(sp)
9d00d0bc:	afb40040 	sw	s4,64(sp)
9d00d0c0:	afb10034 	sw	s1,52(sp)
9d00d0c4:	afb00030 	sw	s0,48(sp)
9d00d0c8:	00809825 	move	s3,a0
9d00d0cc:	00a09025 	move	s2,a1
9d00d0d0:	00e04025 	move	t0,a3
9d00d0d4:	0440004d 	bltz	v0,9d00d20c <__fmt_x+0x174>
9d00d0d8:	8cb60000 	lw	s6,0(a1)
9d00d0dc:	7c160844 	ins	s6,zero,0x1,0x1
9d00d0e0:	8e470008 	lw	a3,8(s2)
9d00d0e4:	32c90010 	andi	t1,s6,0x10
9d00d0e8:	8cd40000 	lw	s4,0(a2)
9d00d0ec:	8cd70004 	lw	s7,4(a2)
9d00d0f0:	11200004 	beqz	t1,9d00d104 <__fmt_x+0x6c>
9d00d0f4:	00e08825 	move	s1,a3
9d00d0f8:	02971825 	or	v1,s4,s7
9d00d0fc:	54600001 	bnezl	v1,9d00d104 <__fmt_x+0x6c>
9d00d100:	24f1fffe 	addiu	s1,a3,-2
9d00d104:	32ca0008 	andi	t2,s6,0x8
9d00d108:	55400001 	bnezl	t2,9d00d110 <__fmt_x+0x78>
9d00d10c:	2631ffff 	addiu	s1,s1,-1
9d00d110:	8e500010 	lw	s0,16(s2)
9d00d114:	8e55000c 	lw	s5,12(s2)
9d00d118:	251effbf 	addiu	s8,t0,-65
9d00d11c:	2610ffff 	addiu	s0,s0,-1
9d00d120:	02b01821 	addu	v1,s5,s0
9d00d124:	a0600000 	sb	zero,0(v1)
9d00d128:	00512823 	subu	a1,v0,s1
9d00d12c:	32cb0002 	andi	t3,s6,0x2
9d00d130:	2fde001a 	sltiu	s8,s8,26
9d00d134:	2a020002 	slti	v0,s0,2
9d00d138:	1440000a 	bnez	v0,9d00d164 <__fmt_x+0xcc>
9d00d13c:	02971025 	or	v0,s4,s7
9d00d140:	14400034 	bnez	v0,9d00d214 <__fmt_x+0x17c>
9d00d144:	3283000f 	andi	v1,s4,0xf
9d00d148:	00b11021 	addu	v0,a1,s1
9d00d14c:	1c400032 	bgtz	v0,9d00d218 <__fmt_x+0x180>
9d00d150:	2864000a 	slti	a0,v1,10
9d00d154:	1a200003 	blez	s1,9d00d164 <__fmt_x+0xcc>
9d00d158:	00000000 	nop
9d00d15c:	1560002e 	bnez	t3,9d00d218 <__fmt_x+0x180>
9d00d160:	00000000 	nop
9d00d164:	1120000b 	beqz	t1,9d00d194 <__fmt_x+0xfc>
9d00d168:	00000000 	nop
9d00d16c:	8cc20000 	lw	v0,0(a2)
9d00d170:	8cc30004 	lw	v1,4(a2)
9d00d174:	00431025 	or	v0,v0,v1
9d00d178:	10400006 	beqz	v0,9d00d194 <__fmt_x+0xfc>
9d00d17c:	02b01021 	addu	v0,s5,s0
9d00d180:	2610fffe 	addiu	s0,s0,-2
9d00d184:	a048ffff 	sb	t0,-1(v0)
9d00d188:	24030030 	li	v1,48
9d00d18c:	02b01021 	addu	v0,s5,s0
9d00d190:	a0430000 	sb	v1,0(v0)
9d00d194:	11400004 	beqz	t2,9d00d1a8 <__fmt_x+0x110>
9d00d198:	24030020 	li	v1,32
9d00d19c:	2610ffff 	addiu	s0,s0,-1
9d00d1a0:	02b01021 	addu	v0,s5,s0
9d00d1a4:	a0430000 	sb	v1,0(v0)
9d00d1a8:	8e460010 	lw	a2,16(s2)
9d00d1ac:	afb60010 	sw	s6,16(sp)
9d00d1b0:	02b02821 	addu	a1,s5,s0
9d00d1b4:	24c6ffff 	addiu	a2,a2,-1
9d00d1b8:	00d03023 	subu	a2,a2,s0
9d00d1bc:	0f403a09 	jal	9d00e824 <__pad>
9d00d1c0:	02602025 	move	a0,s3
9d00d1c4:	8e630004 	lw	v1,4(s3)
9d00d1c8:	30630100 	andi	v1,v1,0x100
9d00d1cc:	10600004 	beqz	v1,9d00d1e0 <__fmt_x+0x148>
9d00d1d0:	8fbf0054 	lw	ra,84(sp)
9d00d1d4:	8e430004 	lw	v1,4(s2)
9d00d1d8:	0043202a 	slt	a0,v0,v1
9d00d1dc:	0064100b 	movn	v0,v1,a0
9d00d1e0:	8fbe0050 	lw	s8,80(sp)
9d00d1e4:	8fb7004c 	lw	s7,76(sp)
9d00d1e8:	8fb60048 	lw	s6,72(sp)
9d00d1ec:	8fb50044 	lw	s5,68(sp)
9d00d1f0:	8fb40040 	lw	s4,64(sp)
9d00d1f4:	8fb3003c 	lw	s3,60(sp)
9d00d1f8:	8fb20038 	lw	s2,56(sp)
9d00d1fc:	8fb10034 	lw	s1,52(sp)
9d00d200:	8fb00030 	lw	s0,48(sp)
9d00d204:	03e00008 	jr	ra
9d00d208:	27bd0058 	addiu	sp,sp,88
9d00d20c:	1000ffb4 	b	9d00d0e0 <__fmt_x+0x48>
9d00d210:	24020001 	li	v0,1
9d00d214:	2864000a 	slti	a0,v1,10
9d00d218:	10800002 	beqz	a0,9d00d224 <__fmt_x+0x18c>
9d00d21c:	24620057 	addiu	v0,v1,87
9d00d220:	24620030 	addiu	v0,v1,48
9d00d224:	13c00015 	beqz	s8,9d00d27c <__fmt_x+0x1e4>
9d00d228:	34430020 	ori	v1,v0,0x20
9d00d22c:	2463ff9f 	addiu	v1,v1,-97
9d00d230:	2c63001a 	sltiu	v1,v1,26
9d00d234:	50600012 	beqzl	v1,9d00d280 <__fmt_x+0x1e8>
9d00d238:	2610ffff 	addiu	s0,s0,-1
9d00d23c:	00402025 	move	a0,v0
9d00d240:	afab0028 	sw	t3,40(sp)
9d00d244:	afa50024 	sw	a1,36(sp)
9d00d248:	afa80064 	sw	t0,100(sp)
9d00d24c:	afa60060 	sw	a2,96(sp)
9d00d250:	afa70020 	sw	a3,32(sp)
9d00d254:	afaa001c 	sw	t2,28(sp)
9d00d258:	0f4043f4 	jal	9d010fd0 <toupper>
9d00d25c:	afa90018 	sw	t1,24(sp)
9d00d260:	8fab0028 	lw	t3,40(sp)
9d00d264:	8fa50024 	lw	a1,36(sp)
9d00d268:	8fa80064 	lw	t0,100(sp)
9d00d26c:	8fa60060 	lw	a2,96(sp)
9d00d270:	8fa70020 	lw	a3,32(sp)
9d00d274:	8faa001c 	lw	t2,28(sp)
9d00d278:	8fa90018 	lw	t1,24(sp)
9d00d27c:	2610ffff 	addiu	s0,s0,-1
9d00d280:	02b01821 	addu	v1,s5,s0
9d00d284:	a0620000 	sb	v0,0(v1)
9d00d288:	0014a102 	srl	s4,s4,0x4
9d00d28c:	00171700 	sll	v0,s7,0x1c
9d00d290:	2631ffff 	addiu	s1,s1,-1
9d00d294:	0054a025 	or	s4,v0,s4
9d00d298:	1000ffa6 	b	9d00d134 <__fmt_x+0x9c>
9d00d29c:	0017b902 	srl	s7,s7,0x4

Disassembly of section .text:

9d00d2a0 <NU32DIP_Startup>:
#include "nu32dip.h"

void NU32DIP_Startup() {
9d00d2a0:	27bdfff8 	addiu	sp,sp,-8
9d00d2a4:	afbf0004 	sw	ra,4(sp)
    __builtin_disable_interrupts(); // disable interrupts while initializing things
9d00d2a8:	41626000 	di	v0
9d00d2ac:	000000c0 	ehb

    // set the CP0 CONFIG register to indicate that kseg0 is cacheable (0x3)
    __builtin_mtc0(_CP0_CONFIG, _CP0_CONFIG_SELECT, 0xa4210583);
9d00d2b0:	3c02a421 	lui	v0,0xa421
9d00d2b4:	24420583 	addiu	v0,v0,1411
9d00d2b8:	40828000 	mtc0	v0,c0_config
9d00d2bc:	000000c0 	ehb

    // 0 data RAM access wait states
    BMXCONbits.BMXWSDRM = 0x0;
9d00d2c0:	3c02bf88 	lui	v0,0xbf88
9d00d2c4:	8c432000 	lw	v1,8192(v0)
9d00d2c8:	7c033184 	ins	v1,zero,0x6,0x1
9d00d2cc:	ac432000 	sw	v1,8192(v0)

    // enable multi vector interrupts
    INTCONbits.MVEC = 0x1;
9d00d2d0:	3c02bf88 	lui	v0,0xbf88
9d00d2d4:	8c441000 	lw	a0,4096(v0)
9d00d2d8:	24030001 	li	v1,1
9d00d2dc:	7c646304 	ins	a0,v1,0xc,0x1
9d00d2e0:	ac441000 	sw	a0,4096(v0)

    // disable JTAG to get pins back
    DDPCONbits.JTAGEN = 0;
9d00d2e4:	3c02bf81 	lui	v0,0xbf81
9d00d2e8:	9444f200 	lhu	a0,-3584(v0)
9d00d2ec:	7c0418c4 	ins	a0,zero,0x3,0x1
9d00d2f0:	a444f200 	sh	a0,-3584(v0)

    // do your TRIS and LAT commands here
    TRISBCLR = 0b110000; // B4 and B5 LEDs
9d00d2f4:	3c02bf88 	lui	v0,0xbf88
9d00d2f8:	24040030 	li	a0,48
9d00d2fc:	ac446114 	sw	a0,24852(v0)
    TRISASET = 0b010000; // A4 user button
9d00d300:	3c02bf88 	lui	v0,0xbf88
9d00d304:	24040010 	li	a0,16
9d00d308:	ac446018 	sw	a0,24600(v0)
    //NU32_LED1 = 1; // LED1 is off
    NU32DIP_YELLOW = 1;
9d00d30c:	3c02bf88 	lui	v0,0xbf88
9d00d310:	94446130 	lhu	a0,24880(v0)
9d00d314:	7c642944 	ins	a0,v1,0x5,0x1
9d00d318:	a4446130 	sh	a0,24880(v0)
    //NU32_LED2 = 0; // LED2 is on
    NU32DIP_GREEN = 0;
9d00d31c:	94446130 	lhu	a0,24880(v0)
9d00d320:	7c042104 	ins	a0,zero,0x4,0x1
9d00d324:	a4446130 	sh	a0,24880(v0)

    //UART1 pins
    U1RXRbits.U1RXR = 0b0000; // Set A2 to U1RX
9d00d328:	3c02bf81 	lui	v0,0xbf81
9d00d32c:	9044fa50 	lbu	a0,-1456(v0)
9d00d330:	7c041804 	ins	a0,zero,0x0,0x4
9d00d334:	a044fa50 	sb	a0,-1456(v0)
    RPB3Rbits.RPB3R = 0b0001; // Set B3 to U1TX
9d00d338:	3c02bf81 	lui	v0,0xbf81
9d00d33c:	9044fb38 	lbu	a0,-1224(v0)
9d00d340:	7c641804 	ins	a0,v1,0x0,0x4
9d00d344:	a044fb38 	sb	a0,-1224(v0)

    // turn on UART1 without an interrupt
    U1MODEbits.BRGH = 0; // set baud to NU32_DESIRED_BAUD
9d00d348:	3c02bf80 	lui	v0,0xbf80
9d00d34c:	94446000 	lhu	a0,24576(v0)
9d00d350:	7c0418c4 	ins	a0,zero,0x3,0x1
9d00d354:	a4446000 	sh	a0,24576(v0)
    U1BRG = ((NU32DIP_SYS_FREQ / NU32DIP_DESIRED_BAUD) / 16) - 1;
9d00d358:	3c04bf80 	lui	a0,0xbf80
9d00d35c:	2405000c 	li	a1,12
9d00d360:	ac856040 	sw	a1,24640(a0)

    // 8 bit, no parity bit, and 1 stop bit (8N1 setup)
    U1MODEbits.PDSEL = 0;
9d00d364:	94446000 	lhu	a0,24576(v0)
9d00d368:	7c041044 	ins	a0,zero,0x1,0x2
9d00d36c:	a4446000 	sh	a0,24576(v0)
    U1MODEbits.STSEL = 0;
9d00d370:	94446000 	lhu	a0,24576(v0)
9d00d374:	7c040004 	ins	a0,zero,0x0,0x1
9d00d378:	a4446000 	sh	a0,24576(v0)

    // configure TX & RX pins as output & input pins
    U1STAbits.UTXEN = 1;
9d00d37c:	3c04bf80 	lui	a0,0xbf80
9d00d380:	8c856010 	lw	a1,24592(a0)
9d00d384:	7c655284 	ins	a1,v1,0xa,0x1
9d00d388:	ac856010 	sw	a1,24592(a0)
    U1STAbits.URXEN = 1;
9d00d38c:	8c856010 	lw	a1,24592(a0)
9d00d390:	7c656304 	ins	a1,v1,0xc,0x1
9d00d394:	ac856010 	sw	a1,24592(a0)
    // configure without hardware flow control
    U1MODEbits.UEN = 0;
9d00d398:	94446000 	lhu	a0,24576(v0)
9d00d39c:	7c044a04 	ins	a0,zero,0x8,0x2
9d00d3a0:	a4446000 	sh	a0,24576(v0)

    // enable the uart
    U1MODEbits.ON = 1;
9d00d3a4:	94446000 	lhu	a0,24576(v0)
9d00d3a8:	7c647bc4 	ins	a0,v1,0xf,0x1
9d00d3ac:	a4446000 	sh	a0,24576(v0)

    __builtin_enable_interrupts();
9d00d3b0:	41626020 	ei	v0
}
9d00d3b4:	8fbf0004 	lw	ra,4(sp)
9d00d3b8:	03e00008 	jr	ra
9d00d3bc:	27bd0008 	addiu	sp,sp,8

9d00d3c0 <NU32DIP_ReadUART1>:
// block other functions until you get a '\r' or '\n'
// send the pointer to your char array and the number of elements in the array

void NU32DIP_ReadUART1(char * message, int maxLength) {
    char data = 0;
    int complete = 0, num_bytes = 0;
9d00d3c0:	00001025 	move	v0,zero
    // loop until you get a '\r' or '\n'
    while (!complete) {
        if (U1STAbits.URXDA) { // if data is available
9d00d3c4:	3c0abf80 	lui	t2,0xbf80
            data = U1RXREG; // read the data
9d00d3c8:	3c09bf80 	lui	t1,0xbf80
            if ((data == '\n') || (data == '\r')) {
9d00d3cc:	2408000a 	li	t0,10
9d00d3d0:	2407000d 	li	a3,13
        if (U1STAbits.URXDA) { // if data is available
9d00d3d4:	8d436010 	lw	v1,24592(t2)
9d00d3d8:	30630001 	andi	v1,v1,0x1
9d00d3dc:	1060fffd 	beqz	v1,9d00d3d4 <NU32DIP_ReadUART1+0x14>
9d00d3e0:	00000000 	nop
            data = U1RXREG; // read the data
9d00d3e4:	8d236030 	lw	v1,24624(t1)
9d00d3e8:	7c031c20 	seb	v1,v1
            if ((data == '\n') || (data == '\r')) {
9d00d3ec:	5068000b 	beql	v1,t0,9d00d41c <NU32DIP_ReadUART1+0x5c>
9d00d3f0:	00822021 	addu	a0,a0,v0
9d00d3f4:	10670008 	beq	v1,a3,9d00d418 <NU32DIP_ReadUART1+0x58>
9d00d3f8:	24460001 	addiu	a2,v0,1
                complete = 1;
            } else {
                message[num_bytes] = data;
                ++num_bytes;
                // roll over if the array is too small
                if (num_bytes >= maxLength) {
9d00d3fc:	00c5302a 	slt	a2,a2,a1
                    num_bytes = 0;
9d00d400:	244b0001 	addiu	t3,v0,1
                message[num_bytes] = data;
9d00d404:	00821021 	addu	v0,a0,v0
9d00d408:	a0430000 	sb	v1,0(v0)
9d00d40c:	01601025 	move	v0,t3
9d00d410:	1000fff0 	b	9d00d3d4 <NU32DIP_ReadUART1+0x14>
9d00d414:	0006100a 	movz	v0,zero,a2
                }
            }
        }
    }
    // end the string
    message[num_bytes] = '\0';
9d00d418:	00822021 	addu	a0,a0,v0
}
9d00d41c:	03e00008 	jr	ra
9d00d420:	a0800000 	sb	zero,0(a0)

9d00d424 <NU32DIP_WriteUART1>:

// Write a character array using UART1

void NU32DIP_WriteUART1(const char * string) {
    while (*string != '\0') {
9d00d424:	80820000 	lb	v0,0(a0)
9d00d428:	1040000b 	beqz	v0,9d00d458 <NU32DIP_WriteUART1+0x34>
9d00d42c:	3c06bf80 	lui	a2,0xbf80
        while (U1STAbits.UTXBF) {
            ; // wait until tx buffer isn't full
        }
        U1TXREG = *string;
9d00d430:	3c05bf80 	lui	a1,0xbf80
        while (U1STAbits.UTXBF) {
9d00d434:	8cc36010 	lw	v1,24592(a2)
9d00d438:	7c630240 	ext	v1,v1,0x9,0x1
9d00d43c:	1460fffd 	bnez	v1,9d00d434 <NU32DIP_WriteUART1+0x10>
9d00d440:	00000000 	nop
        U1TXREG = *string;
9d00d444:	aca26020 	sw	v0,24608(a1)
        ++string;
9d00d448:	24840001 	addiu	a0,a0,1
    while (*string != '\0') {
9d00d44c:	80820000 	lb	v0,0(a0)
9d00d450:	1440fff8 	bnez	v0,9d00d434 <NU32DIP_WriteUART1+0x10>
9d00d454:	00000000 	nop
    }
}
9d00d458:	03e00008 	jr	ra
9d00d45c:	00000000 	nop

Disassembly of section .text.fp32mul:

9d00d460 <__mulsf3>:
9d00d460:	00043dc2 30e700ff 00054dc2 312900ff     .=.....0.M....)1
9d00d470:	3c0a8000 00043200 00ca3025 00054200     ...<.2..%0...B..
9d00d480:	010a4025 00856026 014c5024 24ecffff     %@..&`..$PL....$
9d00d490:	2d8100fe 10200021 00000000              ...-!. .....

9d00d49c <Clab1>:
9d00d49c:	252cffff 	addiu	t4,t1,-1
9d00d4a0:	2d8100fe 	sltiu	at,t4,254
9d00d4a4:	10200036 	beqz	at,9d00d580 <CspecB>
9d00d4a8:	00000000 	nop

9d00d4ac <Clab2>:
9d00d4ac:	00c80019 	multu	a2,t0
9d00d4b0:	00005812 	mflo	t3
9d00d4b4:	11600002 	beqz	t3,9d00d4c0 <i17>
9d00d4b8:	00003010 	mfhi	a2
9d00d4bc:	34c60001 	ori	a2,a2,0x1

9d00d4c0 <i17>:
9d00d4c0:	04c00003 	bltz	a2,9d00d4d0 <i18>
9d00d4c4:	00000000 	nop
9d00d4c8:	00063040 	sll	a2,a2,0x1
9d00d4cc:	24e7ffff 	addiu	a3,a3,-1

9d00d4d0 <i18>:
9d00d4d0:	252cff82 	addiu	t4,t1,-126
9d00d4d4:	00ec3821 	addu	a3,a3,t4
9d00d4d8:	24ecffff 	addiu	t4,a3,-1
9d00d4dc:	2d8100fe 	sltiu	at,t4,254
9d00d4e0:	1020003a 	beqz	at,9d00d5cc <Coveund>
9d00d4e4:	00000000 	nop

9d00d4e8 <Clab8>:
9d00d4e8:	24c60080 	addiu	a2,a2,128
9d00d4ec:	2ccc0080 	sltiu	t4,a2,128
9d00d4f0:	00ec3821 	addu	a3,a3,t4
9d00d4f4:	00066202 	srl	t4,a2,0x8
9d00d4f8:	318c0001 	andi	t4,t4,0x1
9d00d4fc:	00cc3023 	subu	a2,a2,t4
9d00d500:	00063040 	sll	a2,a2,0x1
9d00d504:	00063242 	srl	a2,a2,0x9
9d00d508:	000765c0 	sll	t4,a3,0x17
9d00d50c:	00cc3025 	or	a2,a2,t4
9d00d510:	00ca1025 	or	v0,a2,t2

9d00d514 <C999>:
9d00d514:	03e00008 	jr	ra
9d00d518:	00000000 	nop

9d00d51c <CspecA>:
9d00d51c:	14e0000d 	bnez	a3,9d00d554 <i19>
9d00d520:	00000000 	nop
9d00d524:	00c63021 	addu	a2,a2,a2
9d00d528:	10c00005 	beqz	a2,9d00d540 <i20>
9d00d52c:	00000000 	nop
9d00d530:	70cb5820 	clz	t3,a2
9d00d534:	00eb3823 	subu	a3,a3,t3
9d00d538:	1000ffd8 	b	9d00d49c <Clab1>
9d00d53c:	01663004 	sllv	a2,a2,t3

9d00d540 <i20>:
9d00d540:	240100ff 	li	at,255
9d00d544:	1121001f 	beq	t1,at,9d00d5c4 <Cnan>
9d00d548:	00000000 	nop
9d00d54c:	10000015 	b	9d00d5a4 <Czer>
9d00d550:	00000000 	nop

9d00d554 <i19>:
9d00d554:	00c66021 	addu	t4,a2,a2
9d00d558:	1580001a 	bnez	t4,9d00d5c4 <Cnan>
9d00d55c:	00000000 	nop
9d00d560:	15200004 	bnez	t1,9d00d574 <i21>
9d00d564:	00000000 	nop
9d00d568:	01086021 	addu	t4,t0,t0
9d00d56c:	11800015 	beqz	t4,9d00d5c4 <Cnan>
9d00d570:	00000000 	nop

9d00d574 <i21>:
9d00d574:	240100ff 	li	at,255
9d00d578:	1521000f 	bne	t1,at,9d00d5b8 <Cinf>
9d00d57c:	00000000 	nop

9d00d580 <CspecB>:
9d00d580:	1520000a 	bnez	t1,9d00d5ac <i22>
9d00d584:	00000000 	nop
9d00d588:	01084021 	addu	t0,t0,t0
9d00d58c:	11000005 	beqz	t0,9d00d5a4 <Czer>
9d00d590:	00000000 	nop
9d00d594:	710b5820 	clz	t3,t0
9d00d598:	012b4823 	subu	t1,t1,t3
9d00d59c:	1000ffc3 	b	9d00d4ac <Clab2>
9d00d5a0:	01684004 	sllv	t0,t0,t3

9d00d5a4 <Czer>:
9d00d5a4:	1000ffdb 	b	9d00d514 <C999>
9d00d5a8:	000a1025 	or	v0,zero,t2

9d00d5ac <i22>:
9d00d5ac:	01086021 	addu	t4,t0,t0
9d00d5b0:	15800004 	bnez	t4,9d00d5c4 <Cnan>
9d00d5b4:	00000000 	nop

9d00d5b8 <Cinf>:
9d00d5b8:	3c017f80 	lui	at,0x7f80
9d00d5bc:	1000ffd5 	b	9d00d514 <C999>
9d00d5c0:	01411025 	or	v0,t2,at

9d00d5c4 <Cnan>:
9d00d5c4:	1000ffd3 	b	9d00d514 <C999>
9d00d5c8:	3c02ffc0 	lui	v0,0xffc0

9d00d5cc <Coveund>:
9d00d5cc:	1ce0fffa 	bgtz	a3,9d00d5b8 <Cinf>
9d00d5d0:	00000000 	nop
9d00d5d4:	240b0001 	li	t3,1
9d00d5d8:	01675823 	subu	t3,t3,a3
9d00d5dc:	2d610020 	sltiu	at,t3,32
9d00d5e0:	1020fff0 	beqz	at,9d00d5a4 <Czer>
9d00d5e4:	00000000 	nop
9d00d5e8:	240c0020 	li	t4,32
9d00d5ec:	018b6023 	subu	t4,t4,t3
9d00d5f0:	01863804 	sllv	a3,a2,t4
9d00d5f4:	10e00002 	beqz	a3,9d00d600 <i25>
9d00d5f8:	01663006 	srlv	a2,a2,t3
9d00d5fc:	34c60002 	ori	a2,a2,0x2

9d00d600 <i25>:
9d00d600:	24070000 	li	a3,0
9d00d604:	24cc0080 	addiu	t4,a2,128
9d00d608:	0581ffb7 	bgez	t4,9d00d4e8 <Clab8>
9d00d60c:	00000000 	nop
9d00d610:	1000ffb5 	b	9d00d4e8 <Clab8>
9d00d614:	24070001 	li	a3,1
9d00d618:	00000000 	nop

Disassembly of section .text.free:

9d00d61c <free>:
9d00d61c:	10800063 	beqz	a0,9d00d7ac <free+0x190>
9d00d620:	00000000 	nop
9d00d624:	8c82fffc 	lw	v0,-4(a0)
9d00d628:	27bdffd0 	addiu	sp,sp,-48
9d00d62c:	afb2001c 	sw	s2,28(sp)
9d00d630:	00409025 	move	s2,v0
9d00d634:	afb00014 	sw	s0,20(sp)
9d00d638:	7c120004 	ins	s2,zero,0x0,0x1
9d00d63c:	2490fff8 	addiu	s0,a0,-8
9d00d640:	afb10018 	sw	s1,24(sp)
9d00d644:	02128821 	addu	s1,s0,s2
9d00d648:	8e230000 	lw	v1,0(s1)
9d00d64c:	afb40024 	sw	s4,36(sp)
9d00d650:	afbf002c 	sw	ra,44(sp)
9d00d654:	afb50028 	sw	s5,40(sp)
9d00d658:	afb30020 	sw	s3,32(sp)
9d00d65c:	10430003 	beq	v0,v1,9d00d66c <free+0x50>
9d00d660:	2414fffe 	li	s4,-2
9d00d664:	a0000000 	sb	zero,0(zero)
9d00d668:	00000034 	teq	zero,zero
9d00d66c:	8e020000 	lw	v0,0(s0)
9d00d670:	8e230004 	lw	v1,4(s1)
9d00d674:	00431024 	and	v0,v0,v1
9d00d678:	30420001 	andi	v0,v0,0x1
9d00d67c:	1440000e 	bnez	v0,9d00d6b8 <free+0x9c>
9d00d680:	36420001 	ori	v0,s2,0x1
9d00d684:	0f404002 	jal	9d010008 <alloc_rev>
9d00d688:	02002025 	move	a0,s0
9d00d68c:	54400041 	bnezl	v0,9d00d794 <free+0x178>
9d00d690:	8e020000 	lw	v0,0(s0)
9d00d694:	0f404057 	jal	9d01015c <alloc_fwd>
9d00d698:	02202025 	move	a0,s1
9d00d69c:	5040fff4 	beqzl	v0,9d00d670 <free+0x54>
9d00d6a0:	8e020000 	lw	v0,0(s0)
9d00d6a4:	8e220004 	lw	v0,4(s1)
9d00d6a8:	02821024 	and	v0,s4,v0
9d00d6ac:	02429021 	addu	s2,s2,v0
9d00d6b0:	1000ffee 	b	9d00d66c <free+0x50>
9d00d6b4:	02228821 	addu	s1,s1,v0
9d00d6b8:	ae020004 	sw	v0,4(s0)
9d00d6bc:	02402025 	move	a0,s2
9d00d6c0:	0f4040a6 	jal	9d010298 <bin_index>
9d00d6c4:	ae220000 	sw	v0,0(s1)
9d00d6c8:	00402025 	move	a0,v0
9d00d6cc:	0f4042ec 	jal	9d010bb0 <lock_bin>
9d00d6d0:	00409825 	move	s3,v0
9d00d6d4:	8e020000 	lw	v0,0(s0)
9d00d6d8:	8e230004 	lw	v1,4(s1)
9d00d6dc:	00431024 	and	v0,v0,v1
9d00d6e0:	30420001 	andi	v0,v0,0x1
9d00d6e4:	1040ffe7 	beqz	v0,9d00d684 <free+0x68>
9d00d6e8:	3c15a000 	lui	s5,0xa000
9d00d6ec:	8ea416c8 	lw	a0,5832(s5)
9d00d6f0:	8ea516cc 	lw	a1,5836(s5)
9d00d6f4:	02603025 	move	a2,s3
9d00d6f8:	0f4042c0 	jal	9d010b00 <__lshrdi3>
9d00d6fc:	26b416c8 	addiu	s4,s5,5832
9d00d700:	30420001 	andi	v0,v0,0x1
9d00d704:	1440000e 	bnez	v0,9d00d740 <free+0x124>
9d00d708:	00002825 	move	a1,zero
9d00d70c:	02603025 	move	a2,s3
9d00d710:	0f4042cf 	jal	9d010b3c <__ashldi3>
9d00d714:	24040001 	li	a0,1
9d00d718:	10400004 	beqz	v0,9d00d72c <free+0x110>
9d00d71c:	00602825 	move	a1,v1
9d00d720:	8ea416c8 	lw	a0,5832(s5)
9d00d724:	00822025 	or	a0,a0,v0
9d00d728:	aea416c8 	sw	a0,5832(s5)
9d00d72c:	50a00005 	beqzl	a1,9d00d744 <free+0x128>
9d00d730:	26730001 	addiu	s3,s3,1
9d00d734:	8e820004 	lw	v0,4(s4)
9d00d738:	00431025 	or	v0,v0,v1
9d00d73c:	ae820004 	sw	v0,4(s4)
9d00d740:	26730001 	addiu	s3,s3,1
9d00d744:	001398c0 	sll	s3,s3,0x3
9d00d748:	02939821 	addu	s3,s4,s3
9d00d74c:	2662fff8 	addiu	v0,s3,-8
9d00d750:	ae120004 	sw	s2,4(s0)
9d00d754:	ae320000 	sw	s2,0(s1)
9d00d758:	ae020008 	sw	v0,8(s0)
9d00d75c:	8e620004 	lw	v0,4(s3)
9d00d760:	8fbf002c 	lw	ra,44(sp)
9d00d764:	8fb50028 	lw	s5,40(sp)
9d00d768:	ae02000c 	sw	v0,12(s0)
9d00d76c:	ae700004 	sw	s0,4(s3)
9d00d770:	8e02000c 	lw	v0,12(s0)
9d00d774:	8fb40024 	lw	s4,36(sp)
9d00d778:	8fb30020 	lw	s3,32(sp)
9d00d77c:	ac500008 	sw	s0,8(v0)
9d00d780:	8fb2001c 	lw	s2,28(sp)
9d00d784:	8fb10018 	lw	s1,24(sp)
9d00d788:	8fb00014 	lw	s0,20(sp)
9d00d78c:	03e00008 	jr	ra
9d00d790:	27bd0030 	addiu	sp,sp,48
9d00d794:	02821024 	and	v0,s4,v0
9d00d798:	02028023 	subu	s0,s0,v0
9d00d79c:	8e020004 	lw	v0,4(s0)
9d00d7a0:	02821024 	and	v0,s4,v0
9d00d7a4:	1000ffbb 	b	9d00d694 <free+0x78>
9d00d7a8:	02429021 	addu	s2,s2,v0
9d00d7ac:	03e00008 	jr	ra
9d00d7b0:	00000000 	nop

Disassembly of section .text.__pop_int:

9d00d7b4 <__pop_int>:
9d00d7b4:	24020088 	li	v0,136
9d00d7b8:	10a2003f 	beq	a1,v0,9d00d8b8 <__pop_int+0x104>
9d00d7bc:	28a20089 	slti	v0,a1,137
9d00d7c0:	1040001a 	beqz	v0,9d00d82c <__pop_int+0x78>
9d00d7c4:	24020081 	li	v0,129
9d00d7c8:	10a20054 	beq	a1,v0,9d00d91c <__pop_int+0x168>
9d00d7cc:	28a20082 	slti	v0,a1,130
9d00d7d0:	10400005 	beqz	v0,9d00d7e8 <__pop_int+0x34>
9d00d7d4:	24020080 	li	v0,128
9d00d7d8:	50a20051 	beql	a1,v0,9d00d920 <__pop_int+0x16c>
9d00d7dc:	8ce20000 	lw	v0,0(a3)
9d00d7e0:	03e00008 	jr	ra
9d00d7e4:	00001025 	move	v0,zero
9d00d7e8:	24020082 	li	v0,130
9d00d7ec:	50a2003b 	beql	a1,v0,9d00d8dc <__pop_int+0x128>
9d00d7f0:	8ce20000 	lw	v0,0(a3)
9d00d7f4:	24020084 	li	v0,132
9d00d7f8:	14a2fff9 	bne	a1,v0,9d00d7e0 <__pop_int+0x2c>
9d00d7fc:	00000000 	nop
9d00d800:	8ce20000 	lw	v0,0(a3)
9d00d804:	24430004 	addiu	v1,v0,4
9d00d808:	8c420000 	lw	v0,0(v0)
9d00d80c:	10c00027 	beqz	a2,9d00d8ac <__pop_int+0xf8>
9d00d810:	ace30000 	sw	v1,0(a3)
9d00d814:	7c021620 	seh	v0,v0
9d00d818:	ac820000 	sw	v0,0(a0)
9d00d81c:	000217c3 	sra	v0,v0,0x1f
9d00d820:	ac820004 	sw	v0,4(a0)
9d00d824:	03e00008 	jr	ra
9d00d828:	24020001 	li	v0,1
9d00d82c:	240200a0 	li	v0,160
9d00d830:	50a20036 	beql	a1,v0,9d00d90c <__pop_int+0x158>
9d00d834:	8ce20000 	lw	v0,0(a3)
9d00d838:	28a200a1 	slti	v0,a1,161
9d00d83c:	10400010 	beqz	v0,9d00d880 <__pop_int+0xcc>
9d00d840:	24020090 	li	v0,144
9d00d844:	14a2ffe6 	bne	a1,v0,9d00d7e0 <__pop_int+0x2c>
9d00d848:	00000000 	nop
9d00d84c:	8ce20000 	lw	v0,0(a3)
9d00d850:	24420007 	addiu	v0,v0,7
9d00d854:	7c021004 	ins	v0,zero,0x0,0x3
9d00d858:	8c480000 	lw	t0,0(v0)
9d00d85c:	8c490004 	lw	t1,4(v0)
9d00d860:	24420008 	addiu	v0,v0,8
9d00d864:	ace20000 	sw	v0,0(a3)
9d00d868:	ac880000 	sw	t0,0(a0)
9d00d86c:	ac890004 	sw	t1,4(a0)
9d00d870:	10c00001 	beqz	a2,9d00d878 <__pop_int+0xc4>
9d00d874:	24020001 	li	v0,1
9d00d878:	03e00008 	jr	ra
9d00d87c:	00000000 	nop
9d00d880:	240200c0 	li	v0,192
9d00d884:	50a20005 	beql	a1,v0,9d00d89c <__pop_int+0xe8>
9d00d888:	8ce20000 	lw	v0,0(a3)
9d00d88c:	240200f0 	li	v0,240
9d00d890:	14a2ffd3 	bne	a1,v0,9d00d7e0 <__pop_int+0x2c>
9d00d894:	00000000 	nop
9d00d898:	8ce20000 	lw	v0,0(a3)
9d00d89c:	24430004 	addiu	v1,v0,4
9d00d8a0:	ace30000 	sw	v1,0(a3)
9d00d8a4:	10000002 	b	9d00d8b0 <__pop_int+0xfc>
9d00d8a8:	8c420000 	lw	v0,0(v0)
9d00d8ac:	3042ffff 	andi	v0,v0,0xffff
9d00d8b0:	10000020 	b	9d00d934 <__pop_int+0x180>
9d00d8b4:	ac820000 	sw	v0,0(a0)
9d00d8b8:	8ce20000 	lw	v0,0(a3)
9d00d8bc:	24430004 	addiu	v1,v0,4
9d00d8c0:	8c420000 	lw	v0,0(v0)
9d00d8c4:	10c00003 	beqz	a2,9d00d8d4 <__pop_int+0x120>
9d00d8c8:	ace30000 	sw	v1,0(a3)
9d00d8cc:	1000ffd2 	b	9d00d818 <__pop_int+0x64>
9d00d8d0:	7c021420 	seb	v0,v0
9d00d8d4:	1000fff6 	b	9d00d8b0 <__pop_int+0xfc>
9d00d8d8:	304200ff 	andi	v0,v0,0xff
9d00d8dc:	24420007 	addiu	v0,v0,7
9d00d8e0:	7c021004 	ins	v0,zero,0x0,0x3
9d00d8e4:	8c480000 	lw	t0,0(v0)
9d00d8e8:	8c490004 	lw	t1,4(v0)
9d00d8ec:	24420008 	addiu	v0,v0,8
9d00d8f0:	ace20000 	sw	v0,0(a3)
9d00d8f4:	ac880000 	sw	t0,0(a0)
9d00d8f8:	ac890004 	sw	t1,4(a0)
9d00d8fc:	10c0ffde 	beqz	a2,9d00d878 <__pop_int+0xc4>
9d00d900:	24020001 	li	v0,1
9d00d904:	03e00008 	jr	ra
9d00d908:	00000000 	nop
9d00d90c:	24430004 	addiu	v1,v0,4
9d00d910:	ace30000 	sw	v1,0(a3)
9d00d914:	1000ffc0 	b	9d00d818 <__pop_int+0x64>
9d00d918:	8c420000 	lw	v0,0(v0)
9d00d91c:	8ce20000 	lw	v0,0(a3)
9d00d920:	24430004 	addiu	v1,v0,4
9d00d924:	ace30000 	sw	v1,0(a3)
9d00d928:	8c420000 	lw	v0,0(v0)
9d00d92c:	14c0ffbb 	bnez	a2,9d00d81c <__pop_int+0x68>
9d00d930:	ac820000 	sw	v0,0(a0)
9d00d934:	1000ffbb 	b	9d00d824 <__pop_int+0x70>
9d00d938:	ac800004 	sw	zero,4(a0)

Disassembly of section .text.__push_int:

9d00d93c <__push_int>:
9d00d93c:	24020088 	li	v0,136
9d00d940:	50a2003c 	beql	a1,v0,9d00da34 <__push_int+0xf8>
9d00d944:	8ce20000 	lw	v0,0(a3)
9d00d948:	28a20089 	slti	v0,a1,137
9d00d94c:	10400019 	beqz	v0,9d00d9b4 <__push_int+0x78>
9d00d950:	24020081 	li	v0,129
9d00d954:	50a20040 	beql	a1,v0,9d00da58 <__push_int+0x11c>
9d00d958:	8ce20000 	lw	v0,0(a3)
9d00d95c:	28a20082 	slti	v0,a1,130
9d00d960:	10400005 	beqz	v0,9d00d978 <__push_int+0x3c>
9d00d964:	24020080 	li	v0,128
9d00d968:	50a20048 	beql	a1,v0,9d00da8c <__push_int+0x150>
9d00d96c:	8ce20000 	lw	v0,0(a3)
9d00d970:	03e00008 	jr	ra
9d00d974:	00001025 	move	v0,zero
9d00d978:	24020082 	li	v0,130
9d00d97c:	10a20015 	beq	a1,v0,9d00d9d4 <__push_int+0x98>
9d00d980:	24020084 	li	v0,132
9d00d984:	14a2fffa 	bne	a1,v0,9d00d970 <__push_int+0x34>
9d00d988:	00000000 	nop
9d00d98c:	8ce20000 	lw	v0,0(a3)
9d00d990:	8c830000 	lw	v1,0(a0)
9d00d994:	24440004 	addiu	a0,v0,4
9d00d998:	ace40000 	sw	a0,0(a3)
9d00d99c:	8c420000 	lw	v0,0(v0)
9d00d9a0:	a4430000 	sh	v1,0(v0)
9d00d9a4:	10c00001 	beqz	a2,9d00d9ac <__push_int+0x70>
9d00d9a8:	24020001 	li	v0,1
9d00d9ac:	03e00008 	jr	ra
9d00d9b0:	00000000 	nop
9d00d9b4:	240200a0 	li	v0,160
9d00d9b8:	50a20018 	beql	a1,v0,9d00da1c <__push_int+0xe0>
9d00d9bc:	8ce20000 	lw	v0,0(a3)
9d00d9c0:	28a200a1 	slti	v0,a1,161
9d00d9c4:	1040000e 	beqz	v0,9d00da00 <__push_int+0xc4>
9d00d9c8:	24020090 	li	v0,144
9d00d9cc:	14a2ffe8 	bne	a1,v0,9d00d970 <__push_int+0x34>
9d00d9d0:	00000000 	nop
9d00d9d4:	8ce20000 	lw	v0,0(a3)
9d00d9d8:	10c00028 	beqz	a2,9d00da7c <__push_int+0x140>
9d00d9dc:	24430004 	addiu	v1,v0,4
9d00d9e0:	ace30000 	sw	v1,0(a3)
9d00d9e4:	8c850004 	lw	a1,4(a0)
9d00d9e8:	8c840000 	lw	a0,0(a0)
9d00d9ec:	8c420000 	lw	v0,0(v0)
9d00d9f0:	ac440000 	sw	a0,0(v0)
9d00d9f4:	ac450004 	sw	a1,4(v0)
9d00d9f8:	03e00008 	jr	ra
9d00d9fc:	24020001 	li	v0,1
9d00da00:	240200c0 	li	v0,192
9d00da04:	50a20005 	beql	a1,v0,9d00da1c <__push_int+0xe0>
9d00da08:	8ce20000 	lw	v0,0(a3)
9d00da0c:	240200f0 	li	v0,240
9d00da10:	14a2ffd7 	bne	a1,v0,9d00d970 <__push_int+0x34>
9d00da14:	00000000 	nop
9d00da18:	8ce20000 	lw	v0,0(a3)
9d00da1c:	8c830000 	lw	v1,0(a0)
9d00da20:	24440004 	addiu	a0,v0,4
9d00da24:	ace40000 	sw	a0,0(a3)
9d00da28:	8c420000 	lw	v0,0(v0)
9d00da2c:	1000fff2 	b	9d00d9f8 <__push_int+0xbc>
9d00da30:	ac430000 	sw	v1,0(v0)
9d00da34:	8c830000 	lw	v1,0(a0)
9d00da38:	24440004 	addiu	a0,v0,4
9d00da3c:	ace40000 	sw	a0,0(a3)
9d00da40:	8c420000 	lw	v0,0(v0)
9d00da44:	a0430000 	sb	v1,0(v0)
9d00da48:	10c0ffd8 	beqz	a2,9d00d9ac <__push_int+0x70>
9d00da4c:	24020001 	li	v0,1
9d00da50:	03e00008 	jr	ra
9d00da54:	00000000 	nop
9d00da58:	8c830000 	lw	v1,0(a0)
9d00da5c:	24440004 	addiu	a0,v0,4
9d00da60:	ace40000 	sw	a0,0(a3)
9d00da64:	8c420000 	lw	v0,0(v0)
9d00da68:	ac430000 	sw	v1,0(v0)
9d00da6c:	10c0ffcf 	beqz	a2,9d00d9ac <__push_int+0x70>
9d00da70:	24020001 	li	v0,1
9d00da74:	03e00008 	jr	ra
9d00da78:	00000000 	nop
9d00da7c:	8c850004 	lw	a1,4(a0)
9d00da80:	8c840000 	lw	a0,0(a0)
9d00da84:	1000ffd9 	b	9d00d9ec <__push_int+0xb0>
9d00da88:	ace30000 	sw	v1,0(a3)
9d00da8c:	8c830000 	lw	v1,0(a0)
9d00da90:	24440004 	addiu	a0,v0,4
9d00da94:	ace40000 	sw	a0,0(a3)
9d00da98:	8c420000 	lw	v0,0(v0)
9d00da9c:	ac430000 	sw	v1,0(v0)
9d00daa0:	24020001 	li	v0,1
9d00daa4:	03e00008 	jr	ra
9d00daa8:	00000000 	nop

Disassembly of section .text.libm:

9d00daac <__mchp_ldexp>:
9d00daac:	00054840 00094d42 252cffff 2d8107fe     @H..BM....,%...-
9d00dabc:	1020000f 00000000                       .. .....

9d00dac4 <Clab1>:
9d00dac4:	01264821 	addu	t1,t1,a2
9d00dac8:	252cffff 	addiu	t4,t1,-1
9d00dacc:	2d8107fe 	sltiu	at,t4,2046
9d00dad0:	10200021 	beqz	at,9d00db58 <Cspec2>
9d00dad4:	00000000 	nop
9d00dad8:	3c01800f 	lui	at,0x800f
9d00dadc:	3421ffff 	ori	at,at,0xffff
9d00dae0:	00a12824 	and	a1,a1,at
9d00dae4:	00096500 	sll	t4,t1,0x14
9d00dae8:	00ac2825 	or	a1,a1,t4

9d00daec <Cret>:
9d00daec:	00041025 	or	v0,zero,a0
9d00daf0:	00051825 	or	v1,zero,a1

9d00daf4 <C999>:
9d00daf4:	03e00008 	jr	ra
9d00daf8:	00000000 	nop

9d00dafc <Cspec>:
9d00dafc:	00056300 	sll	t4,a1,0xc
9d00db00:	01846025 	or	t4,t4,a0
9d00db04:	1180fff9 	beqz	t4,9d00daec <Cret>
9d00db08:	00000000 	nop
9d00db0c:	11200004 	beqz	t1,9d00db20 <i9>
9d00db10:	00000000 	nop
9d00db14:	3c05fff8 	lui	a1,0xfff8
9d00db18:	1000fff4 	b	9d00daec <Cret>
9d00db1c:	24040000 	li	a0,0

9d00db20 <i9>:
9d00db20:	25290001 	addiu	t1,t1,1
9d00db24:	3c018000 	lui	at,0x8000
9d00db28:	00a15024 	and	t2,a1,at

9d00db2c <b10>:
9d00db2c:	2529ffff 	addiu	t1,t1,-1
9d00db30:	0080602a 	slt	t4,a0,zero
9d00db34:	00842021 	addu	a0,a0,a0
9d00db38:	00a52821 	addu	a1,a1,a1
9d00db3c:	00ac2821 	addu	a1,a1,t4
9d00db40:	3c010010 	lui	at,0x10
9d00db44:	00a1082b 	sltu	at,a1,at
9d00db48:	1420fff8 	bnez	at,9d00db2c <b10>
9d00db4c:	00000000 	nop
9d00db50:	1000ffdc 	b	9d00dac4 <Clab1>
9d00db54:	00aa2825 	or	a1,a1,t2

9d00db58 <Cspec2>:
9d00db58:	000542c0 	sll	t0,a1,0xb
9d00db5c:	00046542 	srl	t4,a0,0x15
9d00db60:	010c4025 	or	t0,t0,t4
9d00db64:	00043ac0 	sll	a3,a0,0xb
9d00db68:	3c018000 	lui	at,0x8000
9d00db6c:	01014025 	or	t0,t0,at
9d00db70:	3c018000 	lui	at,0x8000
9d00db74:	19200005 	blez	t1,9d00db8c <i11>
9d00db78:	00a12824 	and	a1,a1,at
9d00db7c:	3c017ff0 	lui	at,0x7ff0
9d00db80:	00a12825 	or	a1,a1,at
9d00db84:	1000ffd9 	b	9d00daec <Cret>
9d00db88:	24040000 	li	a0,0

9d00db8c <i11>:
9d00db8c:	240a0001 	li	t2,1
9d00db90:	01495023 	subu	t2,t2,t1

9d00db94 <L13>:
9d00db94:	2d410020 	sltiu	at,t2,32
9d00db98:	14200007 	bnez	at,9d00dbb8 <L14>
9d00db9c:	00000000 	nop
9d00dba0:	214affe0 	addi	t2,t2,-32
9d00dba4:	0007202b 	sltu	a0,zero,a3
9d00dba8:	1008000d 	beq	zero,t0,9d00dbe0 <L15>
9d00dbac:	01043825 	or	a3,t0,a0
9d00dbb0:	1000fff8 	b	9d00db94 <L13>
9d00dbb4:	34080000 	li	t0,0x0

9d00dbb8 <L14>:
9d00dbb8:	11400009 	beqz	t2,9d00dbe0 <L15>
9d00dbbc:	00000000 	nop
9d00dbc0:	000a5822 	neg	t3,t2
9d00dbc4:	01672004 	sllv	a0,a3,t3
9d00dbc8:	01685804 	sllv	t3,t0,t3
9d00dbcc:	01473806 	srlv	a3,a3,t2
9d00dbd0:	01484006 	srlv	t0,t0,t2
9d00dbd4:	10800002 	beqz	a0,9d00dbe0 <L15>
9d00dbd8:	01673825 	or	a3,t3,a3
9d00dbdc:	34e70002 	ori	a3,a3,0x2

9d00dbe0 <L15>:
9d00dbe0:	24e70400 	addiu	a3,a3,1024
9d00dbe4:	2cec0400 	sltiu	t4,a3,1024
9d00dbe8:	010c4021 	addu	t0,t0,t4
9d00dbec:	000762c2 	srl	t4,a3,0xb
9d00dbf0:	318c0001 	andi	t4,t4,0x1
9d00dbf4:	00ec3823 	subu	a3,a3,t4
9d00dbf8:	000722c2 	srl	a0,a3,0xb
9d00dbfc:	00086540 	sll	t4,t0,0x15
9d00dc00:	008c2025 	or	a0,a0,t4
9d00dc04:	00086040 	sll	t4,t0,0x1
9d00dc08:	000c6302 	srl	t4,t4,0xc
9d00dc0c:	1000ffb7 	b	9d00daec <Cret>
9d00dc10:	00ac2825 	or	a1,a1,t4
9d00dc14:	00000000 	nop

Disassembly of section .text._sbrk_init:

9d00dc18 <_sbrk_init>:
9d00dc18:	27bdffd8 	addiu	sp,sp,-40
9d00dc1c:	afb40020 	sw	s4,32(sp)
9d00dc20:	3c14a000 	lui	s4,0xa000
9d00dc24:	8e821938 	lw	v0,6456(s4)
9d00dc28:	afbf0024 	sw	ra,36(sp)
9d00dc2c:	afb3001c 	sw	s3,28(sp)
9d00dc30:	afb20018 	sw	s2,24(sp)
9d00dc34:	afb10014 	sw	s1,20(sp)
9d00dc38:	1440003a 	bnez	v0,9d00dd24 <_sbrk_init+0x10c>
9d00dc3c:	afb00010 	sw	s0,16(sp)
9d00dc40:	3c12a000 	lui	s2,0xa000
9d00dc44:	8e511940 	lw	s1,6464(s2)
9d00dc48:	16200003 	bnez	s1,9d00dc58 <_sbrk_init+0x40>
9d00dc4c:	3c13a000 	lui	s3,0xa000
9d00dc50:	3c11a000 	lui	s1,0xa000
9d00dc54:	26311950 	addiu	s1,s1,6480
9d00dc58:	8e70193c 	lw	s0,6460(s3)
9d00dc5c:	16000005 	bnez	s0,9d00dc74 <_sbrk_init+0x5c>
9d00dc60:	3c020000 	lui	v0,0x0
9d00dc64:	3c10a000 	lui	s0,0xa000
9d00dc68:	26101950 	addiu	s0,s0,6480
9d00dc6c:	24420000 	addiu	v0,v0,0
9d00dc70:	02028021 	addu	s0,s0,v0
9d00dc74:	00111f82 	srl	v1,s1,0x1e
9d00dc78:	24020002 	li	v0,2
9d00dc7c:	50620001 	beql	v1,v0,9d00dc84 <_sbrk_init+0x6c>
9d00dc80:	7e31e000 	ext	s1,s1,0x0,0x1d
9d00dc84:	00101f82 	srl	v1,s0,0x1e
9d00dc88:	24020002 	li	v0,2
9d00dc8c:	50620001 	beql	v1,v0,9d00dc94 <_sbrk_init+0x7c>
9d00dc90:	7e10e000 	ext	s0,s0,0x0,0x1d
9d00dc94:	0f40436d 	jal	9d010db4 <_stub_sbd_memlayout>
9d00dc98:	00000000 	nop
9d00dc9c:	8c430000 	lw	v1,0(v0)
9d00dca0:	8c420004 	lw	v0,4(v0)
9d00dca4:	0223202b 	sltu	a0,s1,v1
9d00dca8:	14800004 	bnez	a0,9d00dcbc <_sbrk_init+0xa4>
9d00dcac:	00621021 	addu	v0,v1,v0
9d00dcb0:	0222202b 	sltu	a0,s1,v0
9d00dcb4:	54800029 	bnezl	a0,9d00dd5c <_sbrk_init+0x144>
9d00dcb8:	0211182b 	sltu	v1,s0,s1
9d00dcbc:	3c04a000 	lui	a0,0xa000
9d00dcc0:	24840020 	addiu	a0,a0,32
9d00dcc4:	7c84e000 	ext	a0,a0,0x0,0x1d
9d00dcc8:	0064202b 	sltu	a0,v1,a0
9d00dccc:	14800015 	bnez	a0,9d00dd24 <_sbrk_init+0x10c>
9d00dcd0:	0203202b 	sltu	a0,s0,v1
9d00dcd4:	14800004 	bnez	a0,9d00dce8 <_sbrk_init+0xd0>
9d00dcd8:	0062202b 	sltu	a0,v1,v0
9d00dcdc:	0202202b 	sltu	a0,s0,v0
9d00dce0:	14800018 	bnez	a0,9d00dd44 <_sbrk_init+0x12c>
9d00dce4:	0062202b 	sltu	a0,v1,v0
9d00dce8:	1080000f 	beqz	a0,9d00dd28 <_sbrk_init+0x110>
9d00dcec:	8fbf0024 	lw	ra,36(sp)
9d00dcf0:	3c04a000 	lui	a0,0xa000
9d00dcf4:	24840020 	addiu	a0,a0,32
9d00dcf8:	00042742 	srl	a0,a0,0x1d
9d00dcfc:	24050005 	li	a1,5
9d00dd00:	14850012 	bne	a0,a1,9d00dd4c <_sbrk_init+0x134>
9d00dd04:	24050004 	li	a1,4
9d00dd08:	3c04a000 	lui	a0,0xa000
9d00dd0c:	00641825 	or	v1,v1,a0
9d00dd10:	00441025 	or	v0,v0,a0
9d00dd14:	ae431940 	sw	v1,6464(s2)
9d00dd18:	ae62193c 	sw	v0,6460(s3)
9d00dd1c:	8e421940 	lw	v0,6464(s2)
9d00dd20:	ae821938 	sw	v0,6456(s4)
9d00dd24:	8fbf0024 	lw	ra,36(sp)
9d00dd28:	8fb40020 	lw	s4,32(sp)
9d00dd2c:	8fb3001c 	lw	s3,28(sp)
9d00dd30:	8fb20018 	lw	s2,24(sp)
9d00dd34:	8fb10014 	lw	s1,20(sp)
9d00dd38:	8fb00010 	lw	s0,16(sp)
9d00dd3c:	03e00008 	jr	ra
9d00dd40:	27bd0028 	addiu	sp,sp,40
9d00dd44:	1000ffea 	b	9d00dcf0 <_sbrk_init+0xd8>
9d00dd48:	02001025 	move	v0,s0
9d00dd4c:	1085ffef 	beq	a0,a1,9d00dd0c <_sbrk_init+0xf4>
9d00dd50:	3c048000 	lui	a0,0x8000
9d00dd54:	1000fff1 	b	9d00dd1c <_sbrk_init+0x104>
9d00dd58:	ae421940 	sw	v0,6464(s2)
9d00dd5c:	1460ffe4 	bnez	v1,9d00dcf0 <_sbrk_init+0xd8>
9d00dd60:	02201825 	move	v1,s1
9d00dd64:	1000ffde 	b	9d00dce0 <_sbrk_init+0xc8>
9d00dd68:	0202202b 	sltu	a0,s0,v0

Disassembly of section .text.__fmt_d:

9d00dd6c <__fmt_d>:
9d00dd6c:	27bdffc0 	addiu	sp,sp,-64
9d00dd70:	afb1002c 	sw	s1,44(sp)
9d00dd74:	00808825 	move	s1,a0
9d00dd78:	00c02025 	move	a0,a2
9d00dd7c:	8c870004 	lw	a3,4(a0)
9d00dd80:	8ca20000 	lw	v0,0(a1)
9d00dd84:	afb40038 	sw	s4,56(sp)
9d00dd88:	0007a7c2 	srl	s4,a3,0x1f
9d00dd8c:	afb30034 	sw	s3,52(sp)
9d00dd90:	afb20030 	sw	s2,48(sp)
9d00dd94:	afb00028 	sw	s0,40(sp)
9d00dd98:	afbf003c 	sw	ra,60(sp)
9d00dd9c:	00a08025 	move	s0,a1
9d00dda0:	8ca30004 	lw	v1,4(a1)
9d00dda4:	8cb20008 	lw	s2,8(a1)
9d00dda8:	afa20020 	sw	v0,32(sp)
9d00ddac:	8cb3000c 	lw	s3,12(a1)
9d00ddb0:	1280003e 	beqz	s4,9d00deac <__fmt_d+0x140>
9d00ddb4:	8cc60000 	lw	a2,0(a2)
9d00ddb8:	00063023 	negu	a2,a2
9d00ddbc:	0006202b 	sltu	a0,zero,a2
9d00ddc0:	00073823 	negu	a3,a3
9d00ddc4:	04600008 	bltz	v1,9d00dde8 <__fmt_d+0x7c>
9d00ddc8:	00e43823 	subu	a3,a3,a0
9d00ddcc:	7c020844 	ins	v0,zero,0x1,0x1
9d00ddd0:	16800005 	bnez	s4,9d00dde8 <__fmt_d+0x7c>
9d00ddd4:	afa20020 	sw	v0,32(sp)
9d00ddd8:	8fa20020 	lw	v0,32(sp)
9d00dddc:	30430004 	andi	v1,v0,0x4
9d00dde0:	1060002a 	beqz	v1,9d00de8c <__fmt_d+0x120>
9d00dde4:	7c4200c0 	ext	v0,v0,0x3,0x1
9d00dde8:	2642ffff 	addiu	v0,s2,-1
9d00ddec:	27a30020 	addiu	v1,sp,32
9d00ddf0:	afa30018 	sw	v1,24(sp)
9d00ddf4:	2403000a 	li	v1,10
9d00ddf8:	afa30014 	sw	v1,20(sp)
9d00ddfc:	afa20010 	sw	v0,16(sp)
9d00de00:	0f4037ff 	jal	9d00dffc <__cvt_u>
9d00de04:	02002025 	move	a0,s0
9d00de08:	16800006 	bnez	s4,9d00de24 <__fmt_d+0xb8>
9d00de0c:	2403002d 	li	v1,45
9d00de10:	8fa30020 	lw	v1,32(sp)
9d00de14:	30640004 	andi	a0,v1,0x4
9d00de18:	1080001e 	beqz	a0,9d00de94 <__fmt_d+0x128>
9d00de1c:	30630008 	andi	v1,v1,0x8
9d00de20:	2403002b 	li	v1,43
9d00de24:	2442ffff 	addiu	v0,v0,-1
9d00de28:	02622021 	addu	a0,s3,v0
9d00de2c:	a0830000 	sb	v1,0(a0)
9d00de30:	8e060010 	lw	a2,16(s0)
9d00de34:	8fa30020 	lw	v1,32(sp)
9d00de38:	02403825 	move	a3,s2
9d00de3c:	24c6ffff 	addiu	a2,a2,-1
9d00de40:	afa30010 	sw	v1,16(sp)
9d00de44:	00c23023 	subu	a2,a2,v0
9d00de48:	02622821 	addu	a1,s3,v0
9d00de4c:	0f403a09 	jal	9d00e824 <__pad>
9d00de50:	02202025 	move	a0,s1
9d00de54:	8e230004 	lw	v1,4(s1)
9d00de58:	30630100 	andi	v1,v1,0x100
9d00de5c:	10600004 	beqz	v1,9d00de70 <__fmt_d+0x104>
9d00de60:	8fbf003c 	lw	ra,60(sp)
9d00de64:	8e030004 	lw	v1,4(s0)
9d00de68:	0043202a 	slt	a0,v0,v1
9d00de6c:	0064100b 	movn	v0,v1,a0
9d00de70:	8fb40038 	lw	s4,56(sp)
9d00de74:	8fb30034 	lw	s3,52(sp)
9d00de78:	8fb20030 	lw	s2,48(sp)
9d00de7c:	8fb1002c 	lw	s1,44(sp)
9d00de80:	8fb00028 	lw	s0,40(sp)
9d00de84:	03e00008 	jr	ra
9d00de88:	27bd0040 	addiu	sp,sp,64
9d00de8c:	1000ffd7 	b	9d00ddec <__fmt_d+0x80>
9d00de90:	02421023 	subu	v0,s2,v0
9d00de94:	1060ffe6 	beqz	v1,9d00de30 <__fmt_d+0xc4>
9d00de98:	24040020 	li	a0,32
9d00de9c:	2442ffff 	addiu	v0,v0,-1
9d00dea0:	02621821 	addu	v1,s3,v0
9d00dea4:	1000ffe2 	b	9d00de30 <__fmt_d+0xc4>
9d00dea8:	a0640000 	sb	a0,0(v1)
9d00deac:	0463ffc8 	bgezl	v1,9d00ddd0 <__fmt_d+0x64>
9d00deb0:	7c020844 	ins	v0,zero,0x1,0x1
9d00deb4:	1000ffc9 	b	9d00dddc <__fmt_d+0x70>
9d00deb8:	8fa20020 	lw	v0,32(sp)

Disassembly of section .dinit:

9d00debc <.dinit>:
9d00debc:	a00000e0 	sb	zero,224(zero)
9d00dec0:	000015e0 	0x15e0
9d00dec4:	00000000 	nop
9d00dec8:	a0000004 	sb	zero,4(zero)
9d00decc:	0000001c 	0x1c
9d00ded0:	00000000 	nop
9d00ded4:	a0000020 	sb	zero,32(zero)
9d00ded8:	00000060 	0x60
9d00dedc:	00000001 	movf	zero,zero,$fcc0
9d00dee0:	00000001 	movf	zero,zero,$fcc0
9d00dee4:	00000003 	sra	zero,zero,0x0
	...
9d00defc:	9d00ef58 	0x9d00ef58
	...
9d00df0c:	9d010ee8 	0x9d010ee8
9d00df10:	9d00f93c 	0x9d00f93c
	...
9d00df40:	a0001944 	sb	zero,6468(zero)
9d00df44:	00000004 	sllv	zero,zero,zero
9d00df48:	00000000 	nop
9d00df4c:	a0000080 	sb	zero,128(zero)
9d00df50:	00000060 	0x60
9d00df54:	00000001 	movf	zero,zero,$fcc0
9d00df58:	00000001 	movf	zero,zero,$fcc0
9d00df5c:	00000003 	sra	zero,zero,0x0
	...
9d00df74:	9d00ef58 	0x9d00ef58
	...
9d00df84:	9d010ee8 	0x9d010ee8
9d00df88:	9d00f93c 	0x9d00f93c
	...
9d00dfb8:	a00016c0 	sb	zero,5824(zero)
9d00dfbc:	00000210 	0x210
9d00dfc0:	00000000 	nop
9d00dfc4:	a00018d0 	sb	zero,6352(zero)
9d00dfc8:	00000050 	0x50
9d00dfcc:	00000000 	nop
9d00dfd0:	a0001920 	sb	zero,6432(zero)
9d00dfd4:	00000024 	and	zero,zero,zero
9d00dfd8:	00000000 	nop
9d00dfdc:	a0000000 	sb	zero,0(zero)
9d00dfe0:	00000004 	sllv	zero,zero,zero
9d00dfe4:	00000001 	movf	zero,zero,$fcc0
9d00dfe8:	00000002 	srl	zero,zero,0x0
9d00dfec:	a0001948 	sb	zero,6472(zero)
9d00dff0:	00000004 	sllv	zero,zero,zero
	...

Disassembly of section .text.__cvt_u:

9d00dffc <__cvt_u>:
9d00dffc:	8c820004 	lw	v0,4(a0)
9d00e000:	27bdffc0 	addiu	sp,sp,-64
9d00e004:	afbe0038 	sw	s8,56(sp)
9d00e008:	afb40028 	sw	s4,40(sp)
9d00e00c:	afb20020 	sw	s2,32(sp)
9d00e010:	afb1001c 	sw	s1,28(sp)
9d00e014:	afbf003c 	sw	ra,60(sp)
9d00e018:	afb70034 	sw	s7,52(sp)
9d00e01c:	afb60030 	sw	s6,48(sp)
9d00e020:	afb5002c 	sw	s5,44(sp)
9d00e024:	afb30024 	sw	s3,36(sp)
9d00e028:	afb00018 	sw	s0,24(sp)
9d00e02c:	00c08825 	move	s1,a2
9d00e030:	00e09025 	move	s2,a3
9d00e034:	8fb40054 	lw	s4,84(sp)
9d00e038:	04410002 	bgez	v0,9d00e044 <__cvt_u+0x48>
9d00e03c:	8fbe0058 	lw	s8,88(sp)
9d00e040:	24020001 	li	v0,1
9d00e044:	8c900010 	lw	s0,16(a0)
9d00e048:	8c95000c 	lw	s5,12(a0)
9d00e04c:	8fd70000 	lw	s7,0(s8)
9d00e050:	8fb30050 	lw	s3,80(sp)
9d00e054:	2610ffff 	addiu	s0,s0,-1
9d00e058:	02b01821 	addu	v1,s5,s0
9d00e05c:	a0600000 	sb	zero,0(v1)
9d00e060:	24090001 	li	t1,1
9d00e064:	00534023 	subu	t0,v0,s3
9d00e068:	32f70002 	andi	s7,s7,0x2
9d00e06c:	0014b7c3 	sra	s6,s4,0x1f
9d00e070:	1e000010 	bgtz	s0,9d00e0b4 <__cvt_u+0xb8>
9d00e074:	02321025 	or	v0,s1,s2
9d00e078:	5120002c 	beqzl	t1,9d00e12c <__cvt_u+0x130>
9d00e07c:	8fc20000 	lw	v0,0(s8)
9d00e080:	8fbf003c 	lw	ra,60(sp)
9d00e084:	02001025 	move	v0,s0
9d00e088:	8fbe0038 	lw	s8,56(sp)
9d00e08c:	8fb70034 	lw	s7,52(sp)
9d00e090:	8fb60030 	lw	s6,48(sp)
9d00e094:	8fb5002c 	lw	s5,44(sp)
9d00e098:	8fb40028 	lw	s4,40(sp)
9d00e09c:	8fb30024 	lw	s3,36(sp)
9d00e0a0:	8fb20020 	lw	s2,32(sp)
9d00e0a4:	8fb1001c 	lw	s1,28(sp)
9d00e0a8:	8fb00018 	lw	s0,24(sp)
9d00e0ac:	03e00008 	jr	ra
9d00e0b0:	27bd0040 	addiu	sp,sp,64
9d00e0b4:	14400007 	bnez	v0,9d00e0d4 <__cvt_u+0xd8>
9d00e0b8:	01131021 	addu	v0,t0,s3
9d00e0bc:	1c400006 	bgtz	v0,9d00e0d8 <__cvt_u+0xdc>
9d00e0c0:	02202025 	move	a0,s1
9d00e0c4:	1a60ffec 	blez	s3,9d00e078 <__cvt_u+0x7c>
9d00e0c8:	00000000 	nop
9d00e0cc:	12e0ffea 	beqz	s7,9d00e078 <__cvt_u+0x7c>
9d00e0d0:	00000000 	nop
9d00e0d4:	02202025 	move	a0,s1
9d00e0d8:	02402825 	move	a1,s2
9d00e0dc:	02803025 	move	a2,s4
9d00e0e0:	02c03825 	move	a3,s6
9d00e0e4:	afa80014 	sw	t0,20(sp)
9d00e0e8:	0f402fd5 	jal	9d00bf54 <__umoddi3>
9d00e0ec:	2610ffff 	addiu	s0,s0,-1
9d00e0f0:	afa20010 	sw	v0,16(sp)
9d00e0f4:	02b01821 	addu	v1,s5,s0
9d00e0f8:	24420030 	addiu	v0,v0,48
9d00e0fc:	02202025 	move	a0,s1
9d00e100:	02402825 	move	a1,s2
9d00e104:	a0620000 	sb	v0,0(v1)
9d00e108:	02803025 	move	a2,s4
9d00e10c:	0f402ee6 	jal	9d00bb98 <__udivdi3>
9d00e110:	02c03825 	move	a3,s6
9d00e114:	2673ffff 	addiu	s3,s3,-1
9d00e118:	00408825 	move	s1,v0
9d00e11c:	00609025 	move	s2,v1
9d00e120:	8fa80014 	lw	t0,20(sp)
9d00e124:	1000ffd2 	b	9d00e070 <__cvt_u+0x74>
9d00e128:	8fa90010 	lw	t1,16(sp)
9d00e12c:	7c022104 	ins	v0,zero,0x4,0x1
9d00e130:	1000ffd3 	b	9d00e080 <__cvt_u+0x84>
9d00e134:	afc20000 	sw	v0,0(s8)

Disassembly of section .text.read:

9d00e138 <read>:
9d00e138:	50a0004a 	beqzl	a1,9d00e264 <read+0x12c>
9d00e13c:	00002025 	move	a0,zero
9d00e140:	50c00048 	beqzl	a2,9d00e264 <read+0x12c>
9d00e144:	00002025 	move	a0,zero
9d00e148:	27bdffe0 	addiu	sp,sp,-32
9d00e14c:	afb10014 	sw	s1,20(sp)
9d00e150:	afbf001c 	sw	ra,28(sp)
9d00e154:	afb20018 	sw	s2,24(sp)
9d00e158:	afb00010 	sw	s0,16(sp)
9d00e15c:	1480000b 	bnez	a0,9d00e18c <read+0x54>
9d00e160:	00c08825 	move	s1,a2
9d00e164:	3c020000 	lui	v0,0x0
9d00e168:	24420000 	addiu	v0,v0,0
9d00e16c:	1040000f 	beqz	v0,9d00e1ac <read+0x74>
9d00e170:	00a08025 	move	s0,a1
9d00e174:	00a69021 	addu	s2,a1,a2
9d00e178:	0c000000 	jal	90000000 <_bmxdudba_address+0x8fff0000>
9d00e17c:	24040001 	li	a0,1
9d00e180:	26100001 	addiu	s0,s0,1
9d00e184:	1650fffc 	bne	s2,s0,9d00e178 <read+0x40>
9d00e188:	a202ffff 	sb	v0,-1(s0)
9d00e18c:	02202025 	move	a0,s1
9d00e190:	8fbf001c 	lw	ra,28(sp)
9d00e194:	00801025 	move	v0,a0
9d00e198:	8fb20018 	lw	s2,24(sp)
9d00e19c:	8fb10014 	lw	s1,20(sp)
9d00e1a0:	8fb00010 	lw	s0,16(sp)
9d00e1a4:	03e00008 	jr	ra
9d00e1a8:	27bd0020 	addiu	sp,sp,32
9d00e1ac:	3c03bf80 	lui	v1,0xbf80
9d00e1b0:	24626010 	addiu	v0,v1,24592
9d00e1b4:	1040fff6 	beqz	v0,9d00e190 <read+0x58>
9d00e1b8:	3c03a000 	lui	v1,0xa000
9d00e1bc:	8c640000 	lw	a0,0(v1)
9d00e1c0:	24030002 	li	v1,2
9d00e1c4:	1083001d 	beq	a0,v1,9d00e23c <read+0x104>
9d00e1c8:	3c03bf80 	lui	v1,0xbf80
9d00e1cc:	3c03bf80 	lui	v1,0xbf80
9d00e1d0:	8c646000 	lw	a0,24576(v1)
9d00e1d4:	3c03bf80 	lui	v1,0xbf80
9d00e1d8:	24636030 	addiu	v1,v1,24624
9d00e1dc:	30848000 	andi	a0,a0,0x8000
9d00e1e0:	14800003 	bnez	a0,9d00e1f0 <read+0xb8>
9d00e1e4:	3c04bf80 	lui	a0,0xbf80
9d00e1e8:	34058000 	li	a1,0x8000
9d00e1ec:	ac856008 	sw	a1,24584(a0)
9d00e1f0:	02202025 	move	a0,s1
9d00e1f4:	240500a1 	li	a1,161
9d00e1f8:	8c460000 	lw	a2,0(v0)
9d00e1fc:	30c60001 	andi	a2,a2,0x1
9d00e200:	14c00003 	bnez	a2,9d00e210 <read+0xd8>
9d00e204:	24a5ffff 	addiu	a1,a1,-1
9d00e208:	14a0fffb 	bnez	a1,9d00e1f8 <read+0xc0>
9d00e20c:	00000000 	nop
9d00e210:	8c450000 	lw	a1,0(v0)
9d00e214:	30a50001 	andi	a1,a1,0x1
9d00e218:	54a0ffdc 	bnezl	a1,9d00e18c <read+0x54>
9d00e21c:	02248823 	subu	s1,s1,a0
9d00e220:	8c650000 	lw	a1,0(v1)
9d00e224:	26100001 	addiu	s0,s0,1
9d00e228:	2484ffff 	addiu	a0,a0,-1
9d00e22c:	1480fff1 	bnez	a0,9d00e1f4 <read+0xbc>
9d00e230:	a205ffff 	sb	a1,-1(s0)
9d00e234:	1000ffd5 	b	9d00e18c <read+0x54>
9d00e238:	02248823 	subu	s1,s1,a0
9d00e23c:	24636240 	addiu	v1,v1,25152
9d00e240:	5060ffe3 	beqzl	v1,9d00e1d0 <read+0x98>
9d00e244:	3c03bf80 	lui	v1,0xbf80
9d00e248:	3c02bf80 	lui	v0,0xbf80
9d00e24c:	8c446200 	lw	a0,25088(v0)
9d00e250:	3c03bf80 	lui	v1,0xbf80
9d00e254:	3c02bf80 	lui	v0,0xbf80
9d00e258:	24636230 	addiu	v1,v1,25136
9d00e25c:	1000ffdf 	b	9d00e1dc <read+0xa4>
9d00e260:	24426210 	addiu	v0,v0,25104
9d00e264:	03e00008 	jr	ra
9d00e268:	00801025 	move	v0,a0

Disassembly of section .text.dpcmp:

9d00e26c <__eqdf2>:
9d00e26c:	2409fffe 00055040 00075840 01645825     ...$@P..@X..%Xd.
9d00e27c:	01665825 014b5025 15400003 00000000     %Xf.%PK...@.....
9d00e28c:	1000003c 24020000                       <......$

9d00e294 <i56>:
9d00e294:	10800002 	beqz	a0,9d00e2a0 <i57>
9d00e298:	00054040 	sll	t0,a1,0x1
9d00e29c:	25080001 	addiu	t0,t0,1

9d00e2a0 <i57>:
9d00e2a0:	3c01ffe0 	lui	at,0xffe0
9d00e2a4:	34210001 	ori	at,at,0x1
9d00e2a8:	0101082b 	sltu	at,t0,at
9d00e2ac:	10200037 	beqz	at,9d00e38c <Lnan>
9d00e2b0:	00000000 	nop
9d00e2b4:	10c00002 	beqz	a2,9d00e2c0 <i58>
9d00e2b8:	00074040 	sll	t0,a3,0x1
9d00e2bc:	25080001 	addiu	t0,t0,1

9d00e2c0 <i58>:
9d00e2c0:	3c01ffe0 	lui	at,0xffe0
9d00e2c4:	34210001 	ori	at,at,0x1
9d00e2c8:	0101082b 	sltu	at,t0,at
9d00e2cc:	1020002f 	beqz	at,9d00e38c <Lnan>
9d00e2d0:	00000000 	nop
9d00e2d4:	04a10016 	bgez	a1,9d00e330 <i59>
9d00e2d8:	00000000 	nop
9d00e2dc:	04e00003 	bltz	a3,9d00e2ec <i60>
9d00e2e0:	00000000 	nop
9d00e2e4:	10000026 	b	9d00e380 <L999>
9d00e2e8:	2402ffff 	li	v0,-1

9d00e2ec <i60>:
9d00e2ec:	0086502b 	sltu	t2,a0,a2
9d00e2f0:	00862023 	subu	a0,a0,a2
9d00e2f4:	00aa582b 	sltu	t3,a1,t2
9d00e2f8:	00aa2823 	subu	a1,a1,t2
9d00e2fc:	00a7502b 	sltu	t2,a1,a3
9d00e300:	014b5025 	or	t2,t2,t3
9d00e304:	11400003 	beqz	t2,9d00e314 <i61>
9d00e308:	00a72823 	subu	a1,a1,a3
9d00e30c:	1000001c 	b	9d00e380 <L999>
9d00e310:	24020001 	li	v0,1

9d00e314 <i61>:
9d00e314:	00a45025 	or	t2,a1,a0
9d00e318:	11400003 	beqz	t2,9d00e328 <i62>
9d00e31c:	00000000 	nop
9d00e320:	10000017 	b	9d00e380 <L999>
9d00e324:	2402ffff 	li	v0,-1

9d00e328 <i62>:
9d00e328:	10000015 	b	9d00e380 <L999>
9d00e32c:	24020000 	li	v0,0

9d00e330 <i59>:
9d00e330:	04e10003 	bgez	a3,9d00e340 <i63>
9d00e334:	00000000 	nop
9d00e338:	10000011 	b	9d00e380 <L999>
9d00e33c:	24020001 	li	v0,1

9d00e340 <i63>:
9d00e340:	0086502b 	sltu	t2,a0,a2
9d00e344:	00862023 	subu	a0,a0,a2
9d00e348:	00aa582b 	sltu	t3,a1,t2
9d00e34c:	00aa2823 	subu	a1,a1,t2
9d00e350:	00a7502b 	sltu	t2,a1,a3
9d00e354:	014b5025 	or	t2,t2,t3
9d00e358:	11400003 	beqz	t2,9d00e368 <i64>
9d00e35c:	00a72823 	subu	a1,a1,a3
9d00e360:	10000007 	b	9d00e380 <L999>
9d00e364:	2402ffff 	li	v0,-1

9d00e368 <i64>:
9d00e368:	00a45025 	or	t2,a1,a0
9d00e36c:	11400003 	beqz	t2,9d00e37c <i65>
9d00e370:	00000000 	nop
9d00e374:	10000002 	b	9d00e380 <L999>
9d00e378:	24020001 	li	v0,1

9d00e37c <i65>:
9d00e37c:	24020000 	li	v0,0

9d00e380 <L999>:
9d00e380:	03e00008 	jr	ra
9d00e384:	00000000 	nop
9d00e388:	00000000 	nop

9d00e38c <Lnan>:
9d00e38c:	1000fffc 	b	9d00e380 <L999>
9d00e390:	00091025 	or	v0,zero,t1
9d00e394:	00000000 	nop

Disassembly of section .text.dfcmplt:

9d00e398 <dpcmplt>:
9d00e398:	2409fffe 	li	t1,-2
9d00e39c:	00055040 	sll	t2,a1,0x1
9d00e3a0:	00075840 	sll	t3,a3,0x1
9d00e3a4:	01645825 	or	t3,t3,a0
9d00e3a8:	01665825 	or	t3,t3,a2
9d00e3ac:	014b5025 	or	t2,t2,t3
9d00e3b0:	15400003 	bnez	t2,9d00e3c0 <dpcmplt+0x28>
9d00e3b4:	00000000 	nop
9d00e3b8:	1000003c 	b	9d00e4ac <dpcmplt+0x114>
9d00e3bc:	24020000 	li	v0,0
9d00e3c0:	10800002 	beqz	a0,9d00e3cc <dpcmplt+0x34>
9d00e3c4:	00054040 	sll	t0,a1,0x1
9d00e3c8:	25080001 	addiu	t0,t0,1
9d00e3cc:	3c01ffe0 	lui	at,0xffe0
9d00e3d0:	34210001 	ori	at,at,0x1
9d00e3d4:	0101082b 	sltu	at,t0,at
9d00e3d8:	10200037 	beqz	at,9d00e4b8 <dpcmplt+0x120>
9d00e3dc:	00000000 	nop
9d00e3e0:	10c00002 	beqz	a2,9d00e3ec <dpcmplt+0x54>
9d00e3e4:	00074040 	sll	t0,a3,0x1
9d00e3e8:	25080001 	addiu	t0,t0,1
9d00e3ec:	3c01ffe0 	lui	at,0xffe0
9d00e3f0:	34210001 	ori	at,at,0x1
9d00e3f4:	0101082b 	sltu	at,t0,at
9d00e3f8:	1020002f 	beqz	at,9d00e4b8 <dpcmplt+0x120>
9d00e3fc:	00000000 	nop
9d00e400:	04a10016 	bgez	a1,9d00e45c <dpcmplt+0xc4>
9d00e404:	00000000 	nop
9d00e408:	04e00003 	bltz	a3,9d00e418 <dpcmplt+0x80>
9d00e40c:	00000000 	nop
9d00e410:	10000026 	b	9d00e4ac <dpcmplt+0x114>
9d00e414:	2402ffff 	li	v0,-1
9d00e418:	0086502b 	sltu	t2,a0,a2
9d00e41c:	00862023 	subu	a0,a0,a2
9d00e420:	00aa582b 	sltu	t3,a1,t2
9d00e424:	00aa2823 	subu	a1,a1,t2
9d00e428:	00a7502b 	sltu	t2,a1,a3
9d00e42c:	014b5025 	or	t2,t2,t3
9d00e430:	11400003 	beqz	t2,9d00e440 <dpcmplt+0xa8>
9d00e434:	00a72823 	subu	a1,a1,a3
9d00e438:	1000001c 	b	9d00e4ac <dpcmplt+0x114>
9d00e43c:	24020001 	li	v0,1
9d00e440:	00a45025 	or	t2,a1,a0
9d00e444:	11400003 	beqz	t2,9d00e454 <dpcmplt+0xbc>
9d00e448:	00000000 	nop
9d00e44c:	10000017 	b	9d00e4ac <dpcmplt+0x114>
9d00e450:	2402ffff 	li	v0,-1
9d00e454:	10000015 	b	9d00e4ac <dpcmplt+0x114>
9d00e458:	24020000 	li	v0,0
9d00e45c:	04e10003 	bgez	a3,9d00e46c <dpcmplt+0xd4>
9d00e460:	00000000 	nop
9d00e464:	10000011 	b	9d00e4ac <dpcmplt+0x114>
9d00e468:	24020001 	li	v0,1
9d00e46c:	0086502b 	sltu	t2,a0,a2
9d00e470:	00862023 	subu	a0,a0,a2
9d00e474:	00aa582b 	sltu	t3,a1,t2
9d00e478:	00aa2823 	subu	a1,a1,t2
9d00e47c:	00a7502b 	sltu	t2,a1,a3
9d00e480:	014b5025 	or	t2,t2,t3
9d00e484:	11400003 	beqz	t2,9d00e494 <dpcmplt+0xfc>
9d00e488:	00a72823 	subu	a1,a1,a3
9d00e48c:	10000007 	b	9d00e4ac <dpcmplt+0x114>
9d00e490:	2402ffff 	li	v0,-1
9d00e494:	00a45025 	or	t2,a1,a0
9d00e498:	11400003 	beqz	t2,9d00e4a8 <dpcmplt+0x110>
9d00e49c:	00000000 	nop
9d00e4a0:	10000002 	b	9d00e4ac <dpcmplt+0x114>
9d00e4a4:	24020001 	li	v0,1
9d00e4a8:	24020000 	li	v0,0
9d00e4ac:	03e00008 	jr	ra
9d00e4b0:	00000000 	nop
9d00e4b4:	00000000 	nop
9d00e4b8:	1000fffc 	b	9d00e4ac <dpcmplt+0x114>
9d00e4bc:	34020001 	li	v0,0x1
9d00e4c0:	00000000 	nop

Disassembly of section .text._mon_putc:

9d00e4c4 <_mon_putc>:
9d00e4c4:	3c02a000 	lui	v0,0xa000
9d00e4c8:	8c430000 	lw	v1,0(v0)
9d00e4cc:	14600013 	bnez	v1,9d00e51c <_mon_putc+0x58>
9d00e4d0:	00803025 	move	a2,a0
9d00e4d4:	3c020000 	lui	v0,0x0
9d00e4d8:	27bdffe8 	addiu	sp,sp,-24
9d00e4dc:	24420000 	addiu	v0,v0,0
9d00e4e0:	10400006 	beqz	v0,9d00e4fc <_mon_putc+0x38>
9d00e4e4:	afbf0014 	sw	ra,20(sp)
9d00e4e8:	0c000000 	jal	90000000 <_bmxdudba_address+0x8fff0000>
9d00e4ec:	00000000 	nop
9d00e4f0:	8fbf0014 	lw	ra,20(sp)
9d00e4f4:	03e00008 	jr	ra
9d00e4f8:	27bd0018 	addiu	sp,sp,24
9d00e4fc:	3c020000 	lui	v0,0x0
9d00e500:	24420000 	addiu	v0,v0,0
9d00e504:	10400025 	beqz	v0,9d00e59c <_mon_putc+0xd8>
9d00e508:	3c05bf80 	lui	a1,0xbf80
9d00e50c:	0c000000 	jal	90000000 <_bmxdudba_address+0x8fff0000>
9d00e510:	00000000 	nop
9d00e514:	1000fff7 	b	9d00e4f4 <_mon_putc+0x30>
9d00e518:	8fbf0014 	lw	ra,20(sp)
9d00e51c:	3c02bf80 	lui	v0,0xbf80
9d00e520:	24426010 	addiu	v0,v0,24592
9d00e524:	1040002f 	beqz	v0,9d00e5e4 <_mon_putc+0x120>
9d00e528:	00000000 	nop
9d00e52c:	24040001 	li	a0,1
9d00e530:	14640012 	bne	v1,a0,9d00e57c <_mon_putc+0xb8>
9d00e534:	3c03bf80 	lui	v1,0xbf80
9d00e538:	3c03bf80 	lui	v1,0xbf80
9d00e53c:	3c04bf80 	lui	a0,0xbf80
9d00e540:	3c05bf80 	lui	a1,0xbf80
9d00e544:	24636020 	addiu	v1,v1,24608
9d00e548:	24846018 	addiu	a0,a0,24600
9d00e54c:	24a56008 	addiu	a1,a1,24584
9d00e550:	34078000 	li	a3,0x8000
9d00e554:	aca70000 	sw	a3,0(a1)
9d00e558:	24050400 	li	a1,1024
9d00e55c:	ac850000 	sw	a1,0(a0)
9d00e560:	8c440000 	lw	a0,0(v0)
9d00e564:	30840100 	andi	a0,a0,0x100
9d00e568:	1080fffd 	beqz	a0,9d00e560 <_mon_putc+0x9c>
9d00e56c:	00000000 	nop
9d00e570:	ac660000 	sw	a2,0(v1)
9d00e574:	03e00008 	jr	ra
9d00e578:	00000000 	nop
9d00e57c:	3c04bf80 	lui	a0,0xbf80
9d00e580:	3c05bf80 	lui	a1,0xbf80
9d00e584:	3c02bf80 	lui	v0,0xbf80
9d00e588:	24636220 	addiu	v1,v1,25120
9d00e58c:	24846218 	addiu	a0,a0,25112
9d00e590:	24a56208 	addiu	a1,a1,25096
9d00e594:	1000ffee 	b	9d00e550 <_mon_putc+0x8c>
9d00e598:	24426210 	addiu	v0,v0,25104
9d00e59c:	24a56208 	addiu	a1,a1,25096
9d00e5a0:	3c04bf80 	lui	a0,0xbf80
9d00e5a4:	34078000 	li	a3,0x8000
9d00e5a8:	aca70000 	sw	a3,0(a1)
9d00e5ac:	3c03bf80 	lui	v1,0xbf80
9d00e5b0:	24846218 	addiu	a0,a0,25112
9d00e5b4:	3c02bf80 	lui	v0,0xbf80
9d00e5b8:	24050400 	li	a1,1024
9d00e5bc:	24636220 	addiu	v1,v1,25120
9d00e5c0:	24426210 	addiu	v0,v0,25104
9d00e5c4:	ac850000 	sw	a1,0(a0)
9d00e5c8:	8c440000 	lw	a0,0(v0)
9d00e5cc:	30840100 	andi	a0,a0,0x100
9d00e5d0:	1080fffd 	beqz	a0,9d00e5c8 <_mon_putc+0x104>
9d00e5d4:	00000000 	nop
9d00e5d8:	ac660000 	sw	a2,0(v1)
9d00e5dc:	1000ffc5 	b	9d00e4f4 <_mon_putc+0x30>
9d00e5e0:	8fbf0014 	lw	ra,20(sp)
9d00e5e4:	03e00008 	jr	ra
9d00e5e8:	00000000 	nop

Disassembly of section .text.logbl:

9d00e5ec <logbl>:
9d00e5ec:	27bdffe0 	addiu	sp,sp,-32
9d00e5f0:	afa50024 	sw	a1,36(sp)
9d00e5f4:	afb20018 	sw	s2,24(sp)
9d00e5f8:	87b20026 	lh	s2,38(sp)
9d00e5fc:	24037ff0 	li	v1,32752
9d00e600:	afbf001c 	sw	ra,28(sp)
9d00e604:	32427ff0 	andi	v0,s2,0x7ff0
9d00e608:	afb10014 	sw	s1,20(sp)
9d00e60c:	afb00010 	sw	s0,16(sp)
9d00e610:	10430021 	beq	v0,v1,9d00e698 <logbl+0xac>
9d00e614:	afa40020 	sw	a0,32(sp)
9d00e618:	14400012 	bnez	v0,9d00e664 <logbl+0x78>
9d00e61c:	00003025 	move	a2,zero
9d00e620:	0f40389b 	jal	9d00e26c <__eqdf2>
9d00e624:	00003825 	move	a3,zero
9d00e628:	1440002e 	bnez	v0,9d00e6e4 <logbl+0xf8>
9d00e62c:	3c029d00 	lui	v0,0x9d00
9d00e630:	3c02a000 	lui	v0,0xa000
9d00e634:	24030021 	li	v1,33
9d00e638:	00008025 	move	s0,zero
9d00e63c:	3c11ffc0 	lui	s1,0xffc0
9d00e640:	ac431948 	sw	v1,6472(v0)
9d00e644:	8fbf001c 	lw	ra,28(sp)
9d00e648:	02001025 	move	v0,s0
9d00e64c:	02201825 	move	v1,s1
9d00e650:	8fb20018 	lw	s2,24(sp)
9d00e654:	8fb10014 	lw	s1,20(sp)
9d00e658:	8fb00010 	lw	s0,16(sp)
9d00e65c:	03e00008 	jr	ra
9d00e660:	27bd0020 	addiu	sp,sp,32
9d00e664:	00022103 	sra	a0,v0,0x4
9d00e668:	0f403fe4 	jal	9d00ff90 <__floatsidf>
9d00e66c:	2484fc01 	addiu	a0,a0,-1023
9d00e670:	8fbf001c 	lw	ra,28(sp)
9d00e674:	00408025 	move	s0,v0
9d00e678:	00608825 	move	s1,v1
9d00e67c:	02001025 	move	v0,s0
9d00e680:	02201825 	move	v1,s1
9d00e684:	8fb20018 	lw	s2,24(sp)
9d00e688:	8fb10014 	lw	s1,20(sp)
9d00e68c:	8fb00010 	lw	s0,16(sp)
9d00e690:	03e00008 	jr	ra
9d00e694:	27bd0020 	addiu	sp,sp,32
9d00e698:	00803025 	move	a2,a0
9d00e69c:	00a03825 	move	a3,a1
9d00e6a0:	00808025 	move	s0,a0
9d00e6a4:	0f40389b 	jal	9d00e26c <__eqdf2>
9d00e6a8:	00a08825 	move	s1,a1
9d00e6ac:	1440ffe6 	bnez	v0,9d00e648 <logbl+0x5c>
9d00e6b0:	8fbf001c 	lw	ra,28(sp)
9d00e6b4:	32527fff 	andi	s2,s2,0x7fff
9d00e6b8:	a7b20026 	sh	s2,38(sp)
9d00e6bc:	8fb00020 	lw	s0,32(sp)
9d00e6c0:	8fb10024 	lw	s1,36(sp)
9d00e6c4:	8fbf001c 	lw	ra,28(sp)
9d00e6c8:	02001025 	move	v0,s0
9d00e6cc:	02201825 	move	v1,s1
9d00e6d0:	8fb20018 	lw	s2,24(sp)
9d00e6d4:	8fb10014 	lw	s1,20(sp)
9d00e6d8:	8fb00010 	lw	s0,16(sp)
9d00e6dc:	03e00008 	jr	ra
9d00e6e0:	27bd0020 	addiu	sp,sp,32
9d00e6e4:	8c517544 	lw	s1,30020(v0)
9d00e6e8:	8c507540 	lw	s0,30016(v0)
9d00e6ec:	8fbf001c 	lw	ra,28(sp)
9d00e6f0:	02201825 	move	v1,s1
9d00e6f4:	02001025 	move	v0,s0
9d00e6f8:	8fb20018 	lw	s2,24(sp)
9d00e6fc:	8fb10014 	lw	s1,20(sp)
9d00e700:	8fb00010 	lw	s0,16(sp)
9d00e704:	03e00008 	jr	ra
9d00e708:	27bd0020 	addiu	sp,sp,32

Disassembly of section .text.realloc:

9d00e70c <realloc>:
9d00e70c:	27bdffd8 	addiu	sp,sp,-40
9d00e710:	afbf0024 	sw	ra,36(sp)
9d00e714:	afb40020 	sw	s4,32(sp)
9d00e718:	afb3001c 	sw	s3,28(sp)
9d00e71c:	afb20018 	sw	s2,24(sp)
9d00e720:	afb10014 	sw	s1,20(sp)
9d00e724:	afb00010 	sw	s0,16(sp)
9d00e728:	1480000d 	bnez	a0,9d00e760 <realloc+0x54>
9d00e72c:	afa5002c 	sw	a1,44(sp)
9d00e730:	0f4032e4 	jal	9d00cb90 <malloc>
9d00e734:	00a02025 	move	a0,a1
9d00e738:	00408825 	move	s1,v0
9d00e73c:	8fbf0024 	lw	ra,36(sp)
9d00e740:	02201025 	move	v0,s1
9d00e744:	8fb40020 	lw	s4,32(sp)
9d00e748:	8fb3001c 	lw	s3,28(sp)
9d00e74c:	8fb20018 	lw	s2,24(sp)
9d00e750:	8fb10014 	lw	s1,20(sp)
9d00e754:	8fb00010 	lw	s0,16(sp)
9d00e758:	03e00008 	jr	ra
9d00e75c:	27bd0028 	addiu	sp,sp,40
9d00e760:	00808025 	move	s0,a0
9d00e764:	0f404132 	jal	9d0104c8 <adjust_size>
9d00e768:	27a4002c 	addiu	a0,sp,44
9d00e76c:	0440002b 	bltz	v0,9d00e81c <realloc+0x110>
9d00e770:	2413fffe 	li	s3,-2
9d00e774:	8e02fffc 	lw	v0,-4(s0)
9d00e778:	2614fff8 	addiu	s4,s0,-8
9d00e77c:	00539024 	and	s2,v0,s3
9d00e780:	02928821 	addu	s1,s4,s2
9d00e784:	8e230000 	lw	v1,0(s1)
9d00e788:	10430003 	beq	v0,v1,9d00e798 <realloc+0x8c>
9d00e78c:	8fa2002c 	lw	v0,44(sp)
9d00e790:	a0000000 	sb	zero,0(zero)
9d00e794:	00000034 	teq	zero,zero
9d00e798:	0242102b 	sltu	v0,s2,v0
9d00e79c:	10400009 	beqz	v0,9d00e7c4 <realloc+0xb8>
9d00e7a0:	02401825 	move	v1,s2
9d00e7a4:	0f404057 	jal	9d01015c <alloc_fwd>
9d00e7a8:	02202025 	move	a0,s1
9d00e7ac:	10400005 	beqz	v0,9d00e7c4 <realloc+0xb8>
9d00e7b0:	02401825 	move	v1,s2
9d00e7b4:	8e220004 	lw	v0,4(s1)
9d00e7b8:	02629824 	and	s3,s3,v0
9d00e7bc:	02721821 	addu	v1,s3,s2
9d00e7c0:	02338821 	addu	s1,s1,s3
9d00e7c4:	8fa5002c 	lw	a1,44(sp)
9d00e7c8:	34620001 	ori	v0,v1,0x1
9d00e7cc:	ae02fffc 	sw	v0,-4(s0)
9d00e7d0:	0065182b 	sltu	v1,v1,a1
9d00e7d4:	14600005 	bnez	v1,9d00e7ec <realloc+0xe0>
9d00e7d8:	ae220000 	sw	v0,0(s1)
9d00e7dc:	0f404148 	jal	9d010520 <trim>
9d00e7e0:	02802025 	move	a0,s4
9d00e7e4:	1000ffd5 	b	9d00e73c <realloc+0x30>
9d00e7e8:	02008825 	move	s1,s0
9d00e7ec:	0f4032e4 	jal	9d00cb90 <malloc>
9d00e7f0:	24a4fff8 	addiu	a0,a1,-8
9d00e7f4:	1040ffd1 	beqz	v0,9d00e73c <realloc+0x30>
9d00e7f8:	00408825 	move	s1,v0
9d00e7fc:	2646fff8 	addiu	a2,s2,-8
9d00e800:	02002825 	move	a1,s0
9d00e804:	0f40432b 	jal	9d010cac <memcpy>
9d00e808:	00402025 	move	a0,v0
9d00e80c:	0f403587 	jal	9d00d61c <free>
9d00e810:	02002025 	move	a0,s0
9d00e814:	1000ffca 	b	9d00e740 <realloc+0x34>
9d00e818:	8fbf0024 	lw	ra,36(sp)
9d00e81c:	1000ffc7 	b	9d00e73c <realloc+0x30>
9d00e820:	00008825 	move	s1,zero

Disassembly of section .text.__pad:

9d00e824 <__pad>:
9d00e824:	27bdffc0 	addiu	sp,sp,-64
9d00e828:	afb3002c 	sw	s3,44(sp)
9d00e82c:	8fb30050 	lw	s3,80(sp)
9d00e830:	afb60038 	sw	s6,56(sp)
9d00e834:	afb40030 	sw	s4,48(sp)
9d00e838:	32730001 	andi	s3,s3,0x1
9d00e83c:	afb20028 	sw	s2,40(sp)
9d00e840:	afb10024 	sw	s1,36(sp)
9d00e844:	afb00020 	sw	s0,32(sp)
9d00e848:	afbf003c 	sw	ra,60(sp)
9d00e84c:	afb50034 	sw	s5,52(sp)
9d00e850:	00809025 	move	s2,a0
9d00e854:	00a0b025 	move	s6,a1
9d00e858:	00c08025 	move	s0,a2
9d00e85c:	00e08825 	move	s1,a3
9d00e860:	16600003 	bnez	s3,9d00e870 <__pad+0x4c>
9d00e864:	00c7a02b 	sltu	s4,a2,a3
9d00e868:	56800013 	bnezl	s4,9d00e8b8 <__pad+0x94>
9d00e86c:	0230a023 	subu	s4,s1,s0
9d00e870:	02003025 	move	a2,s0
9d00e874:	02c02825 	move	a1,s6
9d00e878:	0f403e99 	jal	9d00fa64 <__out>
9d00e87c:	02402025 	move	a0,s2
9d00e880:	1680000d 	bnez	s4,9d00e8b8 <__pad+0x94>
9d00e884:	0230a023 	subu	s4,s1,s0
9d00e888:	02008825 	move	s1,s0
9d00e88c:	8fbf003c 	lw	ra,60(sp)
9d00e890:	02201025 	move	v0,s1
9d00e894:	8fb60038 	lw	s6,56(sp)
9d00e898:	8fb50034 	lw	s5,52(sp)
9d00e89c:	8fb40030 	lw	s4,48(sp)
9d00e8a0:	8fb3002c 	lw	s3,44(sp)
9d00e8a4:	8fb20028 	lw	s2,40(sp)
9d00e8a8:	8fb10024 	lw	s1,36(sp)
9d00e8ac:	8fb00020 	lw	s0,32(sp)
9d00e8b0:	03e00008 	jr	ra
9d00e8b4:	27bd0040 	addiu	sp,sp,64
9d00e8b8:	2e860011 	sltiu	a2,s4,17
9d00e8bc:	24020010 	li	v0,16
9d00e8c0:	0286100b 	movn	v0,s4,a2
9d00e8c4:	00403025 	move	a2,v0
9d00e8c8:	24050020 	li	a1,32
9d00e8cc:	27a40010 	addiu	a0,sp,16
9d00e8d0:	0f4043a0 	jal	9d010e80 <memset>
9d00e8d4:	0280a825 	move	s5,s4
9d00e8d8:	2ea20010 	sltiu	v0,s5,16
9d00e8dc:	1040000b 	beqz	v0,9d00e90c <__pad+0xe8>
9d00e8e0:	3286000f 	andi	a2,s4,0xf
9d00e8e4:	27a50010 	addiu	a1,sp,16
9d00e8e8:	0f403e99 	jal	9d00fa64 <__out>
9d00e8ec:	02402025 	move	a0,s2
9d00e8f0:	1660ffe6 	bnez	s3,9d00e88c <__pad+0x68>
9d00e8f4:	02003025 	move	a2,s0
9d00e8f8:	02c02825 	move	a1,s6
9d00e8fc:	0f403e99 	jal	9d00fa64 <__out>
9d00e900:	02402025 	move	a0,s2
9d00e904:	1000ffe2 	b	9d00e890 <__pad+0x6c>
9d00e908:	8fbf003c 	lw	ra,60(sp)
9d00e90c:	24060010 	li	a2,16
9d00e910:	27a50010 	addiu	a1,sp,16
9d00e914:	0f403e99 	jal	9d00fa64 <__out>
9d00e918:	02402025 	move	a0,s2
9d00e91c:	1000ffee 	b	9d00e8d8 <__pad+0xb4>
9d00e920:	26b5fff0 	addiu	s5,s5,-16

Disassembly of section .text.dptofp:

9d00e924 <__truncdfsf2>:
9d00e924:	00053ac0 00045d42 00eb3825 000432c0     .:..B]..%8...2..
9d00e934:	3c018000 00e13825 3c018000 00a14824     ...<%8.....<$H..
9d00e944:	00054040 00084542 2508fc80 250bffff     @@..BE.....%...%
9d00e954:	2d6100fe 10200012 00000000              ..a-.. .....

9d00e960 <Hlab1>:
9d00e960:	10c00002 	beqz	a2,9d00e96c <i45>
9d00e964:	00000000 	nop
9d00e968:	34e70001 	ori	a3,a3,0x1

9d00e96c <i45>:
9d00e96c:	24e70080 	addiu	a3,a3,128
9d00e970:	2ceb0080 	sltiu	t3,a3,128
9d00e974:	010b4021 	addu	t0,t0,t3
9d00e978:	00075a02 	srl	t3,a3,0x8
9d00e97c:	316b0001 	andi	t3,t3,0x1
9d00e980:	00eb3823 	subu	a3,a3,t3
9d00e984:	00073840 	sll	a3,a3,0x1
9d00e988:	00073a42 	srl	a3,a3,0x9
9d00e98c:	00085dc0 	sll	t3,t0,0x17
9d00e990:	00eb3825 	or	a3,a3,t3
9d00e994:	00e91025 	or	v0,a3,t1

9d00e998 <H999>:
9d00e998:	03e00008 	jr	ra
9d00e99c:	00000000 	nop
9d00e9a0:	00000000 	nop

9d00e9a4 <Hspec>:
9d00e9a4:	2401047f 	li	at,1151
9d00e9a8:	15010007 	bne	t0,at,9d00e9c8 <i46>
9d00e9ac:	00000000 	nop
9d00e9b0:	00075840 	sll	t3,a3,0x1
9d00e9b4:	01665825 	or	t3,t3,a2
9d00e9b8:	11600003 	beqz	t3,9d00e9c8 <i46>
9d00e9bc:	00000000 	nop
9d00e9c0:	1000fff5 	b	9d00e998 <H999>
9d00e9c4:	3c02ffc0 	lui	v0,0xffc0

9d00e9c8 <i46>:
9d00e9c8:	290100ff 	slti	at,t0,255
9d00e9cc:	14200004 	bnez	at,9d00e9e0 <i48>
9d00e9d0:	00000000 	nop
9d00e9d4:	3c017f80 	lui	at,0x7f80
9d00e9d8:	1000ffef 	b	9d00e998 <H999>
9d00e9dc:	01211025 	or	v0,t1,at

9d00e9e0 <i48>:
9d00e9e0:	240a0001 	li	t2,1
9d00e9e4:	01485023 	subu	t2,t2,t0
9d00e9e8:	2d410020 	sltiu	at,t2,32
9d00e9ec:	14200003 	bnez	at,9d00e9fc <i49>
9d00e9f0:	00000000 	nop
9d00e9f4:	1000ffe8 	b	9d00e998 <H999>
9d00e9f8:	00091025 	or	v0,zero,t1

9d00e9fc <i49>:
9d00e9fc:	240c0020 	li	t4,32
9d00ea00:	018a6023 	subu	t4,t4,t2
9d00ea04:	01875804 	sllv	t3,a3,t4
9d00ea08:	00cb3025 	or	a2,a2,t3
9d00ea0c:	01473806 	srlv	a3,a3,t2
9d00ea10:	24080000 	li	t0,0
9d00ea14:	3c018000 	lui	at,0x8000
9d00ea18:	1000ffd1 	b	9d00e960 <Hlab1>
9d00ea1c:	00e13825 	or	a3,a3,at
9d00ea20:	00000000 	nop

Disassembly of section .text.__fmt_o:

9d00ea24 <__fmt_o>:
9d00ea24:	8ca20000 	lw	v0,0(a1)
9d00ea28:	8ca30004 	lw	v1,4(a1)
9d00ea2c:	27bdffc0 	addiu	sp,sp,-64
9d00ea30:	afb30038 	sw	s3,56(sp)
9d00ea34:	afb20034 	sw	s2,52(sp)
9d00ea38:	afb10030 	sw	s1,48(sp)
9d00ea3c:	afb0002c 	sw	s0,44(sp)
9d00ea40:	afbf003c 	sw	ra,60(sp)
9d00ea44:	00809025 	move	s2,a0
9d00ea48:	00a08025 	move	s0,a1
9d00ea4c:	8cb30008 	lw	s3,8(a1)
9d00ea50:	afa20020 	sw	v0,32(sp)
9d00ea54:	04600003 	bltz	v1,9d00ea64 <__fmt_o+0x40>
9d00ea58:	8cb1000c 	lw	s1,12(a1)
9d00ea5c:	7c020844 	ins	v0,zero,0x1,0x1
9d00ea60:	afa20020 	sw	v0,32(sp)
9d00ea64:	27a20020 	addiu	v0,sp,32
9d00ea68:	afa20018 	sw	v0,24(sp)
9d00ea6c:	24020008 	li	v0,8
9d00ea70:	afa20014 	sw	v0,20(sp)
9d00ea74:	afb30010 	sw	s3,16(sp)
9d00ea78:	8cc70004 	lw	a3,4(a2)
9d00ea7c:	8cc60000 	lw	a2,0(a2)
9d00ea80:	0f4037ff 	jal	9d00dffc <__cvt_u>
9d00ea84:	02002025 	move	a0,s0
9d00ea88:	8fa30020 	lw	v1,32(sp)
9d00ea8c:	30630010 	andi	v1,v1,0x10
9d00ea90:	10600004 	beqz	v1,9d00eaa4 <__fmt_o+0x80>
9d00ea94:	24040030 	li	a0,48
9d00ea98:	2442ffff 	addiu	v0,v0,-1
9d00ea9c:	02221821 	addu	v1,s1,v0
9d00eaa0:	a0640000 	sb	a0,0(v1)
9d00eaa4:	8fa30020 	lw	v1,32(sp)
9d00eaa8:	30630008 	andi	v1,v1,0x8
9d00eaac:	10600004 	beqz	v1,9d00eac0 <__fmt_o+0x9c>
9d00eab0:	24040020 	li	a0,32
9d00eab4:	2442ffff 	addiu	v0,v0,-1
9d00eab8:	02221821 	addu	v1,s1,v0
9d00eabc:	a0640000 	sb	a0,0(v1)
9d00eac0:	8e060010 	lw	a2,16(s0)
9d00eac4:	8fa30020 	lw	v1,32(sp)
9d00eac8:	02603825 	move	a3,s3
9d00eacc:	24c6ffff 	addiu	a2,a2,-1
9d00ead0:	afa30010 	sw	v1,16(sp)
9d00ead4:	00c23023 	subu	a2,a2,v0
9d00ead8:	02222821 	addu	a1,s1,v0
9d00eadc:	0f403a09 	jal	9d00e824 <__pad>
9d00eae0:	02402025 	move	a0,s2
9d00eae4:	8e430004 	lw	v1,4(s2)
9d00eae8:	30630100 	andi	v1,v1,0x100
9d00eaec:	10600004 	beqz	v1,9d00eb00 <__fmt_o+0xdc>
9d00eaf0:	8fbf003c 	lw	ra,60(sp)
9d00eaf4:	8e030004 	lw	v1,4(s0)
9d00eaf8:	0043202a 	slt	a0,v0,v1
9d00eafc:	0064100b 	movn	v0,v1,a0
9d00eb00:	8fb30038 	lw	s3,56(sp)
9d00eb04:	8fb20034 	lw	s2,52(sp)
9d00eb08:	8fb10030 	lw	s1,48(sp)
9d00eb0c:	8fb0002c 	lw	s0,44(sp)
9d00eb10:	03e00008 	jr	ra
9d00eb14:	27bd0040 	addiu	sp,sp,64

Disassembly of section .text.scalbn:

9d00eb18 <scalbn>:
9d00eb18:	27bdffe0 	addiu	sp,sp,-32
9d00eb1c:	afb10014 	sw	s1,20(sp)
9d00eb20:	00c08825 	move	s1,a2
9d00eb24:	28c60400 	slti	a2,a2,1024
9d00eb28:	afbf001c 	sw	ra,28(sp)
9d00eb2c:	afb20018 	sw	s2,24(sp)
9d00eb30:	14c0001f 	bnez	a2,9d00ebb0 <scalbn+0x98>
9d00eb34:	afb00010 	sw	s0,16(sp)
9d00eb38:	3c129d00 	lui	s2,0x9d00
9d00eb3c:	8e467560 	lw	a2,30048(s2)
9d00eb40:	8e477564 	lw	a3,30052(s2)
9d00eb44:	0f4030c3 	jal	9d00c30c <__muldf3>
9d00eb48:	2630fc01 	addiu	s0,s1,-1023
9d00eb4c:	2a040400 	slti	a0,s0,1024
9d00eb50:	14800009 	bnez	a0,9d00eb78 <scalbn+0x60>
9d00eb54:	8e467560 	lw	a2,30048(s2)
9d00eb58:	8e477564 	lw	a3,30052(s2)
9d00eb5c:	00402025 	move	a0,v0
9d00eb60:	00602825 	move	a1,v1
9d00eb64:	0f4030c3 	jal	9d00c30c <__muldf3>
9d00eb68:	2630f802 	addiu	s0,s1,-2046
9d00eb6c:	2a050400 	slti	a1,s0,1024
9d00eb70:	240403ff 	li	a0,1023
9d00eb74:	0085800a 	movz	s0,a0,a1
9d00eb78:	261003ff 	addiu	s0,s0,1023
9d00eb7c:	00102500 	sll	a0,s0,0x14
9d00eb80:	00002825 	move	a1,zero
9d00eb84:	00a03025 	move	a2,a1
9d00eb88:	00803825 	move	a3,a0
9d00eb8c:	00602825 	move	a1,v1
9d00eb90:	0f4030c3 	jal	9d00c30c <__muldf3>
9d00eb94:	00402025 	move	a0,v0
9d00eb98:	8fbf001c 	lw	ra,28(sp)
9d00eb9c:	8fb20018 	lw	s2,24(sp)
9d00eba0:	8fb10014 	lw	s1,20(sp)
9d00eba4:	8fb00010 	lw	s0,16(sp)
9d00eba8:	03e00008 	jr	ra
9d00ebac:	27bd0020 	addiu	sp,sp,32
9d00ebb0:	2a26fc02 	slti	a2,s1,-1022
9d00ebb4:	00801025 	move	v0,a0
9d00ebb8:	00a01825 	move	v1,a1
9d00ebbc:	10c0ffee 	beqz	a2,9d00eb78 <scalbn+0x60>
9d00ebc0:	02208025 	move	s0,s1
9d00ebc4:	3c129d00 	lui	s2,0x9d00
9d00ebc8:	8e467568 	lw	a2,30056(s2)
9d00ebcc:	8e47756c 	lw	a3,30060(s2)
9d00ebd0:	0f4030c3 	jal	9d00c30c <__muldf3>
9d00ebd4:	263003c9 	addiu	s0,s1,969
9d00ebd8:	2a04fc02 	slti	a0,s0,-1022
9d00ebdc:	1080ffe6 	beqz	a0,9d00eb78 <scalbn+0x60>
9d00ebe0:	8e467568 	lw	a2,30056(s2)
9d00ebe4:	8e47756c 	lw	a3,30060(s2)
9d00ebe8:	00402025 	move	a0,v0
9d00ebec:	00602825 	move	a1,v1
9d00ebf0:	0f4030c3 	jal	9d00c30c <__muldf3>
9d00ebf4:	26300792 	addiu	s0,s1,1938
9d00ebf8:	2a05fc02 	slti	a1,s0,-1022
9d00ebfc:	2404fc02 	li	a0,-1022
9d00ec00:	1000ffdd 	b	9d00eb78 <scalbn+0x60>
9d00ec04:	0085800b 	movn	s0,a0,a1

Disassembly of section .text.__pop_ptr:

9d00ec08 <__pop_ptr>:
9d00ec08:	24020084 	li	v0,132
9d00ec0c:	50a20022 	beql	a1,v0,9d00ec98 <__pop_ptr+0x90>
9d00ec10:	8ce20000 	lw	v0,0(a3)
9d00ec14:	28a20085 	slti	v0,a1,133
9d00ec18:	10400010 	beqz	v0,9d00ec5c <__pop_ptr+0x54>
9d00ec1c:	24020081 	li	v0,129
9d00ec20:	50a20008 	beql	a1,v0,9d00ec44 <__pop_ptr+0x3c>
9d00ec24:	8ce20000 	lw	v0,0(a3)
9d00ec28:	24020082 	li	v0,130
9d00ec2c:	50a20027 	beql	a1,v0,9d00eccc <__pop_ptr+0xc4>
9d00ec30:	8ce20000 	lw	v0,0(a3)
9d00ec34:	24020080 	li	v0,128
9d00ec38:	14a20010 	bne	a1,v0,9d00ec7c <__pop_ptr+0x74>
9d00ec3c:	00000000 	nop
9d00ec40:	8ce20000 	lw	v0,0(a3)
9d00ec44:	24430004 	addiu	v1,v0,4
9d00ec48:	ace30000 	sw	v1,0(a3)
9d00ec4c:	8c420000 	lw	v0,0(v0)
9d00ec50:	ac820000 	sw	v0,0(a0)
9d00ec54:	10000015 	b	9d00ecac <__pop_ptr+0xa4>
9d00ec58:	ac460000 	sw	a2,0(v0)
9d00ec5c:	24020090 	li	v0,144
9d00ec60:	50a2001a 	beql	a1,v0,9d00eccc <__pop_ptr+0xc4>
9d00ec64:	8ce20000 	lw	v0,0(a3)
9d00ec68:	28a20091 	slti	v0,a1,145
9d00ec6c:	10400005 	beqz	v0,9d00ec84 <__pop_ptr+0x7c>
9d00ec70:	24020088 	li	v0,136
9d00ec74:	50a2000f 	beql	a1,v0,9d00ecb4 <__pop_ptr+0xac>
9d00ec78:	8ce20000 	lw	v0,0(a3)
9d00ec7c:	03e00008 	jr	ra
9d00ec80:	00001025 	move	v0,zero
9d00ec84:	240200a0 	li	v0,160
9d00ec88:	50a2ffee 	beql	a1,v0,9d00ec44 <__pop_ptr+0x3c>
9d00ec8c:	8ce20000 	lw	v0,0(a3)
9d00ec90:	1000ffe9 	b	9d00ec38 <__pop_ptr+0x30>
9d00ec94:	240200c0 	li	v0,192
9d00ec98:	24430004 	addiu	v1,v0,4
9d00ec9c:	ace30000 	sw	v1,0(a3)
9d00eca0:	8c420000 	lw	v0,0(v0)
9d00eca4:	ac820000 	sw	v0,0(a0)
9d00eca8:	a4460000 	sh	a2,0(v0)
9d00ecac:	03e00008 	jr	ra
9d00ecb0:	24020001 	li	v0,1
9d00ecb4:	24430004 	addiu	v1,v0,4
9d00ecb8:	ace30000 	sw	v1,0(a3)
9d00ecbc:	8c420000 	lw	v0,0(v0)
9d00ecc0:	ac820000 	sw	v0,0(a0)
9d00ecc4:	1000fff9 	b	9d00ecac <__pop_ptr+0xa4>
9d00ecc8:	a0460000 	sb	a2,0(v0)
9d00eccc:	24430004 	addiu	v1,v0,4
9d00ecd0:	ace30000 	sw	v1,0(a3)
9d00ecd4:	8c420000 	lw	v0,0(v0)
9d00ecd8:	ac820000 	sw	v0,0(a0)
9d00ecdc:	ac460000 	sw	a2,0(v0)
9d00ece0:	000637c3 	sra	a2,a2,0x1f
9d00ece4:	1000fff1 	b	9d00ecac <__pop_ptr+0xa4>
9d00ece8:	ac460004 	sw	a2,4(v0)

Disassembly of section .text.general_exception:

9d00ecec <_general_exception_context>:
9d00ecec:	27bdffa8 	addiu	sp,sp,-88
9d00ecf0:	afa10004 	sw	at,4(sp)
9d00ecf4:	afa20008 	sw	v0,8(sp)
9d00ecf8:	afa3000c 	sw	v1,12(sp)
9d00ecfc:	afa40010 	sw	a0,16(sp)
9d00ed00:	afa50014 	sw	a1,20(sp)
9d00ed04:	afa60018 	sw	a2,24(sp)
9d00ed08:	afa7001c 	sw	a3,28(sp)
9d00ed0c:	afa80020 	sw	t0,32(sp)
9d00ed10:	afa90024 	sw	t1,36(sp)
9d00ed14:	afaa0028 	sw	t2,40(sp)
9d00ed18:	afab002c 	sw	t3,44(sp)
9d00ed1c:	afac0030 	sw	t4,48(sp)
9d00ed20:	afad0034 	sw	t5,52(sp)
9d00ed24:	afae0038 	sw	t6,56(sp)
9d00ed28:	afaf003c 	sw	t7,60(sp)
9d00ed2c:	afb80040 	sw	t8,64(sp)
9d00ed30:	afb90044 	sw	t9,68(sp)
9d00ed34:	afbf0048 	sw	ra,72(sp)
9d00ed38:	00004012 	mflo	t0
9d00ed3c:	afa8004c 	sw	t0,76(sp)
9d00ed40:	00004010 	mfhi	t0
9d00ed44:	afa80050 	sw	t0,80(sp)
9d00ed48:	3c1a9d01 	lui	k0,0x9d01
9d00ed4c:	275a07ec 	addiu	k0,k0,2028
9d00ed50:	00000000 	nop
9d00ed54:	40046800 	mfc0	a0,c0_cause
9d00ed58:	40056000 	mfc0	a1,c0_status
9d00ed5c:	0340f809 	jalr	k0
9d00ed60:	00000000 	nop
9d00ed64:	8fa80050 	lw	t0,80(sp)
9d00ed68:	01000011 	mthi	t0
9d00ed6c:	8fa8004c 	lw	t0,76(sp)
9d00ed70:	01000013 	mtlo	t0
9d00ed74:	8fa10004 	lw	at,4(sp)
9d00ed78:	8fa20008 	lw	v0,8(sp)
9d00ed7c:	8fa3000c 	lw	v1,12(sp)
9d00ed80:	8fa40010 	lw	a0,16(sp)
9d00ed84:	8fa50014 	lw	a1,20(sp)
9d00ed88:	8fa60018 	lw	a2,24(sp)
9d00ed8c:	8fa7001c 	lw	a3,28(sp)
9d00ed90:	8fa80020 	lw	t0,32(sp)
9d00ed94:	8fa90024 	lw	t1,36(sp)
9d00ed98:	8faa0028 	lw	t2,40(sp)
9d00ed9c:	8fab002c 	lw	t3,44(sp)
9d00eda0:	8fac0030 	lw	t4,48(sp)
9d00eda4:	8fad0034 	lw	t5,52(sp)
9d00eda8:	8fae0038 	lw	t6,56(sp)
9d00edac:	8faf003c 	lw	t7,60(sp)
9d00edb0:	8fb80040 	lw	t8,64(sp)
9d00edb4:	8fb90044 	lw	t9,68(sp)
9d00edb8:	8fbf0048 	lw	ra,72(sp)
9d00edbc:	27bd0058 	addiu	sp,sp,88
9d00edc0:	000000c0 	ehb
9d00edc4:	42000018 	eret

Disassembly of section .text.__stdio_read:

9d00edc8 <__stdio_read>:
9d00edc8:	8c83000c 	lw	v1,12(a0)
9d00edcc:	27bdffd0 	addiu	sp,sp,-48
9d00edd0:	afb00020 	sw	s0,32(sp)
9d00edd4:	0003102b 	sltu	v0,zero,v1
9d00edd8:	00c21023 	subu	v0,a2,v0
9d00eddc:	00808025 	move	s0,a0
9d00ede0:	afa20014 	sw	v0,20(sp)
9d00ede4:	8c820008 	lw	v0,8(a0)
9d00ede8:	8c840000 	lw	a0,0(a0)
9d00edec:	afb20028 	sw	s2,40(sp)
9d00edf0:	afb10024 	sw	s1,36(sp)
9d00edf4:	00a09025 	move	s2,a1
9d00edf8:	00c08825 	move	s1,a2
9d00edfc:	afa50010 	sw	a1,16(sp)
9d00ee00:	24060002 	li	a2,2
9d00ee04:	27a50010 	addiu	a1,sp,16
9d00ee08:	afbf002c 	sw	ra,44(sp)
9d00ee0c:	afa20018 	sw	v0,24(sp)
9d00ee10:	0f403fc5 	jal	9d00ff14 <readv>
9d00ee14:	afa3001c 	sw	v1,28(sp)
9d00ee18:	1c400007 	bgtz	v0,9d00ee38 <__stdio_read+0x70>
9d00ee1c:	30430018 	andi	v1,v0,0x18
9d00ee20:	38640008 	xori	a0,v1,0x8
9d00ee24:	8e030004 	lw	v1,4(s0)
9d00ee28:	00641825 	or	v1,v1,a0
9d00ee2c:	ae030004 	sw	v1,4(s0)
9d00ee30:	10000011 	b	9d00ee78 <__stdio_read+0xb0>
9d00ee34:	00408825 	move	s1,v0
9d00ee38:	8fa40014 	lw	a0,20(sp)
9d00ee3c:	0082182b 	sltu	v1,a0,v0
9d00ee40:	5060000d 	beqzl	v1,9d00ee78 <__stdio_read+0xb0>
9d00ee44:	00408825 	move	s1,v0
9d00ee48:	8e030008 	lw	v1,8(s0)
9d00ee4c:	00441023 	subu	v0,v0,a0
9d00ee50:	00621021 	addu	v0,v1,v0
9d00ee54:	ae020040 	sw	v0,64(s0)
9d00ee58:	8e02000c 	lw	v0,12(s0)
9d00ee5c:	10400006 	beqz	v0,9d00ee78 <__stdio_read+0xb0>
9d00ee60:	ae03003c 	sw	v1,60(s0)
9d00ee64:	24620001 	addiu	v0,v1,1
9d00ee68:	ae02003c 	sw	v0,60(s0)
9d00ee6c:	90620000 	lbu	v0,0(v1)
9d00ee70:	02519021 	addu	s2,s2,s1
9d00ee74:	a242ffff 	sb	v0,-1(s2)
9d00ee78:	8fbf002c 	lw	ra,44(sp)
9d00ee7c:	02201025 	move	v0,s1
9d00ee80:	8fb20028 	lw	s2,40(sp)
9d00ee84:	8fb10024 	lw	s1,36(sp)
9d00ee88:	8fb00020 	lw	s0,32(sp)
9d00ee8c:	03e00008 	jr	ra
9d00ee90:	27bd0030 	addiu	sp,sp,48

Disassembly of section .text.__stdio_seek_rw:

9d00ee94 <__stdio_seek_rw>:
9d00ee94:	27bdffe0 	addiu	sp,sp,-32
9d00ee98:	24020001 	li	v0,1
9d00ee9c:	afb20018 	sw	s2,24(sp)
9d00eea0:	afb10014 	sw	s1,20(sp)
9d00eea4:	afb00010 	sw	s0,16(sp)
9d00eea8:	afbf001c 	sw	ra,28(sp)
9d00eeac:	00808025 	move	s0,a0
9d00eeb0:	00c09025 	move	s2,a2
9d00eeb4:	14c20005 	bne	a2,v0,9d00eecc <__stdio_seek_rw+0x38>
9d00eeb8:	00a08825 	move	s1,a1
9d00eebc:	8c820040 	lw	v0,64(a0)
9d00eec0:	8c83003c 	lw	v1,60(a0)
9d00eec4:	00431023 	subu	v0,v0,v1
9d00eec8:	00a28823 	subu	s1,a1,v0
9d00eecc:	8e020004 	lw	v0,4(s0)
9d00eed0:	30420020 	andi	v0,v0,0x20
9d00eed4:	1040000a 	beqz	v0,9d00ef00 <__stdio_seek_rw+0x6c>
9d00eed8:	02403025 	move	a2,s2
9d00eedc:	8e020014 	lw	v0,20(s0)
9d00eee0:	8e030018 	lw	v1,24(s0)
9d00eee4:	0062102b 	sltu	v0,v1,v0
9d00eee8:	5440000d 	bnezl	v0,9d00ef20 <__stdio_seek_rw+0x8c>
9d00eeec:	8e02002c 	lw	v0,44(s0)
9d00eef0:	ae000028 	sw	zero,40(s0)
9d00eef4:	ae000018 	sw	zero,24(s0)
9d00eef8:	ae000014 	sw	zero,20(s0)
9d00eefc:	02403025 	move	a2,s2
9d00ef00:	02202825 	move	a1,s1
9d00ef04:	0f404231 	jal	9d0108c4 <__stdio_seek_unbuffered>
9d00ef08:	02002025 	move	a0,s0
9d00ef0c:	0440000b 	bltz	v0,9d00ef3c <__stdio_seek_rw+0xa8>
9d00ef10:	00001025 	move	v0,zero
9d00ef14:	ae000040 	sw	zero,64(s0)
9d00ef18:	10000009 	b	9d00ef40 <__stdio_seek_rw+0xac>
9d00ef1c:	ae00003c 	sw	zero,60(s0)
9d00ef20:	00003025 	move	a2,zero
9d00ef24:	00002825 	move	a1,zero
9d00ef28:	0040f809 	jalr	v0
9d00ef2c:	02002025 	move	a0,s0
9d00ef30:	8e020014 	lw	v0,20(s0)
9d00ef34:	5440ffef 	bnezl	v0,9d00eef4 <__stdio_seek_rw+0x60>
9d00ef38:	ae000028 	sw	zero,40(s0)
9d00ef3c:	2402ffff 	li	v0,-1
9d00ef40:	8fbf001c 	lw	ra,28(sp)
9d00ef44:	8fb20018 	lw	s2,24(sp)
9d00ef48:	8fb10014 	lw	s1,20(sp)
9d00ef4c:	8fb00010 	lw	s0,16(sp)
9d00ef50:	03e00008 	jr	ra
9d00ef54:	27bd0020 	addiu	sp,sp,32

Disassembly of section .text.__stdio_close_rw:

9d00ef58 <__stdio_close_rw>:
9d00ef58:	14800003 	bnez	a0,9d00ef68 <__stdio_close_rw+0x10>
9d00ef5c:	00001025 	move	v0,zero
9d00ef60:	03e00008 	jr	ra
9d00ef64:	00000000 	nop
9d00ef68:	8c820004 	lw	v0,4(a0)
9d00ef6c:	27bdffe0 	addiu	sp,sp,-32
9d00ef70:	afb10018 	sw	s1,24(sp)
9d00ef74:	30420020 	andi	v0,v0,0x20
9d00ef78:	afb00014 	sw	s0,20(sp)
9d00ef7c:	afbf001c 	sw	ra,28(sp)
9d00ef80:	00808025 	move	s0,a0
9d00ef84:	10400009 	beqz	v0,9d00efac <__stdio_close_rw+0x54>
9d00ef88:	00a08825 	move	s1,a1
9d00ef8c:	8c820014 	lw	v0,20(a0)
9d00ef90:	8c830018 	lw	v1,24(a0)
9d00ef94:	0062102b 	sltu	v0,v1,v0
9d00ef98:	54400014 	bnezl	v0,9d00efec <__stdio_close_rw+0x94>
9d00ef9c:	8c82002c 	lw	v0,44(a0)
9d00efa0:	ae000028 	sw	zero,40(s0)
9d00efa4:	ae000018 	sw	zero,24(s0)
9d00efa8:	ae000014 	sw	zero,20(s0)
9d00efac:	8e05003c 	lw	a1,60(s0)
9d00efb0:	8e020040 	lw	v0,64(s0)
9d00efb4:	00a2182b 	sltu	v1,a1,v0
9d00efb8:	10600004 	beqz	v1,9d00efcc <__stdio_close_rw+0x74>
9d00efbc:	24060001 	li	a2,1
9d00efc0:	8e040000 	lw	a0,0(s0)
9d00efc4:	0f40448c 	jal	9d011230 <lseek>
9d00efc8:	00a22823 	subu	a1,a1,v0
9d00efcc:	ae000040 	sw	zero,64(s0)
9d00efd0:	ae00003c 	sw	zero,60(s0)
9d00efd4:	1220000b 	beqz	s1,9d00f004 <__stdio_close_rw+0xac>
9d00efd8:	00001025 	move	v0,zero
9d00efdc:	0f40448e 	jal	9d011238 <close>
9d00efe0:	8e040000 	lw	a0,0(s0)
9d00efe4:	10000008 	b	9d00f008 <__stdio_close_rw+0xb0>
9d00efe8:	8fbf001c 	lw	ra,28(sp)
9d00efec:	00003025 	move	a2,zero
9d00eff0:	0040f809 	jalr	v0
9d00eff4:	00002825 	move	a1,zero
9d00eff8:	8e030014 	lw	v1,20(s0)
9d00effc:	1460ffe8 	bnez	v1,9d00efa0 <__stdio_close_rw+0x48>
9d00f000:	2402ffff 	li	v0,-1
9d00f004:	8fbf001c 	lw	ra,28(sp)
9d00f008:	8fb10018 	lw	s1,24(sp)
9d00f00c:	8fb00014 	lw	s0,20(sp)
9d00f010:	03e00008 	jr	ra
9d00f014:	27bd0020 	addiu	sp,sp,32

Disassembly of section .text.__fmt_u:

9d00f018 <__fmt_u>:
9d00f018:	8ca20000 	lw	v0,0(a1)
9d00f01c:	8ca30004 	lw	v1,4(a1)
9d00f020:	27bdffc0 	addiu	sp,sp,-64
9d00f024:	afb30038 	sw	s3,56(sp)
9d00f028:	afb20034 	sw	s2,52(sp)
9d00f02c:	afb10030 	sw	s1,48(sp)
9d00f030:	afb0002c 	sw	s0,44(sp)
9d00f034:	afbf003c 	sw	ra,60(sp)
9d00f038:	00808825 	move	s1,a0
9d00f03c:	00a08025 	move	s0,a1
9d00f040:	8cb20008 	lw	s2,8(a1)
9d00f044:	afa20020 	sw	v0,32(sp)
9d00f048:	04600003 	bltz	v1,9d00f058 <__fmt_u+0x40>
9d00f04c:	8cb3000c 	lw	s3,12(a1)
9d00f050:	7c020844 	ins	v0,zero,0x1,0x1
9d00f054:	afa20020 	sw	v0,32(sp)
9d00f058:	27a20020 	addiu	v0,sp,32
9d00f05c:	afa20018 	sw	v0,24(sp)
9d00f060:	2402000a 	li	v0,10
9d00f064:	afa20014 	sw	v0,20(sp)
9d00f068:	afb20010 	sw	s2,16(sp)
9d00f06c:	8cc70004 	lw	a3,4(a2)
9d00f070:	8cc60000 	lw	a2,0(a2)
9d00f074:	0f4037ff 	jal	9d00dffc <__cvt_u>
9d00f078:	02002025 	move	a0,s0
9d00f07c:	8e060010 	lw	a2,16(s0)
9d00f080:	8fa30020 	lw	v1,32(sp)
9d00f084:	02403825 	move	a3,s2
9d00f088:	24c6ffff 	addiu	a2,a2,-1
9d00f08c:	afa30010 	sw	v1,16(sp)
9d00f090:	00c23023 	subu	a2,a2,v0
9d00f094:	02622821 	addu	a1,s3,v0
9d00f098:	0f403a09 	jal	9d00e824 <__pad>
9d00f09c:	02202025 	move	a0,s1
9d00f0a0:	8e230004 	lw	v1,4(s1)
9d00f0a4:	30630100 	andi	v1,v1,0x100
9d00f0a8:	10600004 	beqz	v1,9d00f0bc <__fmt_u+0xa4>
9d00f0ac:	8fbf003c 	lw	ra,60(sp)
9d00f0b0:	8e030004 	lw	v1,4(s0)
9d00f0b4:	0043202a 	slt	a0,v0,v1
9d00f0b8:	0064100b 	movn	v0,v1,a0
9d00f0bc:	8fb30038 	lw	s3,56(sp)
9d00f0c0:	8fb20034 	lw	s2,52(sp)
9d00f0c4:	8fb10030 	lw	s1,48(sp)
9d00f0c8:	8fb0002c 	lw	s0,44(sp)
9d00f0cc:	03e00008 	jr	ra
9d00f0d0:	27bd0040 	addiu	sp,sp,64

Disassembly of section .text.__shgetc:

9d00f0d4 <__shgetc>:
9d00f0d4:	8c820050 	lw	v0,80(a0)
9d00f0d8:	27bdffe8 	addiu	sp,sp,-24
9d00f0dc:	afb00010 	sw	s0,16(sp)
9d00f0e0:	afbf0014 	sw	ra,20(sp)
9d00f0e4:	1040000b 	beqz	v0,9d00f114 <__shgetc+0x40>
9d00f0e8:	00808025 	move	s0,a0
9d00f0ec:	8c830054 	lw	v1,84(a0)
9d00f0f0:	0062102a 	slt	v0,v1,v0
9d00f0f4:	14400007 	bnez	v0,9d00f114 <__shgetc+0x40>
9d00f0f8:	00000000 	nop
9d00f0fc:	ae00004c 	sw	zero,76(s0)
9d00f100:	2402ffff 	li	v0,-1
9d00f104:	8fbf0014 	lw	ra,20(sp)
9d00f108:	8fb00010 	lw	s0,16(sp)
9d00f10c:	03e00008 	jr	ra
9d00f110:	27bd0018 	addiu	sp,sp,24
9d00f114:	0f404173 	jal	9d0105cc <__uflow>
9d00f118:	02002025 	move	a0,s0
9d00f11c:	0442fff8 	bltzl	v0,9d00f100 <__shgetc+0x2c>
9d00f120:	ae00004c 	sw	zero,76(s0)
9d00f124:	8e030040 	lw	v1,64(s0)
9d00f128:	8e040050 	lw	a0,80(s0)
9d00f12c:	8e05003c 	lw	a1,60(s0)
9d00f130:	10800009 	beqz	a0,9d00f158 <__shgetc+0x84>
9d00f134:	00603025 	move	a2,v1
9d00f138:	8e060054 	lw	a2,84(s0)
9d00f13c:	00653823 	subu	a3,v1,a1
9d00f140:	00862023 	subu	a0,a0,a2
9d00f144:	00e4382a 	slt	a3,a3,a0
9d00f148:	14e00003 	bnez	a3,9d00f158 <__shgetc+0x84>
9d00f14c:	00603025 	move	a2,v1
9d00f150:	2484ffff 	addiu	a0,a0,-1
9d00f154:	00a43021 	addu	a2,a1,a0
9d00f158:	10600006 	beqz	v1,9d00f174 <__shgetc+0xa0>
9d00f15c:	ae06004c 	sw	a2,76(s0)
9d00f160:	8e040054 	lw	a0,84(s0)
9d00f164:	00651823 	subu	v1,v1,a1
9d00f168:	24630001 	addiu	v1,v1,1
9d00f16c:	00831821 	addu	v1,a0,v1
9d00f170:	ae030054 	sw	v1,84(s0)
9d00f174:	90a3ffff 	lbu	v1,-1(a1)
9d00f178:	5462ffe2 	bnel	v1,v0,9d00f104 <__shgetc+0x30>
9d00f17c:	a0a2ffff 	sb	v0,-1(a1)
9d00f180:	1000ffe1 	b	9d00f108 <__shgetc+0x34>
9d00f184:	8fbf0014 	lw	ra,20(sp)

Disassembly of section .text.__skipws:

9d00f188 <__skipws>:
9d00f188:	27bdffd8 	addiu	sp,sp,-40
9d00f18c:	afb30020 	sw	s3,32(sp)
9d00f190:	afb2001c 	sw	s2,28(sp)
9d00f194:	afb10018 	sw	s1,24(sp)
9d00f198:	afb00014 	sw	s0,20(sp)
9d00f19c:	afbf0024 	sw	ra,36(sp)
9d00f1a0:	00808025 	move	s0,a0
9d00f1a4:	00008825 	move	s1,zero
9d00f1a8:	2412ffff 	li	s2,-1
9d00f1ac:	24130020 	li	s3,32
9d00f1b0:	8e02003c 	lw	v0,60(s0)
9d00f1b4:	8e03004c 	lw	v1,76(s0)
9d00f1b8:	0043182b 	sltu	v1,v0,v1
9d00f1bc:	10600018 	beqz	v1,9d00f220 <__skipws+0x98>
9d00f1c0:	24430001 	addiu	v1,v0,1
9d00f1c4:	ae03003c 	sw	v1,60(s0)
9d00f1c8:	90420000 	lbu	v0,0(v0)
9d00f1cc:	10530012 	beq	v0,s3,9d00f218 <__skipws+0x90>
9d00f1d0:	2442fff7 	addiu	v0,v0,-9
9d00f1d4:	2c420005 	sltiu	v0,v0,5
9d00f1d8:	5440fff5 	bnezl	v0,9d00f1b0 <__skipws+0x28>
9d00f1dc:	26310001 	addiu	s1,s1,1
9d00f1e0:	8e02004c 	lw	v0,76(s0)
9d00f1e4:	10400005 	beqz	v0,9d00f1fc <__skipws+0x74>
9d00f1e8:	8fbf0024 	lw	ra,36(sp)
9d00f1ec:	8e02003c 	lw	v0,60(s0)
9d00f1f0:	2442ffff 	addiu	v0,v0,-1
9d00f1f4:	ae02003c 	sw	v0,60(s0)
9d00f1f8:	8fbf0024 	lw	ra,36(sp)
9d00f1fc:	02201025 	move	v0,s1
9d00f200:	8fb30020 	lw	s3,32(sp)
9d00f204:	8fb2001c 	lw	s2,28(sp)
9d00f208:	8fb10018 	lw	s1,24(sp)
9d00f20c:	8fb00014 	lw	s0,20(sp)
9d00f210:	03e00008 	jr	ra
9d00f214:	27bd0028 	addiu	sp,sp,40
9d00f218:	1000ffe5 	b	9d00f1b0 <__skipws+0x28>
9d00f21c:	26310001 	addiu	s1,s1,1
9d00f220:	0f403c35 	jal	9d00f0d4 <__shgetc>
9d00f224:	02002025 	move	a0,s0
9d00f228:	1452ffe8 	bne	v0,s2,9d00f1cc <__skipws+0x44>
9d00f22c:	8fbf0024 	lw	ra,36(sp)
9d00f230:	1000fff3 	b	9d00f200 <__skipws+0x78>
9d00f234:	02201025 	move	v0,s1

Disassembly of section .text._sbrk:

9d00f238 <_sbrk>:
9d00f238:	27bdffe0 	addiu	sp,sp,-32
9d00f23c:	afb00014 	sw	s0,20(sp)
9d00f240:	3c10a000 	lui	s0,0xa000
9d00f244:	8e021938 	lw	v0,6456(s0)
9d00f248:	afb10018 	sw	s1,24(sp)
9d00f24c:	afbf001c 	sw	ra,28(sp)
9d00f250:	1440000f 	bnez	v0,9d00f290 <_sbrk+0x58>
9d00f254:	00808825 	move	s1,a0
9d00f258:	0f403706 	jal	9d00dc18 <_sbrk_init>
9d00f25c:	00000000 	nop
9d00f260:	8e021938 	lw	v0,6456(s0)
9d00f264:	1440000b 	bnez	v0,9d00f294 <_sbrk+0x5c>
9d00f268:	00000000 	nop
9d00f26c:	3c02a000 	lui	v0,0xa000
9d00f270:	2403000c 	li	v1,12
9d00f274:	ac431948 	sw	v1,6472(v0)
9d00f278:	2402ffff 	li	v0,-1
9d00f27c:	8fbf001c 	lw	ra,28(sp)
9d00f280:	8fb10018 	lw	s1,24(sp)
9d00f284:	8fb00014 	lw	s0,20(sp)
9d00f288:	03e00008 	jr	ra
9d00f28c:	27bd0020 	addiu	sp,sp,32
9d00f290:	8e021938 	lw	v0,6456(s0)
9d00f294:	1a20000a 	blez	s1,9d00f2c0 <_sbrk+0x88>
9d00f298:	00511821 	addu	v1,v0,s1
9d00f29c:	0062202b 	sltu	a0,v1,v0
9d00f2a0:	1480fff2 	bnez	a0,9d00f26c <_sbrk+0x34>
9d00f2a4:	3c04a000 	lui	a0,0xa000
9d00f2a8:	8c84193c 	lw	a0,6460(a0)
9d00f2ac:	0083202b 	sltu	a0,a0,v1
9d00f2b0:	5480ffef 	bnezl	a0,9d00f270 <_sbrk+0x38>
9d00f2b4:	3c02a000 	lui	v0,0xa000
9d00f2b8:	1000fff0 	b	9d00f27c <_sbrk+0x44>
9d00f2bc:	ae031938 	sw	v1,6456(s0)
9d00f2c0:	0043202b 	sltu	a0,v0,v1
9d00f2c4:	14800005 	bnez	a0,9d00f2dc <_sbrk+0xa4>
9d00f2c8:	3c04a000 	lui	a0,0xa000
9d00f2cc:	8c841940 	lw	a0,6464(a0)
9d00f2d0:	0064202b 	sltu	a0,v1,a0
9d00f2d4:	5080ffe9 	beqzl	a0,9d00f27c <_sbrk+0x44>
9d00f2d8:	ae031938 	sw	v1,6456(s0)
9d00f2dc:	3c02a000 	lui	v0,0xa000
9d00f2e0:	1000ffe4 	b	9d00f274 <_sbrk+0x3c>
9d00f2e4:	24030016 	li	v1,22

Disassembly of section .text.unbin:

9d00f2e8 <unbin>:
9d00f2e8:	27bdffe0 	addiu	sp,sp,-32
9d00f2ec:	afb20018 	sw	s2,24(sp)
9d00f2f0:	afb10014 	sw	s1,20(sp)
9d00f2f4:	8c92000c 	lw	s2,12(a0)
9d00f2f8:	8c910008 	lw	s1,8(a0)
9d00f2fc:	afb00010 	sw	s0,16(sp)
9d00f300:	afbf001c 	sw	ra,28(sp)
9d00f304:	16510013 	bne	s2,s1,9d00f354 <unbin+0x6c>
9d00f308:	00808025 	move	s0,a0
9d00f30c:	00a03025 	move	a2,a1
9d00f310:	24040001 	li	a0,1
9d00f314:	0f4042cf 	jal	9d010b3c <__ashldi3>
9d00f318:	00002825 	move	a1,zero
9d00f31c:	00031827 	nor	v1,zero,v1
9d00f320:	10400005 	beqz	v0,9d00f338 <unbin+0x50>
9d00f324:	00022827 	nor	a1,zero,v0
9d00f328:	3c04a000 	lui	a0,0xa000
9d00f32c:	8c8216c8 	lw	v0,5832(a0)
9d00f330:	00451024 	and	v0,v0,a1
9d00f334:	ac8216c8 	sw	v0,5832(a0)
9d00f338:	2402ffff 	li	v0,-1
9d00f33c:	10620005 	beq	v1,v0,9d00f354 <unbin+0x6c>
9d00f340:	3c02a000 	lui	v0,0xa000
9d00f344:	244216c8 	addiu	v0,v0,5832
9d00f348:	8c440004 	lw	a0,4(v0)
9d00f34c:	00641824 	and	v1,v1,a0
9d00f350:	ac430004 	sw	v1,4(v0)
9d00f354:	8e020004 	lw	v0,4(s0)
9d00f358:	ae510008 	sw	s1,8(s2)
9d00f35c:	ae32000c 	sw	s2,12(s1)
9d00f360:	34430001 	ori	v1,v0,0x1
9d00f364:	7c020004 	ins	v0,zero,0x0,0x1
9d00f368:	ae030004 	sw	v1,4(s0)
9d00f36c:	02028021 	addu	s0,s0,v0
9d00f370:	8e020000 	lw	v0,0(s0)
9d00f374:	8fbf001c 	lw	ra,28(sp)
9d00f378:	8fb20018 	lw	s2,24(sp)
9d00f37c:	34420001 	ori	v0,v0,0x1
9d00f380:	ae020000 	sw	v0,0(s0)
9d00f384:	8fb10014 	lw	s1,20(sp)
9d00f388:	8fb00010 	lw	s0,16(sp)
9d00f38c:	03e00008 	jr	ra
9d00f390:	27bd0020 	addiu	sp,sp,32

Disassembly of section .text.fptodp:

9d00f394 <__extendsfdf2>:
9d00f394:	00043dc2 30e700ff 3c018000 00813024     .=.....0...<$0..
9d00f3a4:	24e9ffff 2d2100fe 1020000d 00000000     ...$..!-.. .....

9d00f3b4 <Glab1>:
9d00f3b4:	24e70380 	addiu	a3,a3,896
9d00f3b8:	00044a40 	sll	t1,a0,0x9
9d00f3bc:	00094b02 	srl	t1,t1,0xc
9d00f3c0:	00c93025 	or	a2,a2,t1
9d00f3c4:	00042f40 	sll	a1,a0,0x1d

9d00f3c8 <Gret>:
9d00f3c8:	00074d00 	sll	t1,a3,0x14
9d00f3cc:	00c93025 	or	a2,a2,t1
9d00f3d0:	00051025 	or	v0,zero,a1
9d00f3d4:	00061825 	or	v1,zero,a2

9d00f3d8 <G999>:
9d00f3d8:	03e00008 	jr	ra
9d00f3dc:	00000000 	nop
9d00f3e0:	00000000 	nop

9d00f3e4 <Gspec>:
9d00f3e4:	24050000 	li	a1,0
9d00f3e8:	00842021 	addu	a0,a0,a0
9d00f3ec:	1080fff6 	beqz	a0,9d00f3c8 <Gret>
9d00f3f0:	00000000 	nop
9d00f3f4:	14e00009 	bnez	a3,9d00f41c <i42>
9d00f3f8:	00000000 	nop

9d00f3fc <b43>:
9d00f3fc:	24e7ffff 	addiu	a3,a3,-1
9d00f400:	00842021 	addu	a0,a0,a0
9d00f404:	3c010080 	lui	at,0x80
9d00f408:	0081082b 	sltu	at,a0,at
9d00f40c:	1420fffb 	bnez	at,9d00f3fc <b43>
9d00f410:	00000000 	nop
9d00f414:	1000ffe7 	b	9d00f3b4 <Glab1>
9d00f418:	00000000 	nop

9d00f41c <i42>:
9d00f41c:	240707ff 	li	a3,2047
9d00f420:	3c01ff00 	lui	at,0xff00
9d00f424:	34210001 	ori	at,at,0x1
9d00f428:	0081082b 	sltu	at,a0,at
9d00f42c:	1420ffe6 	bnez	at,9d00f3c8 <Gret>
9d00f430:	00000000 	nop
9d00f434:	1000ffe4 	b	9d00f3c8 <Gret>
9d00f438:	3c06fff8 	lui	a2,0xfff8
9d00f43c:	00000000 	nop

Disassembly of section .text.__push_float:

9d00f440 <__push_float>:
9d00f440:	24020081 	li	v0,129
9d00f444:	50a20012 	beql	a1,v0,9d00f490 <__push_float+0x50>
9d00f448:	8cc20000 	lw	v0,0(a2)
9d00f44c:	24020083 	li	v0,131
9d00f450:	50a20006 	beql	a1,v0,9d00f46c <__push_float+0x2c>
9d00f454:	8cc20000 	lw	v0,0(a2)
9d00f458:	24020080 	li	v0,128
9d00f45c:	10a20012 	beq	a1,v0,9d00f4a8 <__push_float+0x68>
9d00f460:	00001025 	move	v0,zero
9d00f464:	03e00008 	jr	ra
9d00f468:	00000000 	nop
9d00f46c:	24430004 	addiu	v1,v0,4
9d00f470:	acc30000 	sw	v1,0(a2)
9d00f474:	8c850004 	lw	a1,4(a0)
9d00f478:	8c420000 	lw	v0,0(v0)
9d00f47c:	8c840000 	lw	a0,0(a0)
9d00f480:	ac440000 	sw	a0,0(v0)
9d00f484:	ac450004 	sw	a1,4(v0)
9d00f488:	03e00008 	jr	ra
9d00f48c:	24020001 	li	v0,1
9d00f490:	24430004 	addiu	v1,v0,4
9d00f494:	acc30000 	sw	v1,0(a2)
9d00f498:	8c850004 	lw	a1,4(a0)
9d00f49c:	8c420000 	lw	v0,0(v0)
9d00f4a0:	1000fff7 	b	9d00f480 <__push_float+0x40>
9d00f4a4:	8c840000 	lw	a0,0(a0)
9d00f4a8:	8cc20000 	lw	v0,0(a2)
9d00f4ac:	8c850004 	lw	a1,4(a0)
9d00f4b0:	8c840000 	lw	a0,0(a0)
9d00f4b4:	24430004 	addiu	v1,v0,4
9d00f4b8:	27bdffe8 	addiu	sp,sp,-24
9d00f4bc:	acc30000 	sw	v1,0(a2)
9d00f4c0:	afb00010 	sw	s0,16(sp)
9d00f4c4:	afbf0014 	sw	ra,20(sp)
9d00f4c8:	0f403a49 	jal	9d00e924 <__truncdfsf2>
9d00f4cc:	8c500000 	lw	s0,0(v0)
9d00f4d0:	8fbf0014 	lw	ra,20(sp)
9d00f4d4:	ae020000 	sw	v0,0(s0)
9d00f4d8:	24020001 	li	v0,1
9d00f4dc:	8fb00010 	lw	s0,16(sp)
9d00f4e0:	03e00008 	jr	ra
9d00f4e4:	27bd0018 	addiu	sp,sp,24

Disassembly of section .text.__fmt_s:

9d00f4e8 <__fmt_s>:
9d00f4e8:	3c036c75 	lui	v1,0x6c75
9d00f4ec:	27bdffc8 	addiu	sp,sp,-56
9d00f4f0:	24636e28 	addiu	v1,v1,28200
9d00f4f4:	afa30018 	sw	v1,24(sp)
9d00f4f8:	2403296c 	li	v1,10604
9d00f4fc:	afb20028 	sw	s2,40(sp)
9d00f500:	afb00020 	sw	s0,32(sp)
9d00f504:	afbf0034 	sw	ra,52(sp)
9d00f508:	afb40030 	sw	s4,48(sp)
9d00f50c:	afb3002c 	sw	s3,44(sp)
9d00f510:	afb10024 	sw	s1,36(sp)
9d00f514:	00809025 	move	s2,a0
9d00f518:	00e01025 	move	v0,a3
9d00f51c:	a7a3001c 	sh	v1,28(sp)
9d00f520:	a3a0001e 	sb	zero,30(sp)
9d00f524:	10c00002 	beqz	a2,9d00f530 <__fmt_s+0x48>
9d00f528:	27b00018 	addiu	s0,sp,24
9d00f52c:	00c08025 	move	s0,a2
9d00f530:	8cb10004 	lw	s1,4(a1)
9d00f534:	8cb30008 	lw	s3,8(a1)
9d00f538:	14400003 	bnez	v0,9d00f548 <__fmt_s+0x60>
9d00f53c:	8cb40000 	lw	s4,0(a1)
9d00f540:	0f404454 	jal	9d011150 <strlen>
9d00f544:	02002025 	move	a0,s0
9d00f548:	06200002 	bltz	s1,9d00f554 <__fmt_s+0x6c>
9d00f54c:	0222182b 	sltu	v1,s1,v0
9d00f550:	0223100b 	movn	v0,s1,v1
9d00f554:	afb40010 	sw	s4,16(sp)
9d00f558:	02603825 	move	a3,s3
9d00f55c:	02002825 	move	a1,s0
9d00f560:	02402025 	move	a0,s2
9d00f564:	0f403a09 	jal	9d00e824 <__pad>
9d00f568:	00403025 	move	a2,v0
9d00f56c:	8fbf0034 	lw	ra,52(sp)
9d00f570:	8fb40030 	lw	s4,48(sp)
9d00f574:	8fb3002c 	lw	s3,44(sp)
9d00f578:	8fb20028 	lw	s2,40(sp)
9d00f57c:	8fb10024 	lw	s1,36(sp)
9d00f580:	8fb00020 	lw	s0,32(sp)
9d00f584:	03e00008 	jr	ra
9d00f588:	27bd0038 	addiu	sp,sp,56

Disassembly of section .text.strtox:

9d00f58c <strtox>:
9d00f58c:	27bdff80 	addiu	sp,sp,-128
9d00f590:	afb20078 	sw	s2,120(sp)
9d00f594:	afb10074 	sw	s1,116(sp)
9d00f598:	afb00070 	sw	s0,112(sp)
9d00f59c:	00c09025 	move	s2,a2
9d00f5a0:	00808025 	move	s0,a0
9d00f5a4:	24060060 	li	a2,96
9d00f5a8:	27a40010 	addiu	a0,sp,16
9d00f5ac:	00a08825 	move	s1,a1
9d00f5b0:	afbf007c 	sw	ra,124(sp)
9d00f5b4:	0f4043a0 	jal	9d010e80 <memset>
9d00f5b8:	00002825 	move	a1,zero
9d00f5bc:	2402ffff 	li	v0,-1
9d00f5c0:	00002825 	move	a1,zero
9d00f5c4:	27a40010 	addiu	a0,sp,16
9d00f5c8:	afa20050 	sw	v0,80(sp)
9d00f5cc:	afb00018 	sw	s0,24(sp)
9d00f5d0:	0f404341 	jal	9d010d04 <__shlim>
9d00f5d4:	afb0004c 	sw	s0,76(sp)
9d00f5d8:	02402825 	move	a1,s2
9d00f5dc:	27a40010 	addiu	a0,sp,16
9d00f5e0:	0f4020bc 	jal	9d0082f0 <__floatscan>
9d00f5e4:	24060001 	li	a2,1
9d00f5e8:	00402025 	move	a0,v0
9d00f5ec:	12200008 	beqz	s1,9d00f610 <strtox+0x84>
9d00f5f0:	00602825 	move	a1,v1
9d00f5f4:	8fa20050 	lw	v0,80(sp)
9d00f5f8:	8fa3004c 	lw	v1,76(sp)
9d00f5fc:	00621823 	subu	v1,v1,v0
9d00f600:	8fa20064 	lw	v0,100(sp)
9d00f604:	00621821 	addu	v1,v1,v0
9d00f608:	02038021 	addu	s0,s0,v1
9d00f60c:	ae300000 	sw	s0,0(s1)
9d00f610:	8fbf007c 	lw	ra,124(sp)
9d00f614:	00801025 	move	v0,a0
9d00f618:	00a01825 	move	v1,a1
9d00f61c:	8fb20078 	lw	s2,120(sp)
9d00f620:	8fb10074 	lw	s1,116(sp)
9d00f624:	8fb00070 	lw	s0,112(sp)
9d00f628:	03e00008 	jr	ra
9d00f62c:	27bd0080 	addiu	sp,sp,128

Disassembly of section .text.__string_read:

9d00f630 <__string_read>:
9d00f630:	27bdffd0 	addiu	sp,sp,-48
9d00f634:	afb00014 	sw	s0,20(sp)
9d00f638:	8c900038 	lw	s0,56(a0)
9d00f63c:	afb2001c 	sw	s2,28(sp)
9d00f640:	24d20100 	addiu	s2,a2,256
9d00f644:	afb50028 	sw	s5,40(sp)
9d00f648:	afb40024 	sw	s4,36(sp)
9d00f64c:	afb30020 	sw	s3,32(sp)
9d00f650:	00a0a825 	move	s5,a1
9d00f654:	00809825 	move	s3,a0
9d00f658:	00c0a025 	move	s4,a2
9d00f65c:	00002825 	move	a1,zero
9d00f660:	02403025 	move	a2,s2
9d00f664:	02002025 	move	a0,s0
9d00f668:	afbf002c 	sw	ra,44(sp)
9d00f66c:	0f404313 	jal	9d010c4c <memchr>
9d00f670:	afb10018 	sw	s1,24(sp)
9d00f674:	54400001 	bnezl	v0,9d00f67c <__string_read+0x4c>
9d00f678:	00509023 	subu	s2,v0,s0
9d00f67c:	0292882b 	sltu	s1,s4,s2
9d00f680:	0251a00a 	movz	s4,s2,s1
9d00f684:	02803025 	move	a2,s4
9d00f688:	02002825 	move	a1,s0
9d00f68c:	0f40432b 	jal	9d010cac <memcpy>
9d00f690:	02a02025 	move	a0,s5
9d00f694:	8fbf002c 	lw	ra,44(sp)
9d00f698:	02141021 	addu	v0,s0,s4
9d00f69c:	02128021 	addu	s0,s0,s2
9d00f6a0:	ae62003c 	sw	v0,60(s3)
9d00f6a4:	ae700040 	sw	s0,64(s3)
9d00f6a8:	ae700038 	sw	s0,56(s3)
9d00f6ac:	02801025 	move	v0,s4
9d00f6b0:	8fb50028 	lw	s5,40(sp)
9d00f6b4:	8fb40024 	lw	s4,36(sp)
9d00f6b8:	8fb30020 	lw	s3,32(sp)
9d00f6bc:	8fb2001c 	lw	s2,28(sp)
9d00f6c0:	8fb10018 	lw	s1,24(sp)
9d00f6c4:	8fb00014 	lw	s0,20(sp)
9d00f6c8:	03e00008 	jr	ra
9d00f6cc:	27bd0030 	addiu	sp,sp,48

Disassembly of section .text.__stdio_close:

9d00f6d0 <__stdio_close>:
9d00f6d0:	14800003 	bnez	a0,9d00f6e0 <__stdio_close+0x10>
9d00f6d4:	00001025 	move	v0,zero
9d00f6d8:	03e00008 	jr	ra
9d00f6dc:	00000000 	nop
9d00f6e0:	8c820004 	lw	v0,4(a0)
9d00f6e4:	27bdffe0 	addiu	sp,sp,-32
9d00f6e8:	afb10018 	sw	s1,24(sp)
9d00f6ec:	30420020 	andi	v0,v0,0x20
9d00f6f0:	afb00014 	sw	s0,20(sp)
9d00f6f4:	afbf001c 	sw	ra,28(sp)
9d00f6f8:	00808025 	move	s0,a0
9d00f6fc:	1440000b 	bnez	v0,9d00f72c <__stdio_close+0x5c>
9d00f700:	00a08825 	move	s1,a1
9d00f704:	ae000028 	sw	zero,40(s0)
9d00f708:	ae000018 	sw	zero,24(s0)
9d00f70c:	16200014 	bnez	s1,9d00f760 <__stdio_close+0x90>
9d00f710:	ae000014 	sw	zero,20(s0)
9d00f714:	00001025 	move	v0,zero
9d00f718:	8fbf001c 	lw	ra,28(sp)
9d00f71c:	8fb10018 	lw	s1,24(sp)
9d00f720:	8fb00014 	lw	s0,20(sp)
9d00f724:	03e00008 	jr	ra
9d00f728:	27bd0020 	addiu	sp,sp,32
9d00f72c:	8c820014 	lw	v0,20(a0)
9d00f730:	8c830018 	lw	v1,24(a0)
9d00f734:	0062102b 	sltu	v0,v1,v0
9d00f738:	1040fff2 	beqz	v0,9d00f704 <__stdio_close+0x34>
9d00f73c:	00003025 	move	a2,zero
9d00f740:	8c82002c 	lw	v0,44(a0)
9d00f744:	0040f809 	jalr	v0
9d00f748:	00002825 	move	a1,zero
9d00f74c:	8e030014 	lw	v1,20(s0)
9d00f750:	1060fff1 	beqz	v1,9d00f718 <__stdio_close+0x48>
9d00f754:	2402ffff 	li	v0,-1
9d00f758:	1000ffeb 	b	9d00f708 <__stdio_close+0x38>
9d00f75c:	ae000028 	sw	zero,40(s0)
9d00f760:	0f40448e 	jal	9d011238 <close>
9d00f764:	8e040000 	lw	a0,0(s0)
9d00f768:	1000ffec 	b	9d00f71c <__stdio_close+0x4c>
9d00f76c:	8fbf001c 	lw	ra,28(sp)

Disassembly of section .text.fpcmp:

9d00f770 <__eqsf2>:
9d00f770:	2408fffe 00043040 00053840 00c74825     ...$@0..@8..%H..
9d00f780:	1120001b 00000000 3c01ff00 34210001     .. ........<..!4
9d00f790:	00c1082b 1020001a 00000000 3c01ff00     +..... ........<
9d00f7a0:	34210001 00e1082b 10200015 00000000     ..!4+..... .....
9d00f7b0:	04810002 00063042 00063023              ....B0..#0..

9d00f7bc <i48>:
9d00f7bc:	04a10002 	bgez	a1,9d00f7c8 <i49>
9d00f7c0:	00073842 	srl	a3,a3,0x1
9d00f7c4:	00073823 	negu	a3,a3

9d00f7c8 <i49>:
9d00f7c8:	00c7082a 	slt	at,a2,a3
9d00f7cc:	10200003 	beqz	at,9d00f7dc <i50>
9d00f7d0:	00000000 	nop
9d00f7d4:	10000007 	b	9d00f7f4 <J999>
9d00f7d8:	2402ffff 	li	v0,-1

9d00f7dc <i50>:
9d00f7dc:	00e6082a 	slt	at,a3,a2
9d00f7e0:	10200003 	beqz	at,9d00f7f0 <Jequ>
9d00f7e4:	00000000 	nop
9d00f7e8:	10000002 	b	9d00f7f4 <J999>
9d00f7ec:	24020001 	li	v0,1

9d00f7f0 <Jequ>:
9d00f7f0:	24020000 	li	v0,0

9d00f7f4 <J999>:
9d00f7f4:	03e00008 	jr	ra
9d00f7f8:	00000000 	nop
9d00f7fc:	00000000 	nop

9d00f800 <Jnan>:
9d00f800:	1000fffc 	b	9d00f7f4 <J999>
9d00f804:	00081025 	or	v0,zero,t0
9d00f808:	00000000 	nop

Disassembly of section .text.fpcmplt:

9d00f80c <fpcmplt>:
9d00f80c:	2408fffe 	li	t0,-2
9d00f810:	00043040 	sll	a2,a0,0x1
9d00f814:	00053840 	sll	a3,a1,0x1
9d00f818:	00c74825 	or	t1,a2,a3
9d00f81c:	1120001b 	beqz	t1,9d00f88c <fpcmplt+0x80>
9d00f820:	00000000 	nop
9d00f824:	3c01ff00 	lui	at,0xff00
9d00f828:	34210001 	ori	at,at,0x1
9d00f82c:	00c1082b 	sltu	at,a2,at
9d00f830:	1020001a 	beqz	at,9d00f89c <fpcmplt+0x90>
9d00f834:	00000000 	nop
9d00f838:	3c01ff00 	lui	at,0xff00
9d00f83c:	34210001 	ori	at,at,0x1
9d00f840:	00e1082b 	sltu	at,a3,at
9d00f844:	10200015 	beqz	at,9d00f89c <fpcmplt+0x90>
9d00f848:	00000000 	nop
9d00f84c:	04810002 	bgez	a0,9d00f858 <fpcmplt+0x4c>
9d00f850:	00063042 	srl	a2,a2,0x1
9d00f854:	00063023 	negu	a2,a2
9d00f858:	04a10002 	bgez	a1,9d00f864 <fpcmplt+0x58>
9d00f85c:	00073842 	srl	a3,a3,0x1
9d00f860:	00073823 	negu	a3,a3
9d00f864:	00c7082a 	slt	at,a2,a3
9d00f868:	10200003 	beqz	at,9d00f878 <fpcmplt+0x6c>
9d00f86c:	00000000 	nop
9d00f870:	10000007 	b	9d00f890 <fpcmplt+0x84>
9d00f874:	2402ffff 	li	v0,-1
9d00f878:	00e6082a 	slt	at,a3,a2
9d00f87c:	10200003 	beqz	at,9d00f88c <fpcmplt+0x80>
9d00f880:	00000000 	nop
9d00f884:	10000002 	b	9d00f890 <fpcmplt+0x84>
9d00f888:	24020001 	li	v0,1
9d00f88c:	24020000 	li	v0,0
9d00f890:	03e00008 	jr	ra
9d00f894:	00000000 	nop
9d00f898:	00000000 	nop
9d00f89c:	1000fffc 	b	9d00f890 <fpcmplt+0x84>
9d00f8a0:	34020001 	li	v0,0x1
9d00f8a4:	00000000 	nop

Disassembly of section .text.__toread:

9d00f8a8 <__toread>:
9d00f8a8:	27bdffe8 	addiu	sp,sp,-24
9d00f8ac:	afb00010 	sw	s0,16(sp)
9d00f8b0:	afbf0014 	sw	ra,20(sp)
9d00f8b4:	80820048 	lb	v0,72(a0)
9d00f8b8:	2443ffff 	addiu	v1,v0,-1
9d00f8bc:	00431025 	or	v0,v0,v1
9d00f8c0:	a0820048 	sb	v0,72(a0)
9d00f8c4:	8c830018 	lw	v1,24(a0)
9d00f8c8:	8c820014 	lw	v0,20(a0)
9d00f8cc:	0062102b 	sltu	v0,v1,v0
9d00f8d0:	10400005 	beqz	v0,9d00f8e8 <__toread+0x40>
9d00f8d4:	00808025 	move	s0,a0
9d00f8d8:	8c82002c 	lw	v0,44(a0)
9d00f8dc:	00003025 	move	a2,zero
9d00f8e0:	0040f809 	jalr	v0
9d00f8e4:	00002825 	move	a1,zero
9d00f8e8:	8e020004 	lw	v0,4(s0)
9d00f8ec:	ae000028 	sw	zero,40(s0)
9d00f8f0:	ae000018 	sw	zero,24(s0)
9d00f8f4:	30430002 	andi	v1,v0,0x2
9d00f8f8:	10600008 	beqz	v1,9d00f91c <__toread+0x74>
9d00f8fc:	ae000014 	sw	zero,20(s0)
9d00f900:	34420010 	ori	v0,v0,0x10
9d00f904:	ae020004 	sw	v0,4(s0)
9d00f908:	2402ffff 	li	v0,-1
9d00f90c:	8fbf0014 	lw	ra,20(sp)
9d00f910:	8fb00010 	lw	s0,16(sp)
9d00f914:	03e00008 	jr	ra
9d00f918:	27bd0018 	addiu	sp,sp,24
9d00f91c:	8e030008 	lw	v1,8(s0)
9d00f920:	8e04000c 	lw	a0,12(s0)
9d00f924:	7c4200c0 	ext	v0,v0,0x3,0x1
9d00f928:	00021023 	negu	v0,v0
9d00f92c:	00641821 	addu	v1,v1,a0
9d00f930:	ae030040 	sw	v1,64(s0)
9d00f934:	1000fff5 	b	9d00f90c <__toread+0x64>
9d00f938:	ae03003c 	sw	v1,60(s0)

Disassembly of section .text.__stdio_seek:

9d00f93c <__stdio_seek>:
9d00f93c:	8c820004 	lw	v0,4(a0)
9d00f940:	27bdffe0 	addiu	sp,sp,-32
9d00f944:	afb20018 	sw	s2,24(sp)
9d00f948:	30420020 	andi	v0,v0,0x20
9d00f94c:	afb10014 	sw	s1,20(sp)
9d00f950:	afb00010 	sw	s0,16(sp)
9d00f954:	afbf001c 	sw	ra,28(sp)
9d00f958:	00808025 	move	s0,a0
9d00f95c:	00a08825 	move	s1,a1
9d00f960:	10400009 	beqz	v0,9d00f988 <__stdio_seek+0x4c>
9d00f964:	00c09025 	move	s2,a2
9d00f968:	8c820014 	lw	v0,20(a0)
9d00f96c:	8c830018 	lw	v1,24(a0)
9d00f970:	0062102b 	sltu	v0,v1,v0
9d00f974:	5440000a 	bnezl	v0,9d00f9a0 <__stdio_seek+0x64>
9d00f978:	8c82002c 	lw	v0,44(a0)
9d00f97c:	ae000028 	sw	zero,40(s0)
9d00f980:	ae000018 	sw	zero,24(s0)
9d00f984:	ae000014 	sw	zero,20(s0)
9d00f988:	02403025 	move	a2,s2
9d00f98c:	02202825 	move	a1,s1
9d00f990:	0f404231 	jal	9d0108c4 <__stdio_seek_unbuffered>
9d00f994:	02002025 	move	a0,s0
9d00f998:	10000008 	b	9d00f9bc <__stdio_seek+0x80>
9d00f99c:	8fbf001c 	lw	ra,28(sp)
9d00f9a0:	00003025 	move	a2,zero
9d00f9a4:	0040f809 	jalr	v0
9d00f9a8:	00002825 	move	a1,zero
9d00f9ac:	8e030014 	lw	v1,20(s0)
9d00f9b0:	1460fff2 	bnez	v1,9d00f97c <__stdio_seek+0x40>
9d00f9b4:	2402ffff 	li	v0,-1
9d00f9b8:	8fbf001c 	lw	ra,28(sp)
9d00f9bc:	8fb20018 	lw	s2,24(sp)
9d00f9c0:	8fb10014 	lw	s1,20(sp)
9d00f9c4:	8fb00010 	lw	s0,16(sp)
9d00f9c8:	03e00008 	jr	ra
9d00f9cc:	27bd0020 	addiu	sp,sp,32

Disassembly of section .text.__overflow:

9d00f9d0 <__overflow>:
9d00f9d0:	8c820028 	lw	v0,40(a0)
9d00f9d4:	27bdffe0 	addiu	sp,sp,-32
9d00f9d8:	afb00018 	sw	s0,24(sp)
9d00f9dc:	afbf001c 	sw	ra,28(sp)
9d00f9e0:	00808025 	move	s0,a0
9d00f9e4:	10400010 	beqz	v0,9d00fa28 <__overflow+0x58>
9d00f9e8:	a3a50010 	sb	a1,16(sp)
9d00f9ec:	8e030014 	lw	v1,20(s0)
9d00f9f0:	8e020028 	lw	v0,40(s0)
9d00f9f4:	0062102b 	sltu	v0,v1,v0
9d00f9f8:	14400014 	bnez	v0,9d00fa4c <__overflow+0x7c>
9d00f9fc:	93a20010 	lbu	v0,16(sp)
9d00fa00:	8e02002c 	lw	v0,44(s0)
9d00fa04:	24060001 	li	a2,1
9d00fa08:	27a50010 	addiu	a1,sp,16
9d00fa0c:	0040f809 	jalr	v0
9d00fa10:	02002025 	move	a0,s0
9d00fa14:	24030001 	li	v1,1
9d00fa18:	14430007 	bne	v0,v1,9d00fa38 <__overflow+0x68>
9d00fa1c:	93a20010 	lbu	v0,16(sp)
9d00fa20:	10000007 	b	9d00fa40 <__overflow+0x70>
9d00fa24:	8fbf001c 	lw	ra,28(sp)
9d00fa28:	0f404254 	jal	9d010950 <__towrite>
9d00fa2c:	00000000 	nop
9d00fa30:	5040ffef 	beqzl	v0,9d00f9f0 <__overflow+0x20>
9d00fa34:	8e030014 	lw	v1,20(s0)
9d00fa38:	2402ffff 	li	v0,-1
9d00fa3c:	8fbf001c 	lw	ra,28(sp)
9d00fa40:	8fb00018 	lw	s0,24(sp)
9d00fa44:	03e00008 	jr	ra
9d00fa48:	27bd0020 	addiu	sp,sp,32
9d00fa4c:	82040034 	lb	a0,52(s0)
9d00fa50:	1044ffeb 	beq	v0,a0,9d00fa00 <__overflow+0x30>
9d00fa54:	24640001 	addiu	a0,v1,1
9d00fa58:	ae040014 	sw	a0,20(s0)
9d00fa5c:	1000fff7 	b	9d00fa3c <__overflow+0x6c>
9d00fa60:	a0620000 	sb	v0,0(v1)

Disassembly of section .text.__out:

9d00fa64 <__out>:
9d00fa64:	8c820004 	lw	v0,4(a0)
9d00fa68:	27bdffe0 	addiu	sp,sp,-32
9d00fa6c:	afbf001c 	sw	ra,28(sp)
9d00fa70:	30470100 	andi	a3,v0,0x100
9d00fa74:	afb10018 	sw	s1,24(sp)
9d00fa78:	10e00016 	beqz	a3,9d00fad4 <__out+0x70>
9d00fa7c:	afb00014 	sw	s0,20(sp)
9d00fa80:	8c820010 	lw	v0,16(a0)
9d00fa84:	00808025 	move	s0,a0
9d00fa88:	00c01825 	move	v1,a2
9d00fa8c:	00c2882b 	sltu	s1,a2,v0
9d00fa90:	8c840014 	lw	a0,20(a0)
9d00fa94:	0051180a 	movz	v1,v0,s1
9d00fa98:	00603025 	move	a2,v1
9d00fa9c:	0f40432b 	jal	9d010cac <memcpy>
9d00faa0:	00608825 	move	s1,v1
9d00faa4:	8e020014 	lw	v0,20(s0)
9d00faa8:	8e030010 	lw	v1,16(s0)
9d00faac:	00511021 	addu	v0,v0,s1
9d00fab0:	00718823 	subu	s1,v1,s1
9d00fab4:	ae020014 	sw	v0,20(s0)
9d00fab8:	ae110010 	sw	s1,16(s0)
9d00fabc:	a0400000 	sb	zero,0(v0)
9d00fac0:	8fbf001c 	lw	ra,28(sp)
9d00fac4:	8fb10018 	lw	s1,24(sp)
9d00fac8:	8fb00014 	lw	s0,20(sp)
9d00facc:	03e00008 	jr	ra
9d00fad0:	27bd0020 	addiu	sp,sp,32
9d00fad4:	30420010 	andi	v0,v0,0x10
9d00fad8:	5440fffa 	bnezl	v0,9d00fac4 <__out+0x60>
9d00fadc:	8fbf001c 	lw	ra,28(sp)
9d00fae0:	0f4042f9 	jal	9d010be4 <__fwrite>
9d00fae4:	00000000 	nop
9d00fae8:	1000fff6 	b	9d00fac4 <__out+0x60>
9d00faec:	8fbf001c 	lw	ra,28(sp)

Disassembly of section .text.dptoul:

9d00faf0 <__fixunsdfsi>:
9d00faf0:	00053ac0 00045542 00ea3825 3c018000     .:..BU..%8.....<
9d00fb00:	00e13825 00055040 000a5542 2406041e     %8..@P..BU.....$
9d00fb10:	00ca3023 04c0000c 00000000 2cc10020     #0.......... ..,
9d00fb20:	14200002 00000000 34070000              .. ........4

9d00fb2c <L43>:
9d00fb2c:	04a10002 	bgez	a1,9d00fb38 <i53>
9d00fb30:	00c73806 	srlv	a3,a3,a2
9d00fb34:	00073823 	negu	a3,a3

9d00fb38 <i53>:
9d00fb38:	00071025 	or	v0,zero,a3

9d00fb3c <K999>:
9d00fb3c:	03e00008 	jr	ra
9d00fb40:	00000000 	nop
9d00fb44:	00000000 	nop

9d00fb48 <Knaninf>:
9d00fb48:	10800002 	beqz	a0,9d00fb54 <i54>
9d00fb4c:	00000000 	nop
9d00fb50:	34a50001 	ori	a1,a1,0x1

9d00fb54 <i54>:
9d00fb54:	3c017ff0 	lui	at,0x7ff0
9d00fb58:	34210001 	ori	at,at,0x1
9d00fb5c:	00a1082b 	sltu	at,a1,at
9d00fb60:	14200003 	bnez	at,9d00fb70 <i55>
9d00fb64:	00000000 	nop
9d00fb68:	1000fff4 	b	9d00fb3c <K999>
9d00fb6c:	3c028000 	lui	v0,0x8000

9d00fb70 <i55>:
9d00fb70:	1000fff2 	b	9d00fb3c <K999>
9d00fb74:	2402ffff 	li	v0,-1
9d00fb78:	00000000 	nop

Disassembly of section .text.copysignf:

9d00fb7c <copysignf>:
9d00fb7c:	27bdffd0 	addiu	sp,sp,-48
9d00fb80:	afb30028 	sw	s3,40(sp)
9d00fb84:	afb20024 	sw	s2,36(sp)
9d00fb88:	00e09825 	move	s3,a3
9d00fb8c:	00c09025 	move	s2,a2
9d00fb90:	afbf002c 	sw	ra,44(sp)
9d00fb94:	afb10020 	sw	s1,32(sp)
9d00fb98:	0f403a49 	jal	9d00e924 <__truncdfsf2>
9d00fb9c:	afb0001c 	sw	s0,28(sp)
9d00fba0:	02602825 	move	a1,s3
9d00fba4:	02402025 	move	a0,s2
9d00fba8:	0f403a49 	jal	9d00e924 <__truncdfsf2>
9d00fbac:	00408825 	move	s1,v0
9d00fbb0:	00408025 	move	s0,v0
9d00fbb4:	0f403ce5 	jal	9d00f394 <__extendsfdf2>
9d00fbb8:	02202025 	move	a0,s1
9d00fbbc:	02002025 	move	a0,s0
9d00fbc0:	afa20010 	sw	v0,16(sp)
9d00fbc4:	7c707400 	ext	s0,v1,0x10,0xf
9d00fbc8:	0f403ce5 	jal	9d00f394 <__extendsfdf2>
9d00fbcc:	afa30014 	sw	v1,20(sp)
9d00fbd0:	00031c02 	srl	v1,v1,0x10
9d00fbd4:	7c037004 	ins	v1,zero,0x0,0xf
9d00fbd8:	02031825 	or	v1,s0,v1
9d00fbdc:	a7a30016 	sh	v1,22(sp)
9d00fbe0:	8fa40010 	lw	a0,16(sp)
9d00fbe4:	0f403a49 	jal	9d00e924 <__truncdfsf2>
9d00fbe8:	8fa50014 	lw	a1,20(sp)
9d00fbec:	8fbf002c 	lw	ra,44(sp)
9d00fbf0:	8fb30028 	lw	s3,40(sp)
9d00fbf4:	8fb20024 	lw	s2,36(sp)
9d00fbf8:	8fb10020 	lw	s1,32(sp)
9d00fbfc:	8fb0001c 	lw	s0,28(sp)
9d00fc00:	03e00008 	jr	ra
9d00fc04:	27bd0030 	addiu	sp,sp,48

Disassembly of section .text.__fopen_rw:

9d00fc08 <__fopen_rw>:
9d00fc08:	27bdffe8 	addiu	sp,sp,-24
9d00fc0c:	afb00010 	sw	s0,16(sp)
9d00fc10:	afbf0014 	sw	ra,20(sp)
9d00fc14:	0f4032e4 	jal	9d00cb90 <malloc>
9d00fc18:	24040468 	li	a0,1128
9d00fc1c:	10400017 	beqz	v0,9d00fc7c <__fopen_rw+0x74>
9d00fc20:	00408025 	move	s0,v0
9d00fc24:	24060060 	li	a2,96
9d00fc28:	00002825 	move	a1,zero
9d00fc2c:	0f4043a0 	jal	9d010e80 <memset>
9d00fc30:	00402025 	move	a0,v0
9d00fc34:	3c029d01 	lui	v0,0x9d01
9d00fc38:	24420ee8 	addiu	v0,v0,3816
9d00fc3c:	ae02002c 	sw	v0,44(s0)
9d00fc40:	3c029d01 	lui	v0,0x9d01
9d00fc44:	2442ee94 	addiu	v0,v0,-4460
9d00fc48:	ae020030 	sw	v0,48(s0)
9d00fc4c:	3c029d01 	lui	v0,0x9d01
9d00fc50:	2442ef58 	addiu	v0,v0,-4264
9d00fc54:	ae02001c 	sw	v0,28(s0)
9d00fc58:	3c029d01 	lui	v0,0x9d01
9d00fc5c:	2442edc8 	addiu	v0,v0,-4664
9d00fc60:	ae020044 	sw	v0,68(s0)
9d00fc64:	2402ffff 	li	v0,-1
9d00fc68:	a2020034 	sb	v0,52(s0)
9d00fc6c:	26020068 	addiu	v0,s0,104
9d00fc70:	ae020008 	sw	v0,8(s0)
9d00fc74:	24020400 	li	v0,1024
9d00fc78:	ae02000c 	sw	v0,12(s0)
9d00fc7c:	8fbf0014 	lw	ra,20(sp)
9d00fc80:	02001025 	move	v0,s0
9d00fc84:	8fb00010 	lw	s0,16(sp)
9d00fc88:	03e00008 	jr	ra
9d00fc8c:	27bd0018 	addiu	sp,sp,24

Disassembly of section .text.write:

9d00fc90 <write>:
9d00fc90:	27bdffe0 	addiu	sp,sp,-32
9d00fc94:	afb10014 	sw	s1,20(sp)
9d00fc98:	afbf001c 	sw	ra,28(sp)
9d00fc9c:	afb20018 	sw	s2,24(sp)
9d00fca0:	afb00010 	sw	s0,16(sp)
9d00fca4:	10a0000d 	beqz	a1,9d00fcdc <write+0x4c>
9d00fca8:	00008825 	move	s1,zero
9d00fcac:	50c0000c 	beqzl	a2,9d00fce0 <write+0x50>
9d00fcb0:	8fbf001c 	lw	ra,28(sp)
9d00fcb4:	2c840003 	sltiu	a0,a0,3
9d00fcb8:	10800008 	beqz	a0,9d00fcdc <write+0x4c>
9d00fcbc:	00c08825 	move	s1,a2
9d00fcc0:	3c020000 	lui	v0,0x0
9d00fcc4:	24420000 	addiu	v0,v0,0
9d00fcc8:	1040000b 	beqz	v0,9d00fcf8 <write+0x68>
9d00fccc:	00a08025 	move	s0,a1
9d00fcd0:	00c02825 	move	a1,a2
9d00fcd4:	0c000000 	jal	90000000 <_bmxdudba_address+0x8fff0000>
9d00fcd8:	02002025 	move	a0,s0
9d00fcdc:	8fbf001c 	lw	ra,28(sp)
9d00fce0:	02201025 	move	v0,s1
9d00fce4:	8fb20018 	lw	s2,24(sp)
9d00fce8:	8fb10014 	lw	s1,20(sp)
9d00fcec:	8fb00010 	lw	s0,16(sp)
9d00fcf0:	03e00008 	jr	ra
9d00fcf4:	27bd0020 	addiu	sp,sp,32
9d00fcf8:	00a69021 	addu	s2,a1,a2
9d00fcfc:	82040000 	lb	a0,0(s0)
9d00fd00:	0f403931 	jal	9d00e4c4 <_mon_putc>
9d00fd04:	26100001 	addiu	s0,s0,1
9d00fd08:	1650fffc 	bne	s2,s0,9d00fcfc <write+0x6c>
9d00fd0c:	8fbf001c 	lw	ra,28(sp)
9d00fd10:	1000fff4 	b	9d00fce4 <write+0x54>
9d00fd14:	02201025 	move	v0,s1

Disassembly of section .text.dinit.startup:

9d00fd18 <__pic32_data_init_impl>:
9d00fd18:	3c089d01 	lui	t0,0x9d01
9d00fd1c:	2508debc 	addiu	t0,t0,-8516
9d00fd20:	1100001b 	beqz	t0,9d00fd90 <_dinit_end+0x18>
9d00fd24:	00000000 	nop
9d00fd28:	8d090000 	lw	t1,0(t0)
9d00fd2c:	11200018 	beqz	t1,9d00fd90 <_dinit_end+0x18>
9d00fd30:	25080004 	addiu	t0,t0,4
9d00fd34:	8d0a0000 	lw	t2,0(t0)
9d00fd38:	25080004 	addiu	t0,t0,4
9d00fd3c:	8d0b0000 	lw	t3,0(t0)
9d00fd40:	11600009 	beqz	t3,9d00fd68 <_dinit_clear>
9d00fd44:	25080004 	addiu	t0,t0,4

9d00fd48 <_dinit_copy>:
9d00fd48:	910c0000 	lbu	t4,0(t0)
9d00fd4c:	254affff 	addiu	t2,t2,-1
9d00fd50:	25080001 	addiu	t0,t0,1
9d00fd54:	a12c0000 	sb	t4,0(t1)
9d00fd58:	1540fffb 	bnez	t2,9d00fd48 <_dinit_copy>
9d00fd5c:	25290001 	addiu	t1,t1,1
9d00fd60:	10000005 	b	9d00fd78 <_dinit_end>
9d00fd64:	00000000 	nop

9d00fd68 <_dinit_clear>:
9d00fd68:	a1200000 	sb	zero,0(t1)
9d00fd6c:	254affff 	addiu	t2,t2,-1
9d00fd70:	1540fffd 	bnez	t2,9d00fd68 <_dinit_clear>
9d00fd74:	25290001 	addiu	t1,t1,1

9d00fd78 <_dinit_end>:
9d00fd78:	25080003 	addiu	t0,t0,3
9d00fd7c:	240afffc 	li	t2,-4
9d00fd80:	01484024 	and	t0,t2,t0
9d00fd84:	8d090000 	lw	t1,0(t0)
9d00fd88:	1520ffe7 	bnez	t1,9d00fd28 <__pic32_data_init_impl+0x10>
9d00fd8c:	00000000 	nop
9d00fd90:	03e00008 	jr	ra
9d00fd94:	00000000 	nop

Disassembly of section .text.__vsnprintf:

9d00fd98 <__vsnprintf>:
9d00fd98:	27bdffc8 	addiu	sp,sp,-56
9d00fd9c:	2403ffff 	li	v1,-1
9d00fda0:	afa30010 	sw	v1,16(sp)
9d00fda4:	24030102 	li	v1,258
9d00fda8:	00a01025 	move	v0,a1
9d00fdac:	afbf0034 	sw	ra,52(sp)
9d00fdb0:	00c02825 	move	a1,a2
9d00fdb4:	afa30014 	sw	v1,20(sp)
9d00fdb8:	14800002 	bnez	a0,9d00fdc4 <__vsnprintf+0x2c>
9d00fdbc:	00e03025 	move	a2,a3
9d00fdc0:	27a4002c 	addiu	a0,sp,44
9d00fdc4:	afa40018 	sw	a0,24(sp)
9d00fdc8:	afa2001c 	sw	v0,28(sp)
9d00fdcc:	10400002 	beqz	v0,9d00fdd8 <__vsnprintf+0x40>
9d00fdd0:	00001825 	move	v1,zero
9d00fdd4:	2443ffff 	addiu	v1,v0,-1
9d00fdd8:	04410008 	bgez	v0,9d00fdfc <__vsnprintf+0x64>
9d00fddc:	afa30020 	sw	v1,32(sp)
9d00fde0:	3c02a000 	lui	v0,0xa000
9d00fde4:	2403004f 	li	v1,79
9d00fde8:	ac431948 	sw	v1,6472(v0)
9d00fdec:	2402ffff 	li	v0,-1
9d00fdf0:	8fbf0034 	lw	ra,52(sp)
9d00fdf4:	03e00008 	jr	ra
9d00fdf8:	27bd0038 	addiu	sp,sp,56
9d00fdfc:	afa40028 	sw	a0,40(sp)
9d00fe00:	afa40024 	sw	a0,36(sp)
9d00fe04:	a0800000 	sb	zero,0(a0)
9d00fe08:	0f4042a2 	jal	9d010a88 <__vfprintf>
9d00fe0c:	27a40010 	addiu	a0,sp,16
9d00fe10:	1000fff8 	b	9d00fdf4 <__vsnprintf+0x5c>
9d00fe14:	8fbf0034 	lw	ra,52(sp)

Disassembly of section .text.dremf:

9d00fe18 <dremf>:
9d00fe18:	27bdffe0 	addiu	sp,sp,-32
9d00fe1c:	afb10014 	sw	s1,20(sp)
9d00fe20:	afb00010 	sw	s0,16(sp)
9d00fe24:	00e08825 	move	s1,a3
9d00fe28:	00c08025 	move	s0,a2
9d00fe2c:	afbf001c 	sw	ra,28(sp)
9d00fe30:	0f403a49 	jal	9d00e924 <__truncdfsf2>
9d00fe34:	afb20018 	sw	s2,24(sp)
9d00fe38:	02202825 	move	a1,s1
9d00fe3c:	02002025 	move	a0,s0
9d00fe40:	0f403a49 	jal	9d00e924 <__truncdfsf2>
9d00fe44:	00409025 	move	s2,v0
9d00fe48:	0f403ce5 	jal	9d00f394 <__extendsfdf2>
9d00fe4c:	00402025 	move	a0,v0
9d00fe50:	02402025 	move	a0,s2
9d00fe54:	00408025 	move	s0,v0
9d00fe58:	0f403ce5 	jal	9d00f394 <__extendsfdf2>
9d00fe5c:	00608825 	move	s1,v1
9d00fe60:	00402025 	move	a0,v0
9d00fe64:	02003025 	move	a2,s0
9d00fe68:	02203825 	move	a3,s1
9d00fe6c:	0f4029a9 	jal	9d00a6a4 <dreml>
9d00fe70:	00602825 	move	a1,v1
9d00fe74:	00402025 	move	a0,v0
9d00fe78:	0f403a49 	jal	9d00e924 <__truncdfsf2>
9d00fe7c:	00602825 	move	a1,v1
9d00fe80:	8fbf001c 	lw	ra,28(sp)
9d00fe84:	8fb20018 	lw	s2,24(sp)
9d00fe88:	8fb10014 	lw	s1,20(sp)
9d00fe8c:	8fb00010 	lw	s0,16(sp)
9d00fe90:	03e00008 	jr	ra
9d00fe94:	27bd0020 	addiu	sp,sp,32

Disassembly of section .text.atoi:

9d00fe98 <atoi>:
9d00fe98:	24050020 	li	a1,32
9d00fe9c:	80820000 	lb	v0,0(a0)
9d00fea0:	1045000d 	beq	v0,a1,9d00fed8 <atoi+0x40>
9d00fea4:	2443fff7 	addiu	v1,v0,-9
9d00fea8:	2c630005 	sltiu	v1,v1,5
9d00feac:	1460000a 	bnez	v1,9d00fed8 <atoi+0x40>
9d00feb0:	2403002b 	li	v1,43
9d00feb4:	1043000a 	beq	v0,v1,9d00fee0 <atoi+0x48>
9d00feb8:	2403002d 	li	v1,45
9d00febc:	14430003 	bne	v0,v1,9d00fecc <atoi+0x34>
9d00fec0:	00002825 	move	a1,zero
9d00fec4:	24050001 	li	a1,1
9d00fec8:	24840001 	addiu	a0,a0,1
9d00fecc:	00001025 	move	v0,zero
9d00fed0:	10000007 	b	9d00fef0 <atoi+0x58>
9d00fed4:	2407000a 	li	a3,10
9d00fed8:	1000fff0 	b	9d00fe9c <atoi+0x4>
9d00fedc:	24840001 	addiu	a0,a0,1
9d00fee0:	1000fff9 	b	9d00fec8 <atoi+0x30>
9d00fee4:	00002825 	move	a1,zero
9d00fee8:	24840001 	addiu	a0,a0,1
9d00feec:	00431023 	subu	v0,v0,v1
9d00fef0:	80830000 	lb	v1,0(a0)
9d00fef4:	2463ffd0 	addiu	v1,v1,-48
9d00fef8:	2c66000a 	sltiu	a2,v1,10
9d00fefc:	54c0fffa 	bnezl	a2,9d00fee8 <atoi+0x50>
9d00ff00:	70471002 	mul	v0,v0,a3
9d00ff04:	50a00001 	beqzl	a1,9d00ff0c <atoi+0x74>
9d00ff08:	00021023 	negu	v0,v0
9d00ff0c:	03e00008 	jr	ra
9d00ff10:	00000000 	nop

Disassembly of section .text.__readv:

9d00ff14 <readv>:
9d00ff14:	27bdffd8 	addiu	sp,sp,-40
9d00ff18:	afb40020 	sw	s4,32(sp)
9d00ff1c:	afb3001c 	sw	s3,28(sp)
9d00ff20:	afb20018 	sw	s2,24(sp)
9d00ff24:	afb10014 	sw	s1,20(sp)
9d00ff28:	afb00010 	sw	s0,16(sp)
9d00ff2c:	afbf0024 	sw	ra,36(sp)
9d00ff30:	0080a025 	move	s4,a0
9d00ff34:	00c09825 	move	s3,a2
9d00ff38:	00a08025 	move	s0,a1
9d00ff3c:	00008825 	move	s1,zero
9d00ff40:	00009025 	move	s2,zero
9d00ff44:	0253102a 	slt	v0,s2,s3
9d00ff48:	14400009 	bnez	v0,9d00ff70 <readv+0x5c>
9d00ff4c:	8fbf0024 	lw	ra,36(sp)
9d00ff50:	02201025 	move	v0,s1
9d00ff54:	8fb40020 	lw	s4,32(sp)
9d00ff58:	8fb3001c 	lw	s3,28(sp)
9d00ff5c:	8fb20018 	lw	s2,24(sp)
9d00ff60:	8fb10014 	lw	s1,20(sp)
9d00ff64:	8fb00010 	lw	s0,16(sp)
9d00ff68:	03e00008 	jr	ra
9d00ff6c:	27bd0028 	addiu	sp,sp,40
9d00ff70:	8e060004 	lw	a2,4(s0)
9d00ff74:	8e050000 	lw	a1,0(s0)
9d00ff78:	02802025 	move	a0,s4
9d00ff7c:	0f40384e 	jal	9d00e138 <read>
9d00ff80:	26520001 	addiu	s2,s2,1
9d00ff84:	02228821 	addu	s1,s1,v0
9d00ff88:	1000ffee 	b	9d00ff44 <readv+0x30>
9d00ff8c:	26100008 	addiu	s0,s0,8

Disassembly of section .text.litodp:

9d00ff90 <__floatsidf>:
9d00ff90:	24050000 00054825 00053825 00043025     ...$%H..%8..%0..
9d00ffa0:	10c0000c 00000000 04c10006 00000000     ................
9d00ffb0:	3c098000 0005502b 00052823 00063023     ...<+P..#(..#0..
9d00ffc0:	00ca3023                                #0..

9d00ffc4 <i40>:
9d00ffc4:	2407041e 	li	a3,1054
9d00ffc8:	70c84020 	clz	t0,a2
9d00ffcc:	00e83823 	subu	a3,a3,t0
9d00ffd0:	01063004 	sllv	a2,a2,t0

9d00ffd4 <i39>:
9d00ffd4:	000542c2 	srl	t0,a1,0xb
9d00ffd8:	00065540 	sll	t2,a2,0x15
9d00ffdc:	010a4025 	or	t0,t0,t2
9d00ffe0:	00065040 	sll	t2,a2,0x1
9d00ffe4:	000a5302 	srl	t2,t2,0xc
9d00ffe8:	012a4825 	or	t1,t1,t2
9d00ffec:	00075500 	sll	t2,a3,0x14
9d00fff0:	012a4825 	or	t1,t1,t2
9d00fff4:	00081025 	or	v0,zero,t0
9d00fff8:	00091825 	or	v1,zero,t1

9d00fffc <E999>:
9d00fffc:	03e00008 	jr	ra
9d010000:	00000000 	nop
9d010004:	00000000 	nop

Disassembly of section .text.alloc_rev:

9d010008 <alloc_rev>:
9d010008:	8c860000 	lw	a2,0(a0)
9d01000c:	30c20001 	andi	v0,a2,0x1
9d010010:	10400009 	beqz	v0,9d010038 <alloc_rev+0x30>
9d010014:	00803825 	move	a3,a0
9d010018:	03e00008 	jr	ra
9d01001c:	00001025 	move	v0,zero
9d010020:	8ce60000 	lw	a2,0(a3)
9d010024:	30c20001 	andi	v0,a2,0x1
9d010028:	10400005 	beqz	v0,9d010040 <alloc_rev+0x38>
9d01002c:	00001025 	move	v0,zero
9d010030:	10000010 	b	9d010074 <alloc_rev+0x6c>
9d010034:	8fbf0014 	lw	ra,20(sp)
9d010038:	27bdffe8 	addiu	sp,sp,-24
9d01003c:	afbf0014 	sw	ra,20(sp)
9d010040:	0f4040a6 	jal	9d010298 <bin_index>
9d010044:	00c02025 	move	a0,a2
9d010048:	00402025 	move	a0,v0
9d01004c:	0f4042ec 	jal	9d010bb0 <lock_bin>
9d010050:	00404025 	move	t0,v0
9d010054:	8ce40000 	lw	a0,0(a3)
9d010058:	1486fff1 	bne	a0,a2,9d010020 <alloc_rev+0x18>
9d01005c:	7c040004 	ins	a0,zero,0x0,0x1
9d010060:	01002825 	move	a1,t0
9d010064:	0f403cba 	jal	9d00f2e8 <unbin>
9d010068:	00e42023 	subu	a0,a3,a0
9d01006c:	24020001 	li	v0,1
9d010070:	8fbf0014 	lw	ra,20(sp)
9d010074:	03e00008 	jr	ra
9d010078:	27bd0018 	addiu	sp,sp,24

Disassembly of section .text.__consumews:

9d01007c <__consumews>:
9d01007c:	8ca20000 	lw	v0,0(a1)
9d010080:	24030020 	li	v1,32
9d010084:	80420000 	lb	v0,0(v0)
9d010088:	10430004 	beq	v0,v1,9d01009c <__consumews+0x20>
9d01008c:	2442fff7 	addiu	v0,v0,-9
9d010090:	2c430005 	sltiu	v1,v0,5
9d010094:	10600013 	beqz	v1,9d0100e4 <__consumews+0x68>
9d010098:	00001025 	move	v0,zero
9d01009c:	27bdffe8 	addiu	sp,sp,-24
9d0100a0:	afb00010 	sw	s0,16(sp)
9d0100a4:	afbf0014 	sw	ra,20(sp)
9d0100a8:	0f403c62 	jal	9d00f188 <__skipws>
9d0100ac:	00a08025 	move	s0,a1
9d0100b0:	24040020 	li	a0,32
9d0100b4:	8e030000 	lw	v1,0(s0)
9d0100b8:	24650001 	addiu	a1,v1,1
9d0100bc:	ae050000 	sw	a1,0(s0)
9d0100c0:	80630001 	lb	v1,1(v1)
9d0100c4:	1064fffb 	beq	v1,a0,9d0100b4 <__consumews+0x38>
9d0100c8:	2463fff7 	addiu	v1,v1,-9
9d0100cc:	2c630005 	sltiu	v1,v1,5
9d0100d0:	1460fff8 	bnez	v1,9d0100b4 <__consumews+0x38>
9d0100d4:	8fbf0014 	lw	ra,20(sp)
9d0100d8:	8fb00010 	lw	s0,16(sp)
9d0100dc:	03e00008 	jr	ra
9d0100e0:	27bd0018 	addiu	sp,sp,24
9d0100e4:	03e00008 	jr	ra
9d0100e8:	00000000 	nop

Disassembly of section .text.__putc:

9d0100ec <__putc>:
9d0100ec:	8ca20004 	lw	v0,4(a1)
9d0100f0:	27bdffe8 	addiu	sp,sp,-24
9d0100f4:	30420020 	andi	v0,v0,0x20
9d0100f8:	14400006 	bnez	v0,9d010114 <__putc+0x28>
9d0100fc:	afbf0014 	sw	ra,20(sp)
9d010100:	0f40408e 	jal	9d010238 <__putc_unbuffered>
9d010104:	00000000 	nop
9d010108:	8fbf0014 	lw	ra,20(sp)
9d01010c:	03e00008 	jr	ra
9d010110:	27bd0018 	addiu	sp,sp,24
9d010114:	00803025 	move	a2,a0
9d010118:	308200ff 	andi	v0,a0,0xff
9d01011c:	80a40034 	lb	a0,52(a1)
9d010120:	10820009 	beq	a0,v0,9d010148 <__putc+0x5c>
9d010124:	00a01825 	move	v1,a1
9d010128:	8ca40014 	lw	a0,20(a1)
9d01012c:	8ca50028 	lw	a1,40(a1)
9d010130:	0085282b 	sltu	a1,a0,a1
9d010134:	10a00004 	beqz	a1,9d010148 <__putc+0x5c>
9d010138:	24850001 	addiu	a1,a0,1
9d01013c:	ac650014 	sw	a1,20(v1)
9d010140:	1000fff1 	b	9d010108 <__putc+0x1c>
9d010144:	a0860000 	sb	a2,0(a0)
9d010148:	00c02825 	move	a1,a2
9d01014c:	0f403e74 	jal	9d00f9d0 <__overflow>
9d010150:	00602025 	move	a0,v1
9d010154:	1000ffed 	b	9d01010c <__putc+0x20>
9d010158:	8fbf0014 	lw	ra,20(sp)

Disassembly of section .text.alloc_fwd:

9d01015c <alloc_fwd>:
9d01015c:	8c860004 	lw	a2,4(a0)
9d010160:	30c20001 	andi	v0,a2,0x1
9d010164:	10400009 	beqz	v0,9d01018c <alloc_fwd+0x30>
9d010168:	00803825 	move	a3,a0
9d01016c:	03e00008 	jr	ra
9d010170:	00001025 	move	v0,zero
9d010174:	8ce60004 	lw	a2,4(a3)
9d010178:	30c20001 	andi	v0,a2,0x1
9d01017c:	10400005 	beqz	v0,9d010194 <alloc_fwd+0x38>
9d010180:	00001025 	move	v0,zero
9d010184:	1000000f 	b	9d0101c4 <alloc_fwd+0x68>
9d010188:	8fbf0014 	lw	ra,20(sp)
9d01018c:	27bdffe8 	addiu	sp,sp,-24
9d010190:	afbf0014 	sw	ra,20(sp)
9d010194:	0f4040a6 	jal	9d010298 <bin_index>
9d010198:	00c02025 	move	a0,a2
9d01019c:	00402025 	move	a0,v0
9d0101a0:	0f4042ec 	jal	9d010bb0 <lock_bin>
9d0101a4:	00404025 	move	t0,v0
9d0101a8:	8ce20004 	lw	v0,4(a3)
9d0101ac:	1446fff1 	bne	v0,a2,9d010174 <alloc_fwd+0x18>
9d0101b0:	01002825 	move	a1,t0
9d0101b4:	0f403cba 	jal	9d00f2e8 <unbin>
9d0101b8:	00e02025 	move	a0,a3
9d0101bc:	24020001 	li	v0,1
9d0101c0:	8fbf0014 	lw	ra,20(sp)
9d0101c4:	03e00008 	jr	ra
9d0101c8:	27bd0018 	addiu	sp,sp,24

Disassembly of section .text.__vsscanf:

9d0101cc <__vsscanf>:
9d0101cc:	27bdff80 	addiu	sp,sp,-128
9d0101d0:	afb20078 	sw	s2,120(sp)
9d0101d4:	afb10074 	sw	s1,116(sp)
9d0101d8:	afb00070 	sw	s0,112(sp)
9d0101dc:	00a08825 	move	s1,a1
9d0101e0:	00808025 	move	s0,a0
9d0101e4:	00c09025 	move	s2,a2
9d0101e8:	27a40010 	addiu	a0,sp,16
9d0101ec:	24060060 	li	a2,96
9d0101f0:	afbf007c 	sw	ra,124(sp)
9d0101f4:	0f4043a0 	jal	9d010e80 <memset>
9d0101f8:	00002825 	move	a1,zero
9d0101fc:	3c029d01 	lui	v0,0x9d01
9d010200:	24421008 	addiu	v0,v0,4104
9d010204:	02403025 	move	a2,s2
9d010208:	02202825 	move	a1,s1
9d01020c:	27a40010 	addiu	a0,sp,16
9d010210:	afb00018 	sw	s0,24(sp)
9d010214:	afb00048 	sw	s0,72(sp)
9d010218:	0f404284 	jal	9d010a10 <__vfscanf>
9d01021c:	afa20054 	sw	v0,84(sp)
9d010220:	8fbf007c 	lw	ra,124(sp)
9d010224:	8fb20078 	lw	s2,120(sp)
9d010228:	8fb10074 	lw	s1,116(sp)
9d01022c:	8fb00070 	lw	s0,112(sp)
9d010230:	03e00008 	jr	ra
9d010234:	27bd0080 	addiu	sp,sp,128

Disassembly of section .text.__putc_unbuffered:

9d010238 <__putc_unbuffered>:
9d010238:	8ca20004 	lw	v0,4(a1)
9d01023c:	27bdffe0 	addiu	sp,sp,-32
9d010240:	308300ff 	andi	v1,a0,0xff
9d010244:	30420100 	andi	v0,v0,0x100
9d010248:	afbf001c 	sw	ra,28(sp)
9d01024c:	1040000a 	beqz	v0,9d010278 <__putc_unbuffered+0x40>
9d010250:	a3a30010 	sb	v1,16(sp)
9d010254:	8ca20014 	lw	v0,20(a1)
9d010258:	308400ff 	andi	a0,a0,0xff
9d01025c:	24460001 	addiu	a2,v0,1
9d010260:	aca60014 	sw	a2,20(a1)
9d010264:	a0430000 	sb	v1,0(v0)
9d010268:	8fbf001c 	lw	ra,28(sp)
9d01026c:	00801025 	move	v0,a0
9d010270:	03e00008 	jr	ra
9d010274:	27bd0020 	addiu	sp,sp,32
9d010278:	00a02025 	move	a0,a1
9d01027c:	24060001 	li	a2,1
9d010280:	0f4042f9 	jal	9d010be4 <__fwrite>
9d010284:	27a50010 	addiu	a1,sp,16
9d010288:	1040fff7 	beqz	v0,9d010268 <__putc_unbuffered+0x30>
9d01028c:	2404ffff 	li	a0,-1
9d010290:	1000fff5 	b	9d010268 <__putc_unbuffered+0x30>
9d010294:	93a40010 	lbu	a0,16(sp)

Disassembly of section .text.bin_index:

9d010298 <bin_index>:
9d010298:	00042102 	srl	a0,a0,0x4
9d01029c:	2484ffff 	addiu	a0,a0,-1
9d0102a0:	2c820021 	sltiu	v0,a0,33
9d0102a4:	14400012 	bnez	v0,9d0102f0 <bin_index+0x58>
9d0102a8:	00801025 	move	v0,a0
9d0102ac:	2c820200 	sltiu	v0,a0,512
9d0102b0:	10400007 	beqz	v0,9d0102d0 <bin_index+0x38>
9d0102b4:	2c831c01 	sltiu	v1,a0,7169
9d0102b8:	3c029d01 	lui	v0,0x9d01
9d0102bc:	24420434 	addiu	v0,v0,1076
9d0102c0:	000420c2 	srl	a0,a0,0x3
9d0102c4:	00822021 	addu	a0,a0,v0
9d0102c8:	03e00008 	jr	ra
9d0102cc:	9082fffc 	lbu	v0,-4(a0)
9d0102d0:	10600007 	beqz	v1,9d0102f0 <bin_index+0x58>
9d0102d4:	2402003f 	li	v0,63
9d0102d8:	3c029d01 	lui	v0,0x9d01
9d0102dc:	24420434 	addiu	v0,v0,1076
9d0102e0:	000421c2 	srl	a0,a0,0x7
9d0102e4:	00822021 	addu	a0,a0,v0
9d0102e8:	9082fffc 	lbu	v0,-4(a0)
9d0102ec:	24420010 	addiu	v0,v0,16
9d0102f0:	03e00008 	jr	ra
9d0102f4:	00000000 	nop

Disassembly of section .text.__fopen_std:

9d0102f8 <__fopen_std>:
9d0102f8:	27bdffe8 	addiu	sp,sp,-24
9d0102fc:	afb00010 	sw	s0,16(sp)
9d010300:	afbf0014 	sw	ra,20(sp)
9d010304:	0f4032e4 	jal	9d00cb90 <malloc>
9d010308:	24040038 	li	a0,56
9d01030c:	1040000d 	beqz	v0,9d010344 <__fopen_std+0x4c>
9d010310:	00408025 	move	s0,v0
9d010314:	24060038 	li	a2,56
9d010318:	00002825 	move	a1,zero
9d01031c:	0f4043a0 	jal	9d010e80 <memset>
9d010320:	00402025 	move	a0,v0
9d010324:	3c029d01 	lui	v0,0x9d01
9d010328:	24420ee8 	addiu	v0,v0,3816
9d01032c:	ae02002c 	sw	v0,44(s0)
9d010330:	3c029d01 	lui	v0,0x9d01
9d010334:	2442f93c 	addiu	v0,v0,-1732
9d010338:	ae020030 	sw	v0,48(s0)
9d01033c:	2402ffff 	li	v0,-1
9d010340:	a2020034 	sb	v0,52(s0)
9d010344:	8fbf0014 	lw	ra,20(sp)
9d010348:	02001025 	move	v0,s0
9d01034c:	8fb00010 	lw	s0,16(sp)
9d010350:	03e00008 	jr	ra
9d010354:	27bd0018 	addiu	sp,sp,24

Disassembly of section .text.sitofp:

9d010358 <__floatsisf>:
9d010358:	3c018000 10800012 00813024 04810002     ...<....$0......
9d010368:	00000000 00042023                       ....# ..

9d010370 <i40>:
9d010370:	2405009e 	li	a1,158
9d010374:	70873820 	clz	a3,a0
9d010378:	00a72823 	subu	a1,a1,a3
9d01037c:	00e42004 	sllv	a0,a0,a3
9d010380:	24840080 	addiu	a0,a0,128
9d010384:	2c880080 	sltiu	t0,a0,128
9d010388:	00a82821 	addu	a1,a1,t0
9d01038c:	00044203 	sra	t0,a0,0x8
9d010390:	31080001 	andi	t0,t0,0x1
9d010394:	00882023 	subu	a0,a0,t0
9d010398:	00042040 	sll	a0,a0,0x1
9d01039c:	00042242 	srl	a0,a0,0x9
9d0103a0:	000545c0 	sll	t0,a1,0x17
9d0103a4:	00882025 	or	a0,a0,t0

9d0103a8 <i39>:
9d0103a8:	00861025 	or	v0,a0,a2

9d0103ac <E999>:
9d0103ac:	03e00008 	jr	ra
9d0103b0:	00000000 	nop
9d0103b4:	00000000 	nop

Disassembly of section .text.__string_out:

9d0103b8 <__string_out>:
9d0103b8:	8c820010 	lw	v0,16(a0)
9d0103bc:	27bdffe0 	addiu	sp,sp,-32
9d0103c0:	afb00014 	sw	s0,20(sp)
9d0103c4:	00808025 	move	s0,a0
9d0103c8:	8c840014 	lw	a0,20(a0)
9d0103cc:	afb10018 	sw	s1,24(sp)
9d0103d0:	00c2882b 	sltu	s1,a2,v0
9d0103d4:	0051300a 	movz	a2,v0,s1
9d0103d8:	afbf001c 	sw	ra,28(sp)
9d0103dc:	0f40432b 	jal	9d010cac <memcpy>
9d0103e0:	00c08825 	move	s1,a2
9d0103e4:	8e020014 	lw	v0,20(s0)
9d0103e8:	8e060010 	lw	a2,16(s0)
9d0103ec:	00511021 	addu	v0,v0,s1
9d0103f0:	00d18823 	subu	s1,a2,s1
9d0103f4:	ae110010 	sw	s1,16(s0)
9d0103f8:	ae020014 	sw	v0,20(s0)
9d0103fc:	a0400000 	sb	zero,0(v0)
9d010400:	8fbf001c 	lw	ra,28(sp)
9d010404:	8fb10018 	lw	s1,24(sp)
9d010408:	8fb00014 	lw	s0,20(sp)
9d01040c:	03e00008 	jr	ra
9d010410:	27bd0020 	addiu	sp,sp,32

Disassembly of section .rodata:

9d010414 <debruijn32.1767>:
9d010414:	02170100 0313181d 0b191b1e 0d040814     ................
9d010424:	121c161f 0c070a1a 06091115 0e0f0510     ................

9d010434 <bin_tab>:
9d010434:	23222120 25252424 27272626 28282828      !"#$$%%&&''((((
9d010444:	29292929 2a2a2a2a 2b2b2b2b 2c2c2c2c     ))))****++++,,,,
9d010454:	2c2c2c2c 2d2d2d2d 2d2d2d2d 2e2e2e2e     ,,,,--------....
9d010464:	2e2e2e2e 2f2f2f2f 2f2f2f2f              ....////////

Disassembly of section .text.__fmt_state:

9d010470 <__fmt_state>:
9d010470:	3c069d01 	lui	a2,0x9d01
9d010474:	00001025 	move	v0,zero
9d010478:	24c61138 	addiu	a2,a2,4408
9d01047c:	00021840 	sll	v1,v0,0x1
9d010480:	00661821 	addu	v1,v1,a2
9d010484:	80670000 	lb	a3,0(v1)
9d010488:	54e00003 	bnezl	a3,9d010498 <__fmt_state+0x28>
9d01048c:	8c850000 	lw	a1,0(a0)
9d010490:	03e00008 	jr	ra
9d010494:	90620001 	lbu	v0,1(v1)
9d010498:	24420001 	addiu	v0,v0,1
9d01049c:	80a80000 	lb	t0,0(a1)
9d0104a0:	15070004 	bne	t0,a3,9d0104b4 <__fmt_state+0x44>
9d0104a4:	304200ff 	andi	v0,v0,0xff
9d0104a8:	90620001 	lbu	v0,1(v1)
9d0104ac:	24a50001 	addiu	a1,a1,1
9d0104b0:	ac850000 	sw	a1,0(a0)
9d0104b4:	2c43000b 	sltiu	v1,v0,11
9d0104b8:	1460fff1 	bnez	v1,9d010480 <__fmt_state+0x10>
9d0104bc:	00021840 	sll	v1,v0,0x1
9d0104c0:	03e00008 	jr	ra
9d0104c4:	00000000 	nop

Disassembly of section .text.adjust_size:

9d0104c8 <adjust_size>:
9d0104c8:	3c03a000 	lui	v1,0xa000
9d0104cc:	8c661904 	lw	a2,6404(v1)
9d0104d0:	8c820000 	lw	v0,0(a0)
9d0104d4:	3c037fff 	lui	v1,0x7fff
9d0104d8:	3463ffef 	ori	v1,v1,0xffef
9d0104dc:	2445ffff 	addiu	a1,v0,-1
9d0104e0:	00661823 	subu	v1,v1,a2
9d0104e4:	0065182b 	sltu	v1,v1,a1
9d0104e8:	5060000b 	beqzl	v1,9d010518 <adjust_size+0x50>
9d0104ec:	24420017 	addiu	v0,v0,23
9d0104f0:	10400005 	beqz	v0,9d010508 <adjust_size+0x40>
9d0104f4:	2403000c 	li	v1,12
9d0104f8:	3c02a000 	lui	v0,0xa000
9d0104fc:	ac431948 	sw	v1,6472(v0)
9d010500:	03e00008 	jr	ra
9d010504:	2402ffff 	li	v0,-1
9d010508:	24020010 	li	v0,16
9d01050c:	ac820000 	sw	v0,0(a0)
9d010510:	03e00008 	jr	ra
9d010514:	00001025 	move	v0,zero
9d010518:	1000fffc 	b	9d01050c <adjust_size+0x44>
9d01051c:	7c021804 	ins	v0,zero,0x0,0x4

Disassembly of section .text.trim:

9d010520 <trim>:
9d010520:	8c820004 	lw	v0,4(a0)
9d010524:	7c020004 	ins	v0,zero,0x0,0x1
9d010528:	00451823 	subu	v1,v0,a1
9d01052c:	2c660011 	sltiu	a2,v1,17
9d010530:	14c0000f 	bnez	a2,9d010570 <trim+0x50>
9d010534:	00853021 	addu	a2,a0,a1
9d010538:	27bdffe8 	addiu	sp,sp,-24
9d01053c:	34a50001 	ori	a1,a1,0x1
9d010540:	34630001 	ori	v1,v1,0x1
9d010544:	00821021 	addu	v0,a0,v0
9d010548:	afbf0014 	sw	ra,20(sp)
9d01054c:	acc50000 	sw	a1,0(a2)
9d010550:	acc30004 	sw	v1,4(a2)
9d010554:	ac430000 	sw	v1,0(v0)
9d010558:	ac850004 	sw	a1,4(a0)
9d01055c:	0f403587 	jal	9d00d61c <free>
9d010560:	24c40008 	addiu	a0,a2,8
9d010564:	8fbf0014 	lw	ra,20(sp)
9d010568:	03e00008 	jr	ra
9d01056c:	27bd0018 	addiu	sp,sp,24
9d010570:	03e00008 	jr	ra
9d010574:	00000000 	nop

Disassembly of section .text.main_entry:

9d010578 <_main_entry>:
9d010578:	3c040000 	lui	a0,0x0
9d01057c:	27bdffe8 	addiu	sp,sp,-24
9d010580:	24840000 	addiu	a0,a0,0
9d010584:	10800003 	beqz	a0,9d010594 <_main_entry+0x1c>
9d010588:	afbf0014 	sw	ra,20(sp)
9d01058c:	0080f809 	jalr	a0
9d010590:	00000000 	nop
9d010594:	30840000 	andi	a0,a0,0x0
9d010598:	30a50000 	andi	a1,a1,0x0
9d01059c:	3c089d01 	lui	t0,0x9d01
9d0105a0:	250896b4 	addiu	t0,t0,-26956
9d0105a4:	0100f809 	jalr	t0
9d0105a8:	00000000 	nop

9d0105ac <__crt0_exit>:
9d0105ac:	3c020000 24420000 10400003 00000000     ...<..B$..@.....
9d0105bc:	0040f809 00000000 1000fff9 00000000     ..@.............

Disassembly of section .text.__uflow:

9d0105cc <__uflow>:
9d0105cc:	27bdffe0 	addiu	sp,sp,-32
9d0105d0:	afb00018 	sw	s0,24(sp)
9d0105d4:	afbf001c 	sw	ra,28(sp)
9d0105d8:	0f403e2a 	jal	9d00f8a8 <__toread>
9d0105dc:	00808025 	move	s0,a0
9d0105e0:	50400006 	beqzl	v0,9d0105fc <__uflow+0x30>
9d0105e4:	8e020044 	lw	v0,68(s0)
9d0105e8:	2402ffff 	li	v0,-1
9d0105ec:	8fbf001c 	lw	ra,28(sp)
9d0105f0:	8fb00018 	lw	s0,24(sp)
9d0105f4:	03e00008 	jr	ra
9d0105f8:	27bd0020 	addiu	sp,sp,32
9d0105fc:	24060001 	li	a2,1
9d010600:	27a50010 	addiu	a1,sp,16
9d010604:	0040f809 	jalr	v0
9d010608:	02002025 	move	a0,s0
9d01060c:	24030001 	li	v1,1
9d010610:	1443fff5 	bne	v0,v1,9d0105e8 <__uflow+0x1c>
9d010614:	93a20010 	lbu	v0,16(sp)
9d010618:	1000fff5 	b	9d0105f0 <__uflow+0x24>
9d01061c:	8fbf001c 	lw	ra,28(sp)

Disassembly of section .text.__pop_float:

9d010620 <__pop_float>:
9d010620:	28a30080 	slti	v1,a1,128
9d010624:	14600010 	bnez	v1,9d010668 <__pop_float+0x48>
9d010628:	00001025 	move	v0,zero
9d01062c:	28a30082 	slti	v1,a1,130
9d010630:	14600003 	bnez	v1,9d010640 <__pop_float+0x20>
9d010634:	24030083 	li	v1,131
9d010638:	14a3000b 	bne	a1,v1,9d010668 <__pop_float+0x48>
9d01063c:	00000000 	nop
9d010640:	8cc20000 	lw	v0,0(a2)
9d010644:	24420007 	addiu	v0,v0,7
9d010648:	7c021004 	ins	v0,zero,0x0,0x3
9d01064c:	24430008 	addiu	v1,v0,8
9d010650:	acc30000 	sw	v1,0(a2)
9d010654:	8c430004 	lw	v1,4(v0)
9d010658:	8c420000 	lw	v0,0(v0)
9d01065c:	ac830004 	sw	v1,4(a0)
9d010660:	ac820000 	sw	v0,0(a0)
9d010664:	24020001 	li	v0,1
9d010668:	03e00008 	jr	ra
9d01066c:	00000000 	nop

Disassembly of section .text.__malloc0:

9d010670 <__malloc0>:
9d010670:	27bdffe8 	addiu	sp,sp,-24
9d010674:	afb00010 	sw	s0,16(sp)
9d010678:	afbf0014 	sw	ra,20(sp)
9d01067c:	0f4032e4 	jal	9d00cb90 <malloc>
9d010680:	00808025 	move	s0,a0
9d010684:	10400006 	beqz	v0,9d0106a0 <__malloc0+0x30>
9d010688:	26100003 	addiu	s0,s0,3
9d01068c:	7c100804 	ins	s0,zero,0x0,0x2
9d010690:	00508021 	addu	s0,v0,s0
9d010694:	00401825 	move	v1,v0
9d010698:	54700005 	bnel	v1,s0,9d0106b0 <__malloc0+0x40>
9d01069c:	8c640000 	lw	a0,0(v1)
9d0106a0:	8fbf0014 	lw	ra,20(sp)
9d0106a4:	8fb00010 	lw	s0,16(sp)
9d0106a8:	03e00008 	jr	ra
9d0106ac:	27bd0018 	addiu	sp,sp,24
9d0106b0:	54800001 	bnezl	a0,9d0106b8 <__malloc0+0x48>
9d0106b4:	ac600000 	sw	zero,0(v1)
9d0106b8:	1000fff7 	b	9d010698 <__malloc0+0x28>
9d0106bc:	24630004 	addiu	v1,v1,4

Disassembly of section .text.__sio_sprintf_doux:

9d0106c0 <__sio_sprintf_doux>:
9d0106c0:	27bdffe8 	addiu	sp,sp,-24
9d0106c4:	afbf0014 	sw	ra,20(sp)
9d0106c8:	0f40375b 	jal	9d00dd6c <__fmt_d>
9d0106cc:	00000000 	nop
9d0106d0:	0f403a89 	jal	9d00ea24 <__fmt_o>
9d0106d4:	00000000 	nop
9d0106d8:	0f403c06 	jal	9d00f018 <__fmt_u>
9d0106dc:	00000000 	nop
9d0106e0:	0f403426 	jal	9d00d098 <__fmt_x>
9d0106e4:	00000000 	nop
9d0106e8:	0f403d3a 	jal	9d00f4e8 <__fmt_s>
9d0106ec:	00000000 	nop
9d0106f0:	0f403b02 	jal	9d00ec08 <__pop_ptr>
9d0106f4:	00000000 	nop
9d0106f8:	0f4035ed 	jal	9d00d7b4 <__pop_int>
9d0106fc:	00000000 	nop
9d010700:	8fbf0014 	lw	ra,20(sp)
9d010704:	03e00008 	jr	ra
9d010708:	27bd0018 	addiu	sp,sp,24

Disassembly of section .text.__stdio_exit:

9d01070c <__stdio_exit>:
9d01070c:	27bdffe8 	addiu	sp,sp,-24
9d010710:	afbf0014 	sw	ra,20(sp)
9d010714:	0f40447e 	jal	9d0111f8 <__stdio_exit_ofl>
9d010718:	00000000 	nop
9d01071c:	3c02a000 	lui	v0,0xa000
9d010720:	8c441944 	lw	a0,6468(v0)
9d010724:	0f4042de 	jal	9d010b78 <__fclose>
9d010728:	00002825 	move	a1,zero
9d01072c:	3c02a000 	lui	v0,0xa000
9d010730:	8c441944 	lw	a0,6468(v0)
9d010734:	0f4042de 	jal	9d010b78 <__fclose>
9d010738:	00002825 	move	a1,zero
9d01073c:	3c02a000 	lui	v0,0xa000
9d010740:	8c441944 	lw	a0,6468(v0)
9d010744:	0f4042de 	jal	9d010b78 <__fclose>
9d010748:	00002825 	move	a1,zero
9d01074c:	8fbf0014 	lw	ra,20(sp)
9d010750:	03e00008 	jr	ra
9d010754:	27bd0018 	addiu	sp,sp,24

Disassembly of section .text.sbrk:

9d010758 <sbrk>:
9d010758:	27bdffe8 	addiu	sp,sp,-24
9d01075c:	afb00010 	sw	s0,16(sp)
9d010760:	afbf0014 	sw	ra,20(sp)
9d010764:	0f403c8e 	jal	9d00f238 <_sbrk>
9d010768:	00808025 	move	s0,a0
9d01076c:	1a000008 	blez	s0,9d010790 <sbrk+0x38>
9d010770:	00401825 	move	v1,v0
9d010774:	2402ffff 	li	v0,-1
9d010778:	10620005 	beq	v1,v0,9d010790 <sbrk+0x38>
9d01077c:	00602025 	move	a0,v1
9d010780:	02003025 	move	a2,s0
9d010784:	0f4043a0 	jal	9d010e80 <memset>
9d010788:	00002825 	move	a1,zero
9d01078c:	00401825 	move	v1,v0
9d010790:	8fbf0014 	lw	ra,20(sp)
9d010794:	00601025 	move	v0,v1
9d010798:	8fb00010 	lw	s0,16(sp)
9d01079c:	03e00008 	jr	ra
9d0107a0:	27bd0018 	addiu	sp,sp,24

Disassembly of section .text._bootstrap_exception_handler:

9d0107a4 <_bootstrap_exception_handler>:
9d0107a4:	3c020000 	lui	v0,0x0
9d0107a8:	24420000 	addiu	v0,v0,0
9d0107ac:	10400005 	beqz	v0,9d0107c4 <_bootstrap_exception_handler+0x20>
9d0107b0:	3c020000 	lui	v0,0x0
9d0107b4:	24420000 	addiu	v0,v0,0
9d0107b8:	10400003 	beqz	v0,9d0107c8 <_bootstrap_exception_handler+0x24>
9d0107bc:	3c029d01 	lui	v0,0x9d01
9d0107c0:	7000003f 	sdbbp
9d0107c4:	3c029d01 	lui	v0,0x9d01
9d0107c8:	2442090c 	addiu	v0,v0,2316
9d0107cc:	10400005 	beqz	v0,9d0107e4 <_bootstrap_exception_handler+0x40>
9d0107d0:	00000000 	nop
9d0107d4:	27bdffe8 	addiu	sp,sp,-24
9d0107d8:	afbf0014 	sw	ra,20(sp)
9d0107dc:	0040f809 	jalr	v0
9d0107e0:	00000000 	nop
9d0107e4:	1000ffff 	b	9d0107e4 <_bootstrap_exception_handler+0x40>
9d0107e8:	00000000 	nop

Disassembly of section .text._general_exception_handler:

9d0107ec <_general_exception_handler>:
9d0107ec:	3c020000 	lui	v0,0x0
9d0107f0:	24420000 	addiu	v0,v0,0
9d0107f4:	10400005 	beqz	v0,9d01080c <_general_exception_handler+0x20>
9d0107f8:	3c020000 	lui	v0,0x0
9d0107fc:	24420000 	addiu	v0,v0,0
9d010800:	10400003 	beqz	v0,9d010810 <_general_exception_handler+0x24>
9d010804:	3c029d01 	lui	v0,0x9d01
9d010808:	7000003f 	sdbbp
9d01080c:	3c029d01 	lui	v0,0x9d01
9d010810:	2442090c 	addiu	v0,v0,2316
9d010814:	10400005 	beqz	v0,9d01082c <_general_exception_handler+0x40>
9d010818:	00000000 	nop
9d01081c:	27bdffe8 	addiu	sp,sp,-24
9d010820:	afbf0014 	sw	ra,20(sp)
9d010824:	0040f809 	jalr	v0
9d010828:	00000000 	nop
9d01082c:	1000ffff 	b	9d01082c <_general_exception_handler+0x40>
9d010830:	00000000 	nop

Disassembly of section .vector_default:

9d010834 <_DefaultInterrupt>:
9d010834:	3c020000 	lui	v0,0x0
9d010838:	24420000 	addiu	v0,v0,0
9d01083c:	10400007 	beqz	v0,9d01085c <_DefaultInterrupt+0x28>
9d010840:	3c020000 	lui	v0,0x0
9d010844:	24420000 	addiu	v0,v0,0
9d010848:	50400005 	beqzl	v0,9d010860 <_DefaultInterrupt+0x2c>
9d01084c:	3c029d01 	lui	v0,0x9d01
9d010850:	7000003f 	sdbbp
9d010854:	03e00008 	jr	ra
9d010858:	00000000 	nop
9d01085c:	3c029d01 	lui	v0,0x9d01
9d010860:	2442090c 	addiu	v0,v0,2316
9d010864:	10400003 	beqz	v0,9d010874 <_DefaultInterrupt+0x40>
9d010868:	00000000 	nop
9d01086c:	0040f809 	jalr	v0
9d010870:	00000000 	nop
9d010874:	03e00008 	jr	ra
9d010878:	00000000 	nop

Disassembly of section .text.__ftello_adj_rw:

9d01087c <__ftello_adj_rw>:
9d01087c:	8c820004 	lw	v0,4(a0)
9d010880:	30460002 	andi	a2,v0,0x2
9d010884:	14c00004 	bnez	a2,9d010898 <__ftello_adj_rw+0x1c>
9d010888:	00001825 	move	v1,zero
9d01088c:	8c830040 	lw	v1,64(a0)
9d010890:	8c86003c 	lw	a2,60(a0)
9d010894:	00661823 	subu	v1,v1,a2
9d010898:	8c870014 	lw	a3,20(a0)
9d01089c:	8c860018 	lw	a2,24(a0)
9d0108a0:	00e62023 	subu	a0,a3,a2
9d0108a4:	00831821 	addu	v1,a0,v1
9d0108a8:	aca30000 	sw	v1,0(a1)
9d0108ac:	30430040 	andi	v1,v0,0x40
9d0108b0:	10600002 	beqz	v1,9d0108bc <__ftello_adj_rw+0x40>
9d0108b4:	00001025 	move	v0,zero
9d0108b8:	00c7102b 	sltu	v0,a2,a3
9d0108bc:	03e00008 	jr	ra
9d0108c0:	00000000 	nop

Disassembly of section .text.__stdio_seek_unbuffered:

9d0108c4 <__stdio_seek_unbuffered>:
9d0108c4:	27bdffe8 	addiu	sp,sp,-24
9d0108c8:	afb00010 	sw	s0,16(sp)
9d0108cc:	00808025 	move	s0,a0
9d0108d0:	8c840000 	lw	a0,0(a0)
9d0108d4:	afbf0014 	sw	ra,20(sp)
9d0108d8:	0f40448c 	jal	9d011230 <lseek>
9d0108dc:	00000000 	nop
9d0108e0:	04400005 	bltz	v0,9d0108f8 <__stdio_seek_unbuffered+0x34>
9d0108e4:	2403ffff 	li	v1,-1
9d0108e8:	8e020004 	lw	v0,4(s0)
9d0108ec:	00001825 	move	v1,zero
9d0108f0:	7c0218c4 	ins	v0,zero,0x3,0x1
9d0108f4:	ae020004 	sw	v0,4(s0)
9d0108f8:	8fbf0014 	lw	ra,20(sp)
9d0108fc:	00601025 	move	v0,v1
9d010900:	8fb00010 	lw	s0,16(sp)
9d010904:	03e00008 	jr	ra
9d010908:	27bd0018 	addiu	sp,sp,24

Disassembly of section .text:

9d01090c <__pic32_software_reset>:
9d01090c:	41606000 	di
9d010910:	000000c0 	ehb
9d010914:	3c03aa99 	lui	v1,0xaa99
9d010918:	3c02bf81 	lui	v0,0xbf81
9d01091c:	24636655 	addiu	v1,v1,26197
9d010920:	ac40f230 	sw	zero,-3536(v0)
9d010924:	ac43f230 	sw	v1,-3536(v0)
9d010928:	3c035566 	lui	v1,0x5566
9d01092c:	346399aa 	ori	v1,v1,0x99aa
9d010930:	ac43f230 	sw	v1,-3536(v0)
9d010934:	3c02bf81 	lui	v0,0xbf81
9d010938:	24030001 	li	v1,1
9d01093c:	ac43f618 	sw	v1,-2536(v0)
9d010940:	3c02bf81 	lui	v0,0xbf81
9d010944:	8c42f610 	lw	v0,-2544(v0)
9d010948:	0b404245 	j	9d010914 <__pic32_software_reset+0x8>
9d01094c:	00000000 	nop

Disassembly of section .text.__towrite:

9d010950 <__towrite>:
9d010950:	27bdffe8 	addiu	sp,sp,-24
9d010954:	afb00010 	sw	s0,16(sp)
9d010958:	afbf0014 	sw	ra,20(sp)
9d01095c:	0f404275 	jal	9d0109d4 <__towrite_rw>
9d010960:	00808025 	move	s0,a0
9d010964:	14400008 	bnez	v0,9d010988 <__towrite+0x38>
9d010968:	8fbf0014 	lw	ra,20(sp)
9d01096c:	8e030008 	lw	v1,8(s0)
9d010970:	8e04000c 	lw	a0,12(s0)
9d010974:	ae030018 	sw	v1,24(s0)
9d010978:	ae030014 	sw	v1,20(s0)
9d01097c:	00641821 	addu	v1,v1,a0
9d010980:	ae030028 	sw	v1,40(s0)
9d010984:	8fbf0014 	lw	ra,20(sp)
9d010988:	8fb00010 	lw	s0,16(sp)
9d01098c:	03e00008 	jr	ra
9d010990:	27bd0018 	addiu	sp,sp,24

Disassembly of section .text:

9d010994 <__floatunsidf>:
9d010994:	27bdffe8 	addiu	sp,sp,-24
9d010998:	afb00010 	sw	s0,16(sp)
9d01099c:	afbf0014 	sw	ra,20(sp)
9d0109a0:	0f403fe4 	jal	9d00ff90 <__floatsidf>
9d0109a4:	00808025 	move	s0,a0
9d0109a8:	06010006 	bgez	s0,9d0109c4 <__floatunsidf+0x30>
9d0109ac:	00602825 	move	a1,v1
9d0109b0:	3c049d00 	lui	a0,0x9d00
9d0109b4:	8c8674b8 	lw	a2,29880(a0)
9d0109b8:	8c8774bc 	lw	a3,29884(a0)
9d0109bc:	0f402cde 	jal	9d00b378 <__adddf3>
9d0109c0:	00402025 	move	a0,v0
9d0109c4:	8fbf0014 	lw	ra,20(sp)
9d0109c8:	8fb00010 	lw	s0,16(sp)
9d0109cc:	03e00008 	jr	ra
9d0109d0:	27bd0018 	addiu	sp,sp,24

Disassembly of section .text.__towrite_rw:

9d0109d4 <__towrite_rw>:
9d0109d4:	80820048 	lb	v0,72(a0)
9d0109d8:	2443ffff 	addiu	v1,v0,-1
9d0109dc:	00431025 	or	v0,v0,v1
9d0109e0:	a0820048 	sb	v0,72(a0)
9d0109e4:	8c820004 	lw	v0,4(a0)
9d0109e8:	30430004 	andi	v1,v0,0x4
9d0109ec:	50600005 	beqzl	v1,9d010a04 <__towrite_rw+0x30>
9d0109f0:	ac800040 	sw	zero,64(a0)
9d0109f4:	34420010 	ori	v0,v0,0x10
9d0109f8:	ac820004 	sw	v0,4(a0)
9d0109fc:	03e00008 	jr	ra
9d010a00:	2402ffff 	li	v0,-1
9d010a04:	ac80003c 	sw	zero,60(a0)
9d010a08:	03e00008 	jr	ra
9d010a0c:	00001025 	move	v0,zero

Disassembly of section .text.__vfscanf:

9d010a10 <__vfscanf>:
9d010a10:	27bdffe0 	addiu	sp,sp,-32
9d010a14:	afb00018 	sw	s0,24(sp)
9d010a18:	afa60010 	sw	a2,16(sp)
9d010a1c:	00808025 	move	s0,a0
9d010a20:	afbf001c 	sw	ra,28(sp)
9d010a24:	0f4023c3 	jal	9d008f0c <__scanf_core>
9d010a28:	27a60010 	addiu	a2,sp,16
9d010a2c:	8e030004 	lw	v1,4(s0)
9d010a30:	8fbf001c 	lw	ra,28(sp)
9d010a34:	2404ffff 	li	a0,-1
9d010a38:	30630010 	andi	v1,v1,0x10
9d010a3c:	0083100b 	movn	v0,a0,v1
9d010a40:	8fb00018 	lw	s0,24(sp)
9d010a44:	03e00008 	jr	ra
9d010a48:	27bd0020 	addiu	sp,sp,32

Disassembly of section .text.__expand_heap:

9d010a4c <__expand_heap>:
9d010a4c:	8c840000 	lw	a0,0(a0)
9d010a50:	04810003 	bgez	a0,9d010a60 <__expand_heap+0x14>
9d010a54:	00001025 	move	v0,zero
9d010a58:	03e00008 	jr	ra
9d010a5c:	00000000 	nop
9d010a60:	27bdffe8 	addiu	sp,sp,-24
9d010a64:	afbf0014 	sw	ra,20(sp)
9d010a68:	0f403c8e 	jal	9d00f238 <_sbrk>
9d010a6c:	00000000 	nop
9d010a70:	2403ffff 	li	v1,-1
9d010a74:	50430001 	beql	v0,v1,9d010a7c <__expand_heap+0x30>
9d010a78:	00001025 	move	v0,zero
9d010a7c:	8fbf0014 	lw	ra,20(sp)
9d010a80:	03e00008 	jr	ra
9d010a84:	27bd0018 	addiu	sp,sp,24

Disassembly of section .text.__vfprintf:

9d010a88 <__vfprintf>:
9d010a88:	27bdffe0 	addiu	sp,sp,-32
9d010a8c:	afb00018 	sw	s0,24(sp)
9d010a90:	afa60010 	sw	a2,16(sp)
9d010a94:	00808025 	move	s0,a0
9d010a98:	afbf001c 	sw	ra,28(sp)
9d010a9c:	0f40271b 	jal	9d009c6c <__printf_core>
9d010aa0:	27a60010 	addiu	a2,sp,16
9d010aa4:	8e030004 	lw	v1,4(s0)
9d010aa8:	8fbf001c 	lw	ra,28(sp)
9d010aac:	2404ffff 	li	a0,-1
9d010ab0:	30630010 	andi	v1,v1,0x10
9d010ab4:	0083100b 	movn	v0,a0,v1
9d010ab8:	8fb00018 	lw	s0,24(sp)
9d010abc:	03e00008 	jr	ra
9d010ac0:	27bd0020 	addiu	sp,sp,32

Disassembly of section .text.logbf:

9d010ac4 <logbf>:
9d010ac4:	27bdffe8 	addiu	sp,sp,-24
9d010ac8:	afbf0014 	sw	ra,20(sp)
9d010acc:	0f403a49 	jal	9d00e924 <__truncdfsf2>
9d010ad0:	00000000 	nop
9d010ad4:	0f403ce5 	jal	9d00f394 <__extendsfdf2>
9d010ad8:	00402025 	move	a0,v0
9d010adc:	00402025 	move	a0,v0
9d010ae0:	0f40397b 	jal	9d00e5ec <logbl>
9d010ae4:	00602825 	move	a1,v1
9d010ae8:	00402025 	move	a0,v0
9d010aec:	0f403a49 	jal	9d00e924 <__truncdfsf2>
9d010af0:	00602825 	move	a1,v1
9d010af4:	8fbf0014 	lw	ra,20(sp)
9d010af8:	03e00008 	jr	ra
9d010afc:	27bd0018 	addiu	sp,sp,24

Disassembly of section .text:

9d010b00 <__lshrdi3>:
9d010b00:	10c00008 	beqz	a2,9d010b24 <__lshrdi3+0x24>
9d010b04:	00801025 	move	v0,a0
9d010b08:	24030020 	li	v1,32
9d010b0c:	00661823 	subu	v1,v1,a2
9d010b10:	1c600006 	bgtz	v1,9d010b2c <__lshrdi3+0x2c>
9d010b14:	00c52006 	srlv	a0,a1,a2
9d010b18:	00002025 	move	a0,zero
9d010b1c:	00c51006 	srlv	v0,a1,a2
9d010b20:	00802825 	move	a1,a0
9d010b24:	03e00008 	jr	ra
9d010b28:	00a01825 	move	v1,a1
9d010b2c:	00c21006 	srlv	v0,v0,a2
9d010b30:	00652804 	sllv	a1,a1,v1
9d010b34:	1000fffa 	b	9d010b20 <__lshrdi3+0x20>
9d010b38:	00451025 	or	v0,v0,a1

9d010b3c <__ashldi3>:
9d010b3c:	10c00008 	beqz	a2,9d010b60 <__ashldi3+0x24>
9d010b40:	00801025 	move	v0,a0
9d010b44:	24040020 	li	a0,32
9d010b48:	00862023 	subu	a0,a0,a2
9d010b4c:	5c800006 	bgtzl	a0,9d010b68 <__ashldi3+0x2c>
9d010b50:	00c21804 	sllv	v1,v0,a2
9d010b54:	00001825 	move	v1,zero
9d010b58:	00c22804 	sllv	a1,v0,a2
9d010b5c:	00601025 	move	v0,v1
9d010b60:	03e00008 	jr	ra
9d010b64:	00a01825 	move	v1,a1
9d010b68:	00c52804 	sllv	a1,a1,a2
9d010b6c:	00821006 	srlv	v0,v0,a0
9d010b70:	1000fffa 	b	9d010b5c <__ashldi3+0x20>
9d010b74:	00a22825 	or	a1,a1,v0

Disassembly of section .text.__fclose:

9d010b78 <__fclose>:
9d010b78:	1080000b 	beqz	a0,9d010ba8 <__fclose+0x30>
9d010b7c:	00001025 	move	v0,zero
9d010b80:	8c83001c 	lw	v1,28(a0)
9d010b84:	10600008 	beqz	v1,9d010ba8 <__fclose+0x30>
9d010b88:	00000000 	nop
9d010b8c:	27bdffe8 	addiu	sp,sp,-24
9d010b90:	afbf0014 	sw	ra,20(sp)
9d010b94:	0060f809 	jalr	v1
9d010b98:	00000000 	nop
9d010b9c:	8fbf0014 	lw	ra,20(sp)
9d010ba0:	03e00008 	jr	ra
9d010ba4:	27bd0018 	addiu	sp,sp,24
9d010ba8:	03e00008 	jr	ra
9d010bac:	00000000 	nop

Disassembly of section .text.lock_bin:

9d010bb0 <lock_bin>:
9d010bb0:	24840001 	addiu	a0,a0,1
9d010bb4:	000410c0 	sll	v0,a0,0x3
9d010bb8:	3c04a000 	lui	a0,0xa000
9d010bbc:	248416c8 	addiu	a0,a0,5832
9d010bc0:	00441821 	addu	v1,v0,a0
9d010bc4:	8c650000 	lw	a1,0(v1)
9d010bc8:	14a00004 	bnez	a1,9d010bdc <lock_bin+0x2c>
9d010bcc:	2442fff8 	addiu	v0,v0,-8
9d010bd0:	00822021 	addu	a0,a0,v0
9d010bd4:	ac640004 	sw	a0,4(v1)
9d010bd8:	ac640000 	sw	a0,0(v1)
9d010bdc:	03e00008 	jr	ra
9d010be0:	00000000 	nop

Disassembly of section .text.__fwrite:

9d010be4 <__fwrite>:
9d010be4:	8c83002c 	lw	v1,44(a0)
9d010be8:	27bdffe8 	addiu	sp,sp,-24
9d010bec:	10600006 	beqz	v1,9d010c08 <__fwrite+0x24>
9d010bf0:	afbf0014 	sw	ra,20(sp)
9d010bf4:	0060f809 	jalr	v1
9d010bf8:	00000000 	nop
9d010bfc:	8fbf0014 	lw	ra,20(sp)
9d010c00:	03e00008 	jr	ra
9d010c04:	27bd0018 	addiu	sp,sp,24
9d010c08:	0f403f24 	jal	9d00fc90 <write>
9d010c0c:	8c840000 	lw	a0,0(a0)
9d010c10:	1000fffb 	b	9d010c00 <__fwrite+0x1c>
9d010c14:	8fbf0014 	lw	ra,20(sp)

Disassembly of section .text.finitef:

9d010c18 <finitef>:
9d010c18:	27bdffe8 	addiu	sp,sp,-24
9d010c1c:	afbf0014 	sw	ra,20(sp)
9d010c20:	0f403a49 	jal	9d00e924 <__truncdfsf2>
9d010c24:	00000000 	nop
9d010c28:	0f403ce5 	jal	9d00f394 <__extendsfdf2>
9d010c2c:	00402025 	move	a0,v0
9d010c30:	00031403 	sra	v0,v1,0x10
9d010c34:	8fbf0014 	lw	ra,20(sp)
9d010c38:	30427ff0 	andi	v0,v0,0x7ff0
9d010c3c:	38427ff0 	xori	v0,v0,0x7ff0
9d010c40:	0002102b 	sltu	v0,zero,v0
9d010c44:	03e00008 	jr	ra
9d010c48:	27bd0018 	addiu	sp,sp,24

Disassembly of section .text.memchr:

9d010c4c <memchr>:
9d010c4c:	00801025 	move	v0,a0
9d010c50:	30a500ff 	andi	a1,a1,0xff
9d010c54:	00863021 	addu	a2,a0,a2
9d010c58:	54460004 	bnel	v0,a2,9d010c6c <memchr+0x20>
9d010c5c:	90430000 	lbu	v1,0(v0)
9d010c60:	00001025 	move	v0,zero
9d010c64:	03e00008 	jr	ra
9d010c68:	00000000 	nop
9d010c6c:	1065fffd 	beq	v1,a1,9d010c64 <memchr+0x18>
9d010c70:	00000000 	nop
9d010c74:	1000fff8 	b	9d010c58 <memchr+0xc>
9d010c78:	24420001 	addiu	v0,v0,1

Disassembly of section .text.copysign:

9d010c7c <copysign>:
9d010c7c:	00071c02 	srl	v1,a3,0x10
9d010c80:	7c037004 	ins	v1,zero,0x0,0xf
9d010c84:	7ca27400 	ext	v0,a1,0x10,0xf
9d010c88:	27bdfff8 	addiu	sp,sp,-8
9d010c8c:	00431025 	or	v0,v0,v1
9d010c90:	afa50004 	sw	a1,4(sp)
9d010c94:	afa40000 	sw	a0,0(sp)
9d010c98:	a7a20006 	sh	v0,6(sp)
9d010c9c:	8fa30004 	lw	v1,4(sp)
9d010ca0:	8fa20000 	lw	v0,0(sp)
9d010ca4:	03e00008 	jr	ra
9d010ca8:	27bd0008 	addiu	sp,sp,8

Disassembly of section .text.memcpy:

9d010cac <memcpy>:
9d010cac:	00801025 	move	v0,a0
9d010cb0:	00001825 	move	v1,zero
9d010cb4:	14c30003 	bne	a2,v1,9d010cc4 <memcpy+0x18>
9d010cb8:	00a33821 	addu	a3,a1,v1
9d010cbc:	03e00008 	jr	ra
9d010cc0:	00000000 	nop
9d010cc4:	90e70000 	lbu	a3,0(a3)
9d010cc8:	00432021 	addu	a0,v0,v1
9d010ccc:	24630001 	addiu	v1,v1,1
9d010cd0:	1000fff8 	b	9d010cb4 <memcpy+0x8>
9d010cd4:	a0870000 	sb	a3,0(a0)

Disassembly of section .rodata:

9d010cd8 <CSWTCH.35>:
9d010cd8:	fbceff6b 0000fbce                       k.......

9d010ce0 <CSWTCH.34>:
9d010ce0:	00353518                                .55.

9d010ce4 <p10s.2639>:
9d010ce4:	0000000a 00000064 000003e8 00002710     ....d........'..
9d010cf4:	000186a0 000f4240 00989680 05f5e100     ....@B..........

Disassembly of section .text.__shlim:

9d010d04 <__shlim>:
9d010d04:	8c830040 	lw	v1,64(a0)
9d010d08:	8c86003c 	lw	a2,60(a0)
9d010d0c:	ac850050 	sw	a1,80(a0)
9d010d10:	00661023 	subu	v0,v1,a2
9d010d14:	10a00004 	beqz	a1,9d010d28 <__shlim+0x24>
9d010d18:	ac820054 	sw	v0,84(a0)
9d010d1c:	00a2102a 	slt	v0,a1,v0
9d010d20:	54400001 	bnezl	v0,9d010d28 <__shlim+0x24>
9d010d24:	00c51821 	addu	v1,a2,a1
9d010d28:	03e00008 	jr	ra
9d010d2c:	ac83004c 	sw	v1,76(a0)

Disassembly of section .text.__dummy:

9d010d30 <__dummy>:
9d010d30:	8c870014 	lw	a3,20(a0)
9d010d34:	8c860018 	lw	a2,24(a0)
9d010d38:	8c830004 	lw	v1,4(a0)
9d010d3c:	00e61023 	subu	v0,a3,a2
9d010d40:	30630040 	andi	v1,v1,0x40
9d010d44:	aca20000 	sw	v0,0(a1)
9d010d48:	10600002 	beqz	v1,9d010d54 <__dummy+0x24>
9d010d4c:	00001025 	move	v0,zero
9d010d50:	00c7102b 	sltu	v0,a2,a3
9d010d54:	03e00008 	jr	ra
9d010d58:	00000000 	nop

Disassembly of section .text.__init_stdio:

9d010d5c <__init_stdio>:
9d010d5c:	27bdffe8 	addiu	sp,sp,-24
9d010d60:	afbf0014 	sw	ra,20(sp)
9d010d64:	0f404488 	jal	9d011220 <__init_stderr>
9d010d68:	00000000 	nop
9d010d6c:	0f404488 	jal	9d011220 <__init_stderr>
9d010d70:	00000000 	nop
9d010d74:	0f404488 	jal	9d011220 <__init_stderr>
9d010d78:	00000000 	nop
9d010d7c:	8fbf0014 	lw	ra,20(sp)
9d010d80:	03e00008 	jr	ra
9d010d84:	27bd0018 	addiu	sp,sp,24

Disassembly of section .text.copysignl:

9d010d88 <copysignl>:
9d010d88:	afa50004 	sw	a1,4(sp)
9d010d8c:	97a20006 	lhu	v0,6(sp)
9d010d90:	00073c02 	srl	a3,a3,0x10
9d010d94:	7c077004 	ins	a3,zero,0x0,0xf
9d010d98:	30427fff 	andi	v0,v0,0x7fff
9d010d9c:	00471025 	or	v0,v0,a3
9d010da0:	a7a20006 	sh	v0,6(sp)
9d010da4:	afa40000 	sw	a0,0(sp)
9d010da8:	8fa20000 	lw	v0,0(sp)
9d010dac:	03e00008 	jr	ra
9d010db0:	8fa30004 	lw	v1,4(sp)

Disassembly of section .text._stub_sbd_memlayout:

9d010db4 <_stub_sbd_memlayout>:
9d010db4:	3c04a000 	lui	a0,0xa000
9d010db8:	24821920 	addiu	v0,a0,6432
9d010dbc:	24030001 	li	v1,1
9d010dc0:	ac430008 	sw	v1,8(v0)
9d010dc4:	3c03a000 	lui	v1,0xa000
9d010dc8:	24631950 	addiu	v1,v1,6480
9d010dcc:	ac831920 	sw	v1,6432(a0)
9d010dd0:	3c030000 	lui	v1,0x0
9d010dd4:	24630000 	addiu	v1,v1,0
9d010dd8:	03e00008 	jr	ra
9d010ddc:	ac430004 	sw	v1,4(v0)

Disassembly of section .text.__wrap_sprintf:

9d010de0 <_dsprintf_cdnopuxX>:
9d010de0:	27bdffe0 	addiu	sp,sp,-32
9d010de4:	afa60028 	sw	a2,40(sp)
9d010de8:	27a60028 	addiu	a2,sp,40
9d010dec:	afbf001c 	sw	ra,28(sp)
9d010df0:	afa7002c 	sw	a3,44(sp)
9d010df4:	0f404396 	jal	9d010e58 <__vsprintf>
9d010df8:	afa60010 	sw	a2,16(sp)
9d010dfc:	8fbf001c 	lw	ra,28(sp)
9d010e00:	03e00008 	jr	ra
9d010e04:	27bd0020 	addiu	sp,sp,32

Disassembly of section .text.__wrap_sscanf:

9d010e08 <_dsscanf_eE>:
9d010e08:	27bdffe0 	addiu	sp,sp,-32
9d010e0c:	afa60028 	sw	a2,40(sp)
9d010e10:	27a60028 	addiu	a2,sp,40
9d010e14:	afbf001c 	sw	ra,28(sp)
9d010e18:	afa7002c 	sw	a3,44(sp)
9d010e1c:	0f404073 	jal	9d0101cc <__vsscanf>
9d010e20:	afa60010 	sw	a2,16(sp)
9d010e24:	8fbf001c 	lw	ra,28(sp)
9d010e28:	03e00008 	jr	ra
9d010e2c:	27bd0020 	addiu	sp,sp,32

Disassembly of section .text.strtof:

9d010e30 <strtof>:
9d010e30:	27bdffe8 	addiu	sp,sp,-24
9d010e34:	afbf0014 	sw	ra,20(sp)
9d010e38:	0f403d63 	jal	9d00f58c <strtox>
9d010e3c:	00003025 	move	a2,zero
9d010e40:	00402025 	move	a0,v0
9d010e44:	0f403a49 	jal	9d00e924 <__truncdfsf2>
9d010e48:	00602825 	move	a1,v1
9d010e4c:	8fbf0014 	lw	ra,20(sp)
9d010e50:	03e00008 	jr	ra
9d010e54:	27bd0018 	addiu	sp,sp,24

Disassembly of section .text.__vsprintf:

9d010e58 <__vsprintf>:
9d010e58:	00c03825 	move	a3,a2
9d010e5c:	00a03025 	move	a2,a1
9d010e60:	3c057fff 	lui	a1,0x7fff
9d010e64:	27bdffe8 	addiu	sp,sp,-24
9d010e68:	afbf0014 	sw	ra,20(sp)
9d010e6c:	0f403f66 	jal	9d00fd98 <__vsnprintf>
9d010e70:	34a5ffff 	ori	a1,a1,0xffff
9d010e74:	8fbf0014 	lw	ra,20(sp)
9d010e78:	03e00008 	jr	ra
9d010e7c:	27bd0018 	addiu	sp,sp,24

Disassembly of section .text.memset:

9d010e80 <memset>:
9d010e80:	00801025 	move	v0,a0
9d010e84:	00863021 	addu	a2,a0,a2
9d010e88:	00801825 	move	v1,a0
9d010e8c:	14660003 	bne	v1,a2,9d010e9c <memset+0x1c>
9d010e90:	24630001 	addiu	v1,v1,1
9d010e94:	03e00008 	jr	ra
9d010e98:	00000000 	nop
9d010e9c:	1000fffb 	b	9d010e8c <memset+0xc>
9d010ea0:	a065ffff 	sb	a1,-1(v1)

Disassembly of section .text.isxdigit:

9d010ea4 <isxdigit>:
9d010ea4:	2483ffd0 	addiu	v1,a0,-48
9d010ea8:	2c63000a 	sltiu	v1,v1,10
9d010eac:	14600004 	bnez	v1,9d010ec0 <isxdigit+0x1c>
9d010eb0:	24020001 	li	v0,1
9d010eb4:	34840020 	ori	a0,a0,0x20
9d010eb8:	2482ff9f 	addiu	v0,a0,-97
9d010ebc:	2c420006 	sltiu	v0,v0,6
9d010ec0:	03e00008 	jr	ra
9d010ec4:	00000000 	nop

Disassembly of section .text.dinit.startup:

9d010ec8 <__pic32_data_init>:
9d010ec8:	03e01825 	move	v1,ra
9d010ecc:	3c089d01 	lui	t0,0x9d01
9d010ed0:	2508fd18 	addiu	t0,t0,-744
9d010ed4:	0100f809 	jalr	t0
9d010ed8:	00000000 	nop
9d010edc:	0060f825 	move	ra,v1
9d010ee0:	03e00008 	jr	ra
9d010ee4:	00000000 	nop

Disassembly of section .text.__fwrite_min:

9d010ee8 <__stdio_write>:
9d010ee8:	8c840000 	lw	a0,0(a0)
9d010eec:	27bdffe8 	addiu	sp,sp,-24
9d010ef0:	afbf0014 	sw	ra,20(sp)
9d010ef4:	0f403f24 	jal	9d00fc90 <write>
9d010ef8:	00000000 	nop
9d010efc:	8fbf0014 	lw	ra,20(sp)
9d010f00:	03e00008 	jr	ra
9d010f04:	27bd0018 	addiu	sp,sp,24

Disassembly of section .text.__fseeko:

9d010f08 <__fseeko>:
9d010f08:	8c820030 	lw	v0,48(a0)
9d010f0c:	27bdffe8 	addiu	sp,sp,-24
9d010f10:	afbf0014 	sw	ra,20(sp)
9d010f14:	0040f809 	jalr	v0
9d010f18:	00000000 	nop
9d010f1c:	8fbf0014 	lw	ra,20(sp)
9d010f20:	03e00008 	jr	ra
9d010f24:	27bd0018 	addiu	sp,sp,24

Disassembly of section .text.__sio_sscanf_f:

9d010f28 <__sio_sscanf_f>:
9d010f28:	27bdffe8 	addiu	sp,sp,-24
9d010f2c:	afbf0014 	sw	ra,20(sp)
9d010f30:	0f402de8 	jal	9d00b7a0 <__scan_fp>
9d010f34:	00000000 	nop
9d010f38:	8fbf0014 	lw	ra,20(sp)
9d010f3c:	03e00008 	jr	ra
9d010f40:	27bd0018 	addiu	sp,sp,24

Disassembly of section .text.strtod:

9d010f44 <strtod>:
9d010f44:	27bdffe8 	addiu	sp,sp,-24
9d010f48:	afbf0014 	sw	ra,20(sp)
9d010f4c:	0f403d63 	jal	9d00f58c <strtox>
9d010f50:	24060001 	li	a2,1
9d010f54:	8fbf0014 	lw	ra,20(sp)
9d010f58:	03e00008 	jr	ra
9d010f5c:	27bd0018 	addiu	sp,sp,24

Disassembly of section .text.strtold:

9d010f60 <strtold>:
9d010f60:	27bdffe8 	addiu	sp,sp,-24
9d010f64:	afbf0014 	sw	ra,20(sp)
9d010f68:	0f403d63 	jal	9d00f58c <strtox>
9d010f6c:	24060002 	li	a2,2
9d010f70:	8fbf0014 	lw	ra,20(sp)
9d010f74:	03e00008 	jr	ra
9d010f78:	27bd0018 	addiu	sp,sp,24

Disassembly of section .text.__isxdigit_l:

9d010f7c <__isxdigit_l>:
9d010f7c:	27bdffe8 	addiu	sp,sp,-24
9d010f80:	afbf0014 	sw	ra,20(sp)
9d010f84:	0f4043a9 	jal	9d010ea4 <isxdigit>
9d010f88:	00000000 	nop
9d010f8c:	8fbf0014 	lw	ra,20(sp)
9d010f90:	03e00008 	jr	ra
9d010f94:	27bd0018 	addiu	sp,sp,24

Disassembly of section .text.tolower:

9d010f98 <tolower>:
9d010f98:	2483ffbf 	addiu	v1,a0,-65
9d010f9c:	2c63001a 	sltiu	v1,v1,26
9d010fa0:	10600002 	beqz	v1,9d010fac <tolower+0x14>
9d010fa4:	00801025 	move	v0,a0
9d010fa8:	34820020 	ori	v0,a0,0x20
9d010fac:	03e00008 	jr	ra
9d010fb0:	00000000 	nop

Disassembly of section .text.__tolower_l:

9d010fb4 <__tolower_l>:
9d010fb4:	27bdffe8 	addiu	sp,sp,-24
9d010fb8:	afbf0014 	sw	ra,20(sp)
9d010fbc:	0f4043e6 	jal	9d010f98 <tolower>
9d010fc0:	00000000 	nop
9d010fc4:	8fbf0014 	lw	ra,20(sp)
9d010fc8:	03e00008 	jr	ra
9d010fcc:	27bd0018 	addiu	sp,sp,24

Disassembly of section .text.toupper:

9d010fd0 <toupper>:
9d010fd0:	2483ff9f 	addiu	v1,a0,-97
9d010fd4:	2c63001a 	sltiu	v1,v1,26
9d010fd8:	10600002 	beqz	v1,9d010fe4 <toupper+0x14>
9d010fdc:	00801025 	move	v0,a0
9d010fe0:	3082005f 	andi	v0,a0,0x5f
9d010fe4:	03e00008 	jr	ra
9d010fe8:	00000000 	nop

Disassembly of section .text.__toupper_l:

9d010fec <__toupper_l>:
9d010fec:	27bdffe8 	addiu	sp,sp,-24
9d010ff0:	afbf0014 	sw	ra,20(sp)
9d010ff4:	0f4043f4 	jal	9d010fd0 <toupper>
9d010ff8:	00000000 	nop
9d010ffc:	8fbf0014 	lw	ra,20(sp)
9d011000:	03e00008 	jr	ra
9d011004:	27bd0018 	addiu	sp,sp,24

Disassembly of section .text.do_read:

9d011008 <do_read>:
9d011008:	27bdffe8 	addiu	sp,sp,-24
9d01100c:	afbf0014 	sw	ra,20(sp)
9d011010:	0f403d8c 	jal	9d00f630 <__string_read>
9d011014:	00000000 	nop
9d011018:	8fbf0014 	lw	ra,20(sp)
9d01101c:	03e00008 	jr	ra
9d011020:	27bd0018 	addiu	sp,sp,24

Disassembly of section .text.__toread_needs_stdio_exit:

9d011024 <__toread_needs_stdio_exit>:
9d011024:	27bdffe8 	addiu	sp,sp,-24
9d011028:	afbf0014 	sw	ra,20(sp)
9d01102c:	0f4041c3 	jal	9d01070c <__stdio_exit>
9d011030:	00000000 	nop
9d011034:	8fbf0014 	lw	ra,20(sp)
9d011038:	03e00008 	jr	ra
9d01103c:	27bd0018 	addiu	sp,sp,24

Disassembly of section .text.putc:

9d011040 <putc>:
9d011040:	27bdffe8 	addiu	sp,sp,-24
9d011044:	afbf0014 	sw	ra,20(sp)
9d011048:	0f40403b 	jal	9d0100ec <__putc>
9d01104c:	00000000 	nop
9d011050:	8fbf0014 	lw	ra,20(sp)
9d011054:	03e00008 	jr	ra
9d011058:	27bd0018 	addiu	sp,sp,24

Disassembly of section .text.__fopen:

9d01105c <__fopen>:
9d01105c:	27bdffe8 	addiu	sp,sp,-24
9d011060:	afbf0014 	sw	ra,20(sp)
9d011064:	0f403f02 	jal	9d00fc08 <__fopen_rw>
9d011068:	00000000 	nop
9d01106c:	8fbf0014 	lw	ra,20(sp)
9d011070:	03e00008 	jr	ra
9d011074:	27bd0018 	addiu	sp,sp,24

Disassembly of section .text.__ftello_adj:

9d011078 <__ftello_adj>:
9d011078:	27bdffe8 	addiu	sp,sp,-24
9d01107c:	afbf0014 	sw	ra,20(sp)
9d011080:	0f40421f 	jal	9d01087c <__ftello_adj_rw>
9d011084:	00000000 	nop
9d011088:	8fbf0014 	lw	ra,20(sp)
9d01108c:	03e00008 	jr	ra
9d011090:	27bd0018 	addiu	sp,sp,24

Disassembly of section .text.logb:

9d011094 <logb>:
9d011094:	27bdffe8 	addiu	sp,sp,-24
9d011098:	afbf0014 	sw	ra,20(sp)
9d01109c:	0f40397b 	jal	9d00e5ec <logbl>
9d0110a0:	00000000 	nop
9d0110a4:	8fbf0014 	lw	ra,20(sp)
9d0110a8:	03e00008 	jr	ra
9d0110ac:	27bd0018 	addiu	sp,sp,24

Disassembly of section .text.drem:

9d0110b0 <drem>:
9d0110b0:	27bdffe8 	addiu	sp,sp,-24
9d0110b4:	afbf0014 	sw	ra,20(sp)
9d0110b8:	0f4029a9 	jal	9d00a6a4 <dreml>
9d0110bc:	00000000 	nop
9d0110c0:	8fbf0014 	lw	ra,20(sp)
9d0110c4:	03e00008 	jr	ra
9d0110c8:	27bd0018 	addiu	sp,sp,24

Disassembly of section .text.fabsl:

9d0110cc <fabsl>:
9d0110cc:	27bdffe8 	addiu	sp,sp,-24
9d0110d0:	afbf0014 	sw	ra,20(sp)
9d0110d4:	0f404464 	jal	9d011190 <fabs>
9d0110d8:	00000000 	nop
9d0110dc:	8fbf0014 	lw	ra,20(sp)
9d0110e0:	03e00008 	jr	ra
9d0110e4:	27bd0018 	addiu	sp,sp,24

Disassembly of section .text.scalbnl:

9d0110e8 <scalbnl>:
9d0110e8:	27bdffe8 	addiu	sp,sp,-24
9d0110ec:	afbf0014 	sw	ra,20(sp)
9d0110f0:	0f403ac6 	jal	9d00eb18 <scalbn>
9d0110f4:	00000000 	nop
9d0110f8:	8fbf0014 	lw	ra,20(sp)
9d0110fc:	03e00008 	jr	ra
9d011100:	27bd0018 	addiu	sp,sp,24

Disassembly of section .text:

9d011120 <_nmi_handler>:
9d011120:	401a6000 	mfc0	k0,c0_status
9d011124:	3c1bffbf 	lui	k1,0xffbf
9d011128:	377bffff 	ori	k1,k1,0xffff
9d01112c:	035bd024 	and	k0,k0,k1
9d011130:	409a6000 	mtc0	k0,c0_status
9d011134:	42000018 	eret

Disassembly of section .rodata:

9d011138 <state_table>:
9d011138:	096c0768 906a834c c07aa074 88688000     h.l.L.j.t.z...h.
9d011148:	826c8400 00008100                       ..l.....

Disassembly of section .text.strlen:

9d011150 <strlen>:
9d011150:	00801025 	move	v0,a0
9d011154:	80430000 	lb	v1,0(v0)
9d011158:	5460fffe 	bnezl	v1,9d011154 <strlen+0x4>
9d01115c:	24420001 	addiu	v0,v0,1
9d011160:	03e00008 	jr	ra
9d011164:	00441023 	subu	v0,v0,a0

Disassembly of section .text.finitel:

9d011168 <finitel>:
9d011168:	00051403 	sra	v0,a1,0x10
9d01116c:	30427ff0 	andi	v0,v0,0x7ff0
9d011170:	38427ff0 	xori	v0,v0,0x7ff0
9d011174:	03e00008 	jr	ra
9d011178:	0002102b 	sltu	v0,zero,v0

Disassembly of section .text.finite:

9d01117c <finite>:
9d01117c:	00051403 	sra	v0,a1,0x10
9d011180:	30427ff0 	andi	v0,v0,0x7ff0
9d011184:	38427ff0 	xori	v0,v0,0x7ff0
9d011188:	03e00008 	jr	ra
9d01118c:	0002102b 	sltu	v0,zero,v0

Disassembly of section .text.fabs:

9d011190 <fabs>:
9d011190:	7ca6f000 	ext	a2,a1,0x0,0x1f
9d011194:	00801025 	move	v0,a0
9d011198:	03e00008 	jr	ra
9d01119c:	00c01825 	move	v1,a2

Disassembly of section .text.__get_stderr:

9d0111a0 <__get_stderr>:
9d0111a0:	3c02a000 	lui	v0,0xa000
9d0111a4:	03e00008 	jr	ra
9d0111a8:	24420020 	addiu	v0,v0,32

Disassembly of section .text.__get_stdout:

9d0111ac <__get_stdout>:
9d0111ac:	3c02a000 	lui	v0,0xa000
9d0111b0:	03e00008 	jr	ra
9d0111b4:	24420080 	addiu	v0,v0,128

Disassembly of section .text._on_reset:

9d0111b8 <_on_reset>:
9d0111b8:	03e00008 	jr	ra
9d0111bc:	00000000 	nop

Disassembly of section .text._on_bootstrap:

9d0111c0 <_on_bootstrap>:
9d0111c0:	03e00008 	jr	ra
9d0111c4:	00000000 	nop

Disassembly of section .text.__dummy_fmt3:

9d0111c8 <__dummy_fmt3>:
9d0111c8:	03e00008 	jr	ra
9d0111cc:	00001025 	move	v0,zero

Disassembly of section .text.__dummy_fmt4:

9d0111d0 <__fmt_a>:
9d0111d0:	03e00008 	jr	ra
9d0111d4:	00001025 	move	v0,zero

Disassembly of section .text.__dummy_fmts:

9d0111d8 <__dummy_fmts>:
9d0111d8:	03e00008 	jr	ra
9d0111dc:	00001025 	move	v0,zero

Disassembly of section .text.__dummy_scan:

9d0111e0 <__scan_a>:
9d0111e0:	03e00008 	jr	ra
9d0111e4:	00001025 	move	v0,zero

Disassembly of section .text.__dummy_scan_s:

9d0111e8 <__scan_s>:
9d0111e8:	03e00008 	jr	ra
9d0111ec:	00001025 	move	v0,zero

Disassembly of section .text.__dummy:

9d0111f0 <__dummy>:
9d0111f0:	03e00008 	jr	ra
9d0111f4:	00000000 	nop

9d0111f8 <__stdio_exit_ofl>:
9d0111f8:	03e00008 	jr	ra
9d0111fc:	00000000 	nop

Disassembly of section .text.__dummy1:

9d011200 <__dummy1>:
9d011200:	03e00008 	jr	ra
9d011204:	00001025 	move	v0,zero

Disassembly of section .text.__dummy:

9d011208 <__dummy>:
9d011208:	03e00008 	jr	ra
9d01120c:	00000000 	nop

9d011210 <__dummy>:
9d011210:	03e00008 	jr	ra
9d011214:	00001025 	move	v0,zero

Disassembly of section .text.__dummy:

9d011218 <__dummy>:
9d011218:	03e00008 	jr	ra
9d01121c:	00001025 	move	v0,zero

9d011220 <__init_stderr>:
9d011220:	03e00008 	jr	ra
9d011224:	00000000 	nop

Disassembly of section .text.getpagesize:

9d011228 <getpagesize>:
9d011228:	03e00008 	jr	ra
9d01122c:	24020080 	li	v0,128

Disassembly of section .text.lseek:

9d011230 <lseek>:
9d011230:	03e00008 	jr	ra
9d011234:	00001025 	move	v0,zero

Disassembly of section .text.close:

9d011238 <close>:
9d011238:	03e00008 	jr	ra
9d01123c:	00001025 	move	v0,zero
