
out.elf:     file format elf32-tradlittlemips


Disassembly of section .reset:

bd007000 <_reset>:
bd007000:	0f401c02 	jal	bd007008 <_startup>
bd007004:	00000000 	nop

bd007008 <_startup>:
bd007008:	401a6000 	mfc0	k0,c0_status
bd00700c:	7f5a04c0 	ext	k0,k0,0x13,0x1
bd007010:	13400005 	beqz	k0,bd007028 <_no_nmi>
bd007014:	00000000 	nop
bd007018:	3c1a9d01 	lui	k0,0x9d01
bd00701c:	275a94d0 	addiu	k0,k0,-27440
bd007020:	03400008 	jr	k0
bd007024:	00000000 	nop

bd007028 <_no_nmi>:
bd007028:	3c1da001 	lui	sp,0xa001
bd00702c:	27bdfff0 	addiu	sp,sp,-16
bd007030:	3c1ca000 	lui	gp,0xa000
bd007034:	279c7ff0 	addiu	gp,gp,32752
bd007038:	3c089d01 	lui	t0,0x9d01
bd00703c:	25089528 	addiu	t0,t0,-27352
bd007040:	0100f809 	jalr	t0
bd007044:	00000000 	nop

bd007048 <_start_bss_init>:
bd007048:	3c08a000 	lui	t0,0xa000
bd00704c:	25080000 	addiu	t0,t0,0
bd007050:	3c09a000 	lui	t1,0xa000
bd007054:	25290000 	addiu	t1,t1,0
bd007058:	10000003 	b	bd007068 <_bss_check>
bd00705c:	00000000 	nop

bd007060 <_bss_init>:
bd007060:	ad000000 	sw	zero,0(t0)
bd007064:	25080004 	addiu	t0,t0,4

bd007068 <_bss_check>:
bd007068:	0109082b 	sltu	at,t0,t1
bd00706c:	1420fffc 	bnez	at,bd007060 <_bss_init>
bd007070:	00000000 	nop
bd007074:	3c089d01 	lui	t0,0x9d01
bd007078:	25089424 	addiu	t0,t0,-27612
bd00707c:	0100f809 	jalr	t0
bd007080:	00000000 	nop
bd007084:	3c090000 	lui	t1,0x0
bd007088:	25290000 	addiu	t1,t1,0
bd00708c:	11200010 	beqz	t1,bd0070d0 <_ramfunc_done>
bd007090:	00000000 	nop
bd007094:	3c090001 	lui	t1,0x1
bd007098:	25290000 	addiu	t1,t1,0
bd00709c:	3c0abf88 	lui	t2,0xbf88
bd0070a0:	254a2010 	addiu	t2,t2,8208
bd0070a4:	ad490000 	sw	t1,0(t2)
bd0070a8:	3c090001 	lui	t1,0x1
bd0070ac:	25290000 	addiu	t1,t1,0
bd0070b0:	3c0abf88 	lui	t2,0xbf88
bd0070b4:	254a2020 	addiu	t2,t2,8224
bd0070b8:	ad490000 	sw	t1,0(t2)
bd0070bc:	3c090001 	lui	t1,0x1
bd0070c0:	25290000 	addiu	t1,t1,0
bd0070c4:	3c0abf88 	lui	t2,0xbf88
bd0070c8:	254a2030 	addiu	t2,t2,8240
bd0070cc:	ad490000 	sw	t1,0(t2)

bd0070d0 <_ramfunc_done>:
bd0070d0:	40804800 	mtc0	zero,c0_count
bd0070d4:	240affff 	li	t2,-1
bd0070d8:	408a5800 	mtc0	t2,c0_compare
bd0070dc:	3c080040 	lui	t0,0x40
bd0070e0:	400a6000 	mfc0	t2,c0_status
bd0070e4:	010a5025 	or	t2,t0,t2
bd0070e8:	408a6000 	mtc0	t2,c0_status
bd0070ec:	3c099d00 	lui	t1,0x9d00
bd0070f0:	25296000 	addiu	t1,t1,24576
bd0070f4:	000000c0 	ehb
bd0070f8:	40897801 	mtc0	t1,c0_ebase
bd0070fc:	3c090000 	lui	t1,0x0
bd007100:	25290001 	addiu	t1,t1,1
bd007104:	240a0000 	li	t2,0
bd007108:	7d2a4944 	ins	t2,t1,0x5,0x5
bd00710c:	408a6001 	mtc0	t2,c0_intctl
bd007110:	3c090080 	lui	t1,0x80
bd007114:	40896800 	mtc0	t1,c0_cause
bd007118:	40088000 	mfc0	t0,c0_config
bd00711c:	7d090580 	ext	t1,t0,0x16,0x1
bd007120:	00094c40 	sll	t1,t1,0x11
bd007124:	40086000 	mfc0	t0,c0_status
bd007128:	3c010058 	lui	at,0x58
bd00712c:	01014024 	and	t0,t0,at
bd007130:	01284025 	or	t0,t1,t0
bd007134:	40886000 	mtc0	t0,c0_status
bd007138:	000000c0 	ehb
bd00713c:	3c089d01 	lui	t0,0x9d01
bd007140:	25089530 	addiu	t0,t0,-27344
bd007144:	0100f809 	jalr	t0
bd007148:	00000000 	nop
bd00714c:	40086000 	mfc0	t0,c0_status
bd007150:	3c01ffbf 	lui	at,0xffbf
bd007154:	3421ffff 	ori	at,at,0xffff
bd007158:	01014024 	and	t0,t0,at
bd00715c:	40886000 	mtc0	t0,c0_status
bd007160:	30840000 	andi	a0,a0,0x0
bd007164:	30a50000 	andi	a1,a1,0x0
bd007168:	3c089d01 	lui	t0,0x9d01
bd00716c:	2508913c 	addiu	t0,t0,-28356
bd007170:	01000008 	jr	t0
bd007174:	00000000 	nop

Disassembly of section .bev_excpt:

bfc07380 <_bev_exception>:
bfc07380:	3c1a9d01 	lui	k0,0x9d01
bfc07384:	275a922c 	addiu	k0,k0,-28116
bfc07388:	03400008 	jr	k0
bfc0738c:	00000000 	nop

Disassembly of section .app_excpt:

9d006180 <_gen_exception>:
9d006180:	3c1a9d01 	lui	k0,0x9d01
9d006184:	275a8c54 	addiu	k0,k0,-29612
9d006188:	03400008 	jr	k0
9d00618c:	00000000 	nop

Disassembly of section .vector_0:

9d006200 <__vector_dispatch_0>:
9d006200:	0b4024af 	j	9d0092bc <_DefaultInterrupt>
9d006204:	00000000 	nop

Disassembly of section .vector_1:

9d006220 <__vector_dispatch_1>:
9d006220:	0b4024af 	j	9d0092bc <_DefaultInterrupt>
9d006224:	00000000 	nop

Disassembly of section .vector_2:

9d006240 <__vector_dispatch_2>:
9d006240:	0b4024af 	j	9d0092bc <_DefaultInterrupt>
9d006244:	00000000 	nop

Disassembly of section .vector_3:

9d006260 <__vector_dispatch_3>:
9d006260:	0b4024af 	j	9d0092bc <_DefaultInterrupt>
9d006264:	00000000 	nop

Disassembly of section .vector_4:

9d006280 <__vector_dispatch_4>:
9d006280:	0b4024af 	j	9d0092bc <_DefaultInterrupt>
9d006284:	00000000 	nop

Disassembly of section .vector_5:

9d0062a0 <__vector_dispatch_5>:
9d0062a0:	0b4024af 	j	9d0092bc <_DefaultInterrupt>
9d0062a4:	00000000 	nop

Disassembly of section .vector_6:

9d0062c0 <__vector_dispatch_6>:
9d0062c0:	0b4024af 	j	9d0092bc <_DefaultInterrupt>
9d0062c4:	00000000 	nop

Disassembly of section .vector_7:

9d0062e0 <__vector_dispatch_7>:
9d0062e0:	0b4024af 	j	9d0092bc <_DefaultInterrupt>
9d0062e4:	00000000 	nop

Disassembly of section .vector_8:

9d006300 <__vector_dispatch_8>:
9d006300:	0b4024af 	j	9d0092bc <_DefaultInterrupt>
9d006304:	00000000 	nop

Disassembly of section .vector_9:

9d006320 <__vector_dispatch_9>:
9d006320:	0b4024af 	j	9d0092bc <_DefaultInterrupt>
9d006324:	00000000 	nop

Disassembly of section .vector_10:

9d006340 <__vector_dispatch_10>:
9d006340:	0b4024af 	j	9d0092bc <_DefaultInterrupt>
9d006344:	00000000 	nop

Disassembly of section .vector_11:

9d006360 <__vector_dispatch_11>:
9d006360:	0b4024af 	j	9d0092bc <_DefaultInterrupt>
9d006364:	00000000 	nop

Disassembly of section .vector_12:

9d006380 <__vector_dispatch_12>:
9d006380:	0b4024af 	j	9d0092bc <_DefaultInterrupt>
9d006384:	00000000 	nop

Disassembly of section .vector_13:

9d0063a0 <__vector_dispatch_13>:
9d0063a0:	0b4024af 	j	9d0092bc <_DefaultInterrupt>
9d0063a4:	00000000 	nop

Disassembly of section .vector_14:

9d0063c0 <__vector_dispatch_14>:
9d0063c0:	0b4024af 	j	9d0092bc <_DefaultInterrupt>
9d0063c4:	00000000 	nop

Disassembly of section .vector_15:

9d0063e0 <__vector_dispatch_15>:
9d0063e0:	0b4024af 	j	9d0092bc <_DefaultInterrupt>
9d0063e4:	00000000 	nop

Disassembly of section .vector_16:

9d006400 <__vector_dispatch_16>:
9d006400:	0b4024af 	j	9d0092bc <_DefaultInterrupt>
9d006404:	00000000 	nop

Disassembly of section .vector_17:

9d006420 <__vector_dispatch_17>:
9d006420:	0b4024af 	j	9d0092bc <_DefaultInterrupt>
9d006424:	00000000 	nop

Disassembly of section .vector_18:

9d006440 <__vector_dispatch_18>:
9d006440:	0b4024af 	j	9d0092bc <_DefaultInterrupt>
9d006444:	00000000 	nop

Disassembly of section .vector_19:

9d006460 <__vector_dispatch_19>:
9d006460:	0b4024af 	j	9d0092bc <_DefaultInterrupt>
9d006464:	00000000 	nop

Disassembly of section .vector_20:

9d006480 <__vector_dispatch_20>:
9d006480:	0b4024af 	j	9d0092bc <_DefaultInterrupt>
9d006484:	00000000 	nop

Disassembly of section .vector_21:

9d0064a0 <__vector_dispatch_21>:
9d0064a0:	0b4024af 	j	9d0092bc <_DefaultInterrupt>
9d0064a4:	00000000 	nop

Disassembly of section .vector_22:

9d0064c0 <__vector_dispatch_22>:
9d0064c0:	0b4024af 	j	9d0092bc <_DefaultInterrupt>
9d0064c4:	00000000 	nop

Disassembly of section .vector_23:

9d0064e0 <__vector_dispatch_23>:
9d0064e0:	0b4024af 	j	9d0092bc <_DefaultInterrupt>
9d0064e4:	00000000 	nop

Disassembly of section .vector_24:

9d006500 <__vector_dispatch_24>:
9d006500:	0b4024af 	j	9d0092bc <_DefaultInterrupt>
9d006504:	00000000 	nop

Disassembly of section .vector_25:

9d006520 <__vector_dispatch_25>:
9d006520:	0b4024af 	j	9d0092bc <_DefaultInterrupt>
9d006524:	00000000 	nop

Disassembly of section .vector_26:

9d006540 <__vector_dispatch_26>:
9d006540:	0b4024af 	j	9d0092bc <_DefaultInterrupt>
9d006544:	00000000 	nop

Disassembly of section .vector_27:

9d006560 <__vector_dispatch_27>:
9d006560:	0b4024af 	j	9d0092bc <_DefaultInterrupt>
9d006564:	00000000 	nop

Disassembly of section .vector_28:

9d006580 <__vector_dispatch_28>:
9d006580:	0b4024af 	j	9d0092bc <_DefaultInterrupt>
9d006584:	00000000 	nop

Disassembly of section .vector_29:

9d0065a0 <__vector_dispatch_29>:
9d0065a0:	0b4024af 	j	9d0092bc <_DefaultInterrupt>
9d0065a4:	00000000 	nop

Disassembly of section .vector_30:

9d0065c0 <__vector_dispatch_30>:
9d0065c0:	0b4024af 	j	9d0092bc <_DefaultInterrupt>
9d0065c4:	00000000 	nop

Disassembly of section .vector_31:

9d0065e0 <__vector_dispatch_31>:
9d0065e0:	0b4024af 	j	9d0092bc <_DefaultInterrupt>
9d0065e4:	00000000 	nop

Disassembly of section .vector_32:

9d006600 <__vector_dispatch_32>:
9d006600:	0b4024af 	j	9d0092bc <_DefaultInterrupt>
9d006604:	00000000 	nop

Disassembly of section .vector_33:

9d006620 <__vector_dispatch_33>:
9d006620:	0b4024af 	j	9d0092bc <_DefaultInterrupt>
9d006624:	00000000 	nop

Disassembly of section .vector_34:

9d006640 <__vector_dispatch_34>:
9d006640:	0b4024af 	j	9d0092bc <_DefaultInterrupt>
9d006644:	00000000 	nop

Disassembly of section .vector_35:

9d006660 <__vector_dispatch_35>:
9d006660:	0b4024af 	j	9d0092bc <_DefaultInterrupt>
9d006664:	00000000 	nop

Disassembly of section .vector_36:

9d006680 <__vector_dispatch_36>:
9d006680:	0b4024af 	j	9d0092bc <_DefaultInterrupt>
9d006684:	00000000 	nop

Disassembly of section .vector_37:

9d0066a0 <__vector_dispatch_37>:
9d0066a0:	0b4024af 	j	9d0092bc <_DefaultInterrupt>
9d0066a4:	00000000 	nop

Disassembly of section .vector_38:

9d0066c0 <__vector_dispatch_38>:
9d0066c0:	0b4024af 	j	9d0092bc <_DefaultInterrupt>
9d0066c4:	00000000 	nop

Disassembly of section .vector_39:

9d0066e0 <__vector_dispatch_39>:
9d0066e0:	0b4024af 	j	9d0092bc <_DefaultInterrupt>
9d0066e4:	00000000 	nop

Disassembly of section .vector_40:

9d006700 <__vector_dispatch_40>:
9d006700:	0b4024af 	j	9d0092bc <_DefaultInterrupt>
9d006704:	00000000 	nop

Disassembly of section .vector_41:

9d006720 <__vector_dispatch_41>:
9d006720:	0b4024af 	j	9d0092bc <_DefaultInterrupt>
9d006724:	00000000 	nop

Disassembly of section .vector_42:

9d006740 <__vector_dispatch_42>:
9d006740:	0b4024af 	j	9d0092bc <_DefaultInterrupt>
9d006744:	00000000 	nop

Disassembly of section .vector_43:

9d006760 <__vector_dispatch_43>:
9d006760:	0b4024af 	j	9d0092bc <_DefaultInterrupt>
9d006764:	00000000 	nop

Disassembly of section .rodata:

9d007490 <.rodata>:
9d007490:	6c6c6548 	0x6c6c6548
9d007494:	0a0d216f 	j	983485bc <_bmxdudba_address+0x983385bc>
9d007498:	0c000000 	jal	90000000 <_bmxdudba_address+0x8fff0000>
9d00749c:	0a0d6425 	j	98359094 <_bmxdudba_address+0x98349094>
9d0074a0:	0c000000 	jal	90000000 <_bmxdudba_address+0x8fff0000>
9d0074a4:	6c696e28 	0x6c696e28
9d0074a8:	00000029 	0x29

Disassembly of section ._debug_exception:

bfc00480 <__DbgExecReturn>:
bfc00480:	409bf800 	mtc0	k1,c0_desave
bfc00484:	000000c0 	ehb
bfc00488:	3c1b9d01 	lui	k1,0x9d01
bfc0048c:	277b9304 	addiu	k1,k1,-27900
bfc00490:	13600002 	beqz	k1,bfc0049c <__DbgExecReturn+0x1c>
bfc00494:	00000000 	nop
bfc00498:	409bc000 	mtc0	k1,c0_depc
bfc0049c:	401bf800 	mfc0	k1,c0_desave
bfc004a0:	000000c0 	ehb
bfc004a4:	4200001f 	deret
bfc004a8:	00000000 	nop

Disassembly of section .text.__printf_core:

9d0074ac <__printf_core>:
9d0074ac:	27bdff18 	addiu	sp,sp,-232
9d0074b0:	afb500d8 	sw	s5,216(sp)
9d0074b4:	3c159d00 	lui	s5,0x9d00
9d0074b8:	afb600dc 	sw	s6,220(sp)
9d0074bc:	afb400d4 	sw	s4,212(sp)
9d0074c0:	afb300d0 	sw	s3,208(sp)
9d0074c4:	afb200cc 	sw	s2,204(sp)
9d0074c8:	afb100c8 	sw	s1,200(sp)
9d0074cc:	afbf00e4 	sw	ra,228(sp)
9d0074d0:	afb700e0 	sw	s7,224(sp)
9d0074d4:	afb000c4 	sw	s0,196(sp)
9d0074d8:	00809025 	move	s2,a0
9d0074dc:	00c08825 	move	s1,a2
9d0074e0:	afa500b0 	sw	a1,176(sp)
9d0074e4:	00009825 	move	s3,zero
9d0074e8:	27b60010 	addiu	s6,sp,16
9d0074ec:	24140025 	li	s4,37
9d0074f0:	26b574a4 	addiu	s5,s5,29860
9d0074f4:	8fa500b0 	lw	a1,176(sp)
9d0074f8:	80a20000 	lb	v0,0(a1)
9d0074fc:	104000e0 	beqz	v0,9d007880 <__printf_core+0x3d4>
9d007500:	2402ffff 	li	v0,-1
9d007504:	afa20094 	sw	v0,148(sp)
9d007508:	24020080 	li	v0,128
9d00750c:	afa00090 	sw	zero,144(sp)
9d007510:	afa00098 	sw	zero,152(sp)
9d007514:	afb6009c 	sw	s6,156(sp)
9d007518:	afa200a0 	sw	v0,160(sp)
9d00751c:	00008025 	move	s0,zero
9d007520:	00b01021 	addu	v0,a1,s0
9d007524:	80420000 	lb	v0,0(v0)
9d007528:	10400003 	beqz	v0,9d007538 <__printf_core+0x8c>
9d00752c:	00000000 	nop
9d007530:	5454fffb 	bnel	v0,s4,9d007520 <__printf_core+0x74>
9d007534:	26100001 	addiu	s0,s0,1
9d007538:	12000006 	beqz	s0,9d007554 <__printf_core+0xa8>
9d00753c:	02003025 	move	a2,s0
9d007540:	0f402422 	jal	9d009088 <__out>
9d007544:	02402025 	move	a0,s2
9d007548:	8fa200b0 	lw	v0,176(sp)
9d00754c:	00501021 	addu	v0,v0,s0
9d007550:	afa200b0 	sw	v0,176(sp)
9d007554:	8fb700b0 	lw	s7,176(sp)
9d007558:	82e20000 	lb	v0,0(s7)
9d00755c:	145400c1 	bne	v0,s4,9d007864 <__printf_core+0x3b8>
9d007560:	26f70001 	addiu	s7,s7,1
9d007564:	afb700b0 	sw	s7,176(sp)
9d007568:	2405002b 	li	a1,43
9d00756c:	2406002d 	li	a2,45
9d007570:	24030030 	li	v1,48
9d007574:	24070020 	li	a3,32
9d007578:	24080023 	li	t0,35
9d00757c:	8fa400b0 	lw	a0,176(sp)
9d007580:	80820000 	lb	v0,0(a0)
9d007584:	5045001b 	beql	v0,a1,9d0075f4 <__printf_core+0x148>
9d007588:	8fa20090 	lw	v0,144(sp)
9d00758c:	2849002c 	slti	t1,v0,44
9d007590:	1120001e 	beqz	t1,9d00760c <__printf_core+0x160>
9d007594:	00000000 	nop
9d007598:	50470018 	beql	v0,a3,9d0075fc <__printf_core+0x150>
9d00759c:	8fa20090 	lw	v0,144(sp)
9d0075a0:	50480018 	beql	v0,t0,9d007604 <__printf_core+0x158>
9d0075a4:	8fa20090 	lw	v0,144(sp)
9d0075a8:	2403002a 	li	v1,42
9d0075ac:	5043001e 	beql	v0,v1,9d007628 <__printf_core+0x17c>
9d0075b0:	8e220000 	lw	v0,0(s1)
9d0075b4:	0f402403 	jal	9d00900c <atoi>
9d0075b8:	00000000 	nop
9d0075bc:	afa20098 	sw	v0,152(sp)
9d0075c0:	8fa300b0 	lw	v1,176(sp)
9d0075c4:	80620000 	lb	v0,0(v1)
9d0075c8:	2442ffd0 	addiu	v0,v0,-48
9d0075cc:	2c42000a 	sltiu	v0,v0,10
9d0075d0:	10400021 	beqz	v0,9d007658 <__printf_core+0x1ac>
9d0075d4:	24630001 	addiu	v1,v1,1
9d0075d8:	1000fff9 	b	9d0075c0 <__printf_core+0x114>
9d0075dc:	afa300b0 	sw	v1,176(sp)
9d0075e0:	34420001 	ori	v0,v0,0x1
9d0075e4:	24840001 	addiu	a0,a0,1
9d0075e8:	afa20090 	sw	v0,144(sp)
9d0075ec:	1000ffe3 	b	9d00757c <__printf_core+0xd0>
9d0075f0:	afa400b0 	sw	a0,176(sp)
9d0075f4:	1000fffb 	b	9d0075e4 <__printf_core+0x138>
9d0075f8:	34420004 	ori	v0,v0,0x4
9d0075fc:	1000fff9 	b	9d0075e4 <__printf_core+0x138>
9d007600:	34420008 	ori	v0,v0,0x8
9d007604:	1000fff7 	b	9d0075e4 <__printf_core+0x138>
9d007608:	34420010 	ori	v0,v0,0x10
9d00760c:	5046fff4 	beql	v0,a2,9d0075e0 <__printf_core+0x134>
9d007610:	8fa20090 	lw	v0,144(sp)
9d007614:	5443ffe5 	bnel	v0,v1,9d0075ac <__printf_core+0x100>
9d007618:	2403002a 	li	v1,42
9d00761c:	8fa20090 	lw	v0,144(sp)
9d007620:	1000fff0 	b	9d0075e4 <__printf_core+0x138>
9d007624:	34420002 	ori	v0,v0,0x2
9d007628:	24840001 	addiu	a0,a0,1
9d00762c:	afa400b0 	sw	a0,176(sp)
9d007630:	24430004 	addiu	v1,v0,4
9d007634:	8c420000 	lw	v0,0(v0)
9d007638:	ae230000 	sw	v1,0(s1)
9d00763c:	04410006 	bgez	v0,9d007658 <__printf_core+0x1ac>
9d007640:	afa20098 	sw	v0,152(sp)
9d007644:	8fa30090 	lw	v1,144(sp)
9d007648:	00021023 	negu	v0,v0
9d00764c:	afa20098 	sw	v0,152(sp)
9d007650:	38630001 	xori	v1,v1,0x1
9d007654:	afa30090 	sw	v1,144(sp)
9d007658:	8fa20090 	lw	v0,144(sp)
9d00765c:	30430001 	andi	v1,v0,0x1
9d007660:	10600002 	beqz	v1,9d00766c <__printf_core+0x1c0>
9d007664:	7c020844 	ins	v0,zero,0x1,0x1
9d007668:	afa20090 	sw	v0,144(sp)
9d00766c:	8fa200b0 	lw	v0,176(sp)
9d007670:	2403002e 	li	v1,46
9d007674:	80440000 	lb	a0,0(v0)
9d007678:	1483000d 	bne	a0,v1,9d0076b0 <__printf_core+0x204>
9d00767c:	24440001 	addiu	a0,v0,1
9d007680:	afa00094 	sw	zero,148(sp)
9d007684:	afa400b0 	sw	a0,176(sp)
9d007688:	80450001 	lb	a1,1(v0)
9d00768c:	2403002a 	li	v1,42
9d007690:	14a30023 	bne	a1,v1,9d007720 <__printf_core+0x274>
9d007694:	24420002 	addiu	v0,v0,2
9d007698:	afa200b0 	sw	v0,176(sp)
9d00769c:	8e220000 	lw	v0,0(s1)
9d0076a0:	24430004 	addiu	v1,v0,4
9d0076a4:	8c420000 	lw	v0,0(v0)
9d0076a8:	ae230000 	sw	v1,0(s1)
9d0076ac:	afa20094 	sw	v0,148(sp)
9d0076b0:	0f402439 	jal	9d0090e4 <__fmt_state>
9d0076b4:	27a400b0 	addiu	a0,sp,176
9d0076b8:	afa200b8 	sw	v0,184(sp)
9d0076bc:	8fa200b0 	lw	v0,176(sp)
9d0076c0:	0f402511 	jal	9d009444 <tolower>
9d0076c4:	80440000 	lb	a0,0(v0)
9d0076c8:	24030069 	li	v1,105
9d0076cc:	10430078 	beq	v0,v1,9d0078b0 <__printf_core+0x404>
9d0076d0:	8fa500b8 	lw	a1,184(sp)
9d0076d4:	2843006a 	slti	v1,v0,106
9d0076d8:	1060002e 	beqz	v1,9d007794 <__printf_core+0x2e8>
9d0076dc:	24030063 	li	v1,99
9d0076e0:	104300bc 	beq	v0,v1,9d0079d4 <__printf_core+0x528>
9d0076e4:	28430064 	slti	v1,v0,100
9d0076e8:	10600018 	beqz	v1,9d00774c <__printf_core+0x2a0>
9d0076ec:	24030064 	li	v1,100
9d0076f0:	105400c5 	beq	v0,s4,9d007a08 <__printf_core+0x55c>
9d0076f4:	24030061 	li	v1,97
9d0076f8:	5043004e 	beql	v0,v1,9d007834 <__printf_core+0x388>
9d0076fc:	02203025 	move	a2,s1
9d007700:	24020025 	li	v0,37
9d007704:	a3a200a8 	sb	v0,168(sp)
9d007708:	2402ffff 	li	v0,-1
9d00770c:	afb700b0 	sw	s7,176(sp)
9d007710:	afa00090 	sw	zero,144(sp)
9d007714:	afa00098 	sw	zero,152(sp)
9d007718:	100000b8 	b	9d0079fc <__printf_core+0x550>
9d00771c:	afa20094 	sw	v0,148(sp)
9d007720:	0f402403 	jal	9d00900c <atoi>
9d007724:	00000000 	nop
9d007728:	afa20094 	sw	v0,148(sp)
9d00772c:	8fa300b0 	lw	v1,176(sp)
9d007730:	80620000 	lb	v0,0(v1)
9d007734:	2442ffd0 	addiu	v0,v0,-48
9d007738:	2c42000a 	sltiu	v0,v0,10
9d00773c:	1040ffdc 	beqz	v0,9d0076b0 <__printf_core+0x204>
9d007740:	24630001 	addiu	v1,v1,1
9d007744:	1000fff9 	b	9d00772c <__printf_core+0x280>
9d007748:	afa300b0 	sw	v1,176(sp)
9d00774c:	10430058 	beq	v0,v1,9d0078b0 <__printf_core+0x404>
9d007750:	28420068 	slti	v0,v0,104
9d007754:	1040ffeb 	beqz	v0,9d007704 <__printf_core+0x258>
9d007758:	24020025 	li	v0,37
9d00775c:	02203025 	move	a2,s1
9d007760:	0f402464 	jal	9d009190 <__pop_float>
9d007764:	27a400a8 	addiu	a0,sp,168
9d007768:	10400096 	beqz	v0,9d0079c4 <__printf_core+0x518>
9d00776c:	8fa200b0 	lw	v0,176(sp)
9d007770:	27a600a8 	addiu	a2,sp,168
9d007774:	27a50090 	addiu	a1,sp,144
9d007778:	24430001 	addiu	v1,v0,1
9d00777c:	afa300b0 	sw	v1,176(sp)
9d007780:	80470000 	lb	a3,0(v0)
9d007784:	0f402550 	jal	9d009540 <__fmt_a>
9d007788:	02402025 	move	a0,s2
9d00778c:	10000035 	b	9d007864 <__printf_core+0x3b8>
9d007790:	02028021 	addu	s0,s0,v0
9d007794:	24030070 	li	v1,112
9d007798:	10430070 	beq	v0,v1,9d00795c <__printf_core+0x4b0>
9d00779c:	28430071 	slti	v1,v0,113
9d0077a0:	10600013 	beqz	v1,9d0077f0 <__printf_core+0x344>
9d0077a4:	2403006e 	li	v1,110
9d0077a8:	10430082 	beq	v0,v1,9d0079b4 <__printf_core+0x508>
9d0077ac:	2403006f 	li	v1,111
9d0077b0:	1443ffd4 	bne	v0,v1,9d007704 <__printf_core+0x258>
9d0077b4:	24020025 	li	v0,37
9d0077b8:	02203825 	move	a3,s1
9d0077bc:	00003025 	move	a2,zero
9d0077c0:	0f40215a 	jal	9d008568 <__pop_int>
9d0077c4:	27a400a8 	addiu	a0,sp,168
9d0077c8:	1040007e 	beqz	v0,9d0079c4 <__printf_core+0x518>
9d0077cc:	8fa200b0 	lw	v0,176(sp)
9d0077d0:	27a600a8 	addiu	a2,sp,168
9d0077d4:	27a50090 	addiu	a1,sp,144
9d0077d8:	24420001 	addiu	v0,v0,1
9d0077dc:	02402025 	move	a0,s2
9d0077e0:	0f40229f 	jal	9d008a7c <__fmt_o>
9d0077e4:	afa200b0 	sw	v0,176(sp)
9d0077e8:	1000001e 	b	9d007864 <__printf_core+0x3b8>
9d0077ec:	02028021 	addu	s0,s0,v0
9d0077f0:	24030075 	li	v1,117
9d0077f4:	1043003c 	beq	v0,v1,9d0078e8 <__printf_core+0x43c>
9d0077f8:	24030078 	li	v1,120
9d0077fc:	10430048 	beq	v0,v1,9d007920 <__printf_core+0x474>
9d007800:	24030073 	li	v1,115
9d007804:	1443ffbe 	bne	v0,v1,9d007700 <__printf_core+0x254>
9d007808:	24020080 	li	v0,128
9d00780c:	14a2006d 	bne	a1,v0,9d0079c4 <__printf_core+0x518>
9d007810:	8fa200b0 	lw	v0,176(sp)
9d007814:	00003825 	move	a3,zero
9d007818:	24420001 	addiu	v0,v0,1
9d00781c:	afa200b0 	sw	v0,176(sp)
9d007820:	8e220000 	lw	v0,0(s1)
9d007824:	24430004 	addiu	v1,v0,4
9d007828:	ae230000 	sw	v1,0(s1)
9d00782c:	1000005a 	b	9d007998 <__printf_core+0x4ec>
9d007830:	8c460000 	lw	a2,0(v0)
9d007834:	0f402464 	jal	9d009190 <__pop_float>
9d007838:	27a400a8 	addiu	a0,sp,168
9d00783c:	10400061 	beqz	v0,9d0079c4 <__printf_core+0x518>
9d007840:	8fa200b0 	lw	v0,176(sp)
9d007844:	27a600a8 	addiu	a2,sp,168
9d007848:	27a50090 	addiu	a1,sp,144
9d00784c:	24430001 	addiu	v1,v0,1
9d007850:	afa300b0 	sw	v1,176(sp)
9d007854:	80470000 	lb	a3,0(v0)
9d007858:	0f402550 	jal	9d009540 <__fmt_a>
9d00785c:	02402025 	move	a0,s2
9d007860:	02028021 	addu	s0,s0,v0
9d007864:	02708021 	addu	s0,s3,s0
9d007868:	0213982a 	slt	s3,s0,s3
9d00786c:	1260006d 	beqz	s3,9d007a24 <__printf_core+0x578>
9d007870:	3c02a000 	lui	v0,0xa000
9d007874:	2403004f 	li	v1,79
9d007878:	ac430000 	sw	v1,0(v0)
9d00787c:	2413ffff 	li	s3,-1
9d007880:	8fbf00e4 	lw	ra,228(sp)
9d007884:	02601025 	move	v0,s3
9d007888:	8fb700e0 	lw	s7,224(sp)
9d00788c:	8fb600dc 	lw	s6,220(sp)
9d007890:	8fb500d8 	lw	s5,216(sp)
9d007894:	8fb400d4 	lw	s4,212(sp)
9d007898:	8fb300d0 	lw	s3,208(sp)
9d00789c:	8fb200cc 	lw	s2,204(sp)
9d0078a0:	8fb100c8 	lw	s1,200(sp)
9d0078a4:	8fb000c4 	lw	s0,196(sp)
9d0078a8:	03e00008 	jr	ra
9d0078ac:	27bd00e8 	addiu	sp,sp,232
9d0078b0:	02203825 	move	a3,s1
9d0078b4:	24060001 	li	a2,1
9d0078b8:	0f40215a 	jal	9d008568 <__pop_int>
9d0078bc:	27a400a8 	addiu	a0,sp,168
9d0078c0:	10400040 	beqz	v0,9d0079c4 <__printf_core+0x518>
9d0078c4:	8fa200b0 	lw	v0,176(sp)
9d0078c8:	27a600a8 	addiu	a2,sp,168
9d0078cc:	27a50090 	addiu	a1,sp,144
9d0078d0:	24420001 	addiu	v0,v0,1
9d0078d4:	02402025 	move	a0,s2
9d0078d8:	0f4021bc 	jal	9d0086f0 <__fmt_d>
9d0078dc:	afa200b0 	sw	v0,176(sp)
9d0078e0:	1000ffe0 	b	9d007864 <__printf_core+0x3b8>
9d0078e4:	02028021 	addu	s0,s0,v0
9d0078e8:	02203825 	move	a3,s1
9d0078ec:	00003025 	move	a2,zero
9d0078f0:	0f40215a 	jal	9d008568 <__pop_int>
9d0078f4:	27a400a8 	addiu	a0,sp,168
9d0078f8:	10400032 	beqz	v0,9d0079c4 <__printf_core+0x518>
9d0078fc:	8fa200b0 	lw	v0,176(sp)
9d007900:	27a600a8 	addiu	a2,sp,168
9d007904:	27a50090 	addiu	a1,sp,144
9d007908:	24420001 	addiu	v0,v0,1
9d00790c:	02402025 	move	a0,s2
9d007910:	0f40234c 	jal	9d008d30 <__fmt_u>
9d007914:	afa200b0 	sw	v0,176(sp)
9d007918:	1000ffd2 	b	9d007864 <__printf_core+0x3b8>
9d00791c:	02028021 	addu	s0,s0,v0
9d007920:	02203825 	move	a3,s1
9d007924:	00003025 	move	a2,zero
9d007928:	0f40215a 	jal	9d008568 <__pop_int>
9d00792c:	27a400a8 	addiu	a0,sp,168
9d007930:	10400024 	beqz	v0,9d0079c4 <__printf_core+0x518>
9d007934:	8fa200b0 	lw	v0,176(sp)
9d007938:	24430001 	addiu	v1,v0,1
9d00793c:	afa300b0 	sw	v1,176(sp)
9d007940:	80470000 	lb	a3,0(v0)
9d007944:	27a600a8 	addiu	a2,sp,168
9d007948:	27a50090 	addiu	a1,sp,144
9d00794c:	0f402068 	jal	9d0081a0 <__fmt_x>
9d007950:	02402025 	move	a0,s2
9d007954:	1000ffc3 	b	9d007864 <__printf_core+0x3b8>
9d007958:	02028021 	addu	s0,s0,v0
9d00795c:	02203825 	move	a3,s1
9d007960:	00003025 	move	a2,zero
9d007964:	240500f0 	li	a1,240
9d007968:	0f40215a 	jal	9d008568 <__pop_int>
9d00796c:	27a400a8 	addiu	a0,sp,168
9d007970:	10400014 	beqz	v0,9d0079c4 <__printf_core+0x518>
9d007974:	8fa200b0 	lw	v0,176(sp)
9d007978:	8fa300ac 	lw	v1,172(sp)
9d00797c:	24420001 	addiu	v0,v0,1
9d007980:	afa200b0 	sw	v0,176(sp)
9d007984:	8fa200a8 	lw	v0,168(sp)
9d007988:	00431025 	or	v0,v0,v1
9d00798c:	14400007 	bnez	v0,9d0079ac <__printf_core+0x500>
9d007990:	02a03025 	move	a2,s5
9d007994:	00003825 	move	a3,zero
9d007998:	27a50090 	addiu	a1,sp,144
9d00799c:	0f40237b 	jal	9d008dec <__fmt_s>
9d0079a0:	02402025 	move	a0,s2
9d0079a4:	1000ffaf 	b	9d007864 <__printf_core+0x3b8>
9d0079a8:	02028021 	addu	s0,s0,v0
9d0079ac:	1000ffe5 	b	9d007944 <__printf_core+0x498>
9d0079b0:	24070078 	li	a3,120
9d0079b4:	02203825 	move	a3,s1
9d0079b8:	02703021 	addu	a2,s3,s0
9d0079bc:	0f4022dc 	jal	9d008b70 <__pop_ptr>
9d0079c0:	27a400a8 	addiu	a0,sp,168
9d0079c4:	8fa200b0 	lw	v0,176(sp)
9d0079c8:	24420001 	addiu	v0,v0,1
9d0079cc:	1000ffa5 	b	9d007864 <__printf_core+0x3b8>
9d0079d0:	afa200b0 	sw	v0,176(sp)
9d0079d4:	24020080 	li	v0,128
9d0079d8:	14a2fffa 	bne	a1,v0,9d0079c4 <__printf_core+0x518>
9d0079dc:	8fa200b0 	lw	v0,176(sp)
9d0079e0:	24420001 	addiu	v0,v0,1
9d0079e4:	afa200b0 	sw	v0,176(sp)
9d0079e8:	8e220000 	lw	v0,0(s1)
9d0079ec:	24430004 	addiu	v1,v0,4
9d0079f0:	8c420000 	lw	v0,0(v0)
9d0079f4:	ae230000 	sw	v1,0(s1)
9d0079f8:	a3a200a8 	sb	v0,168(sp)
9d0079fc:	24070001 	li	a3,1
9d007a00:	1000ffe5 	b	9d007998 <__printf_core+0x4ec>
9d007a04:	27a600a8 	addiu	a2,sp,168
9d007a08:	24020080 	li	v0,128
9d007a0c:	14a2ffed 	bne	a1,v0,9d0079c4 <__printf_core+0x518>
9d007a10:	8fa200b0 	lw	v0,176(sp)
9d007a14:	a3b400a8 	sb	s4,168(sp)
9d007a18:	24420001 	addiu	v0,v0,1
9d007a1c:	1000fff7 	b	9d0079fc <__printf_core+0x550>
9d007a20:	afa200b0 	sw	v0,176(sp)
9d007a24:	1000feb3 	b	9d0074f4 <__printf_core+0x48>
9d007a28:	02009825 	move	s3,s0

Disassembly of section .text:

9d007a2c <__udivdi3>:
9d007a2c:	00c04025 	move	t0,a2
9d007a30:	00e01825 	move	v1,a3
9d007a34:	00805025 	move	t2,a0
9d007a38:	14e00098 	bnez	a3,9d007c9c <__udivdi3+0x270>
9d007a3c:	00a01025 	move	v0,a1
9d007a40:	00a6302b 	sltu	a2,a1,a2
9d007a44:	10c00035 	beqz	a2,9d007b1c <__udivdi3+0xf0>
9d007a48:	00000000 	nop
9d007a4c:	71052820 	clz	a1,t0
9d007a50:	10a00006 	beqz	a1,9d007a6c <__udivdi3+0x40>
9d007a54:	00052023 	negu	a0,a1
9d007a58:	008a2006 	srlv	a0,t2,a0
9d007a5c:	00a21004 	sllv	v0,v0,a1
9d007a60:	00a84004 	sllv	t0,t0,a1
9d007a64:	00821025 	or	v0,a0,v0
9d007a68:	00aa5004 	sllv	t2,t2,a1
9d007a6c:	00083402 	srl	a2,t0,0x10
9d007a70:	0046001b 	divu	zero,v0,a2
9d007a74:	00c001f4 	teq	a2,zero,0x7
9d007a78:	3105ffff 	andi	a1,t0,0xffff
9d007a7c:	000a2402 	srl	a0,t2,0x10
9d007a80:	00003812 	mflo	a3
9d007a84:	00001010 	mfhi	v0
9d007a88:	00021400 	sll	v0,v0,0x10
9d007a8c:	00442025 	or	a0,v0,a0
9d007a90:	70a74802 	mul	t1,a1,a3
9d007a94:	0089582b 	sltu	t3,a0,t1
9d007a98:	1160000a 	beqz	t3,9d007ac4 <__udivdi3+0x98>
9d007a9c:	00e01025 	move	v0,a3
9d007aa0:	00882021 	addu	a0,a0,t0
9d007aa4:	0088582b 	sltu	t3,a0,t0
9d007aa8:	15600006 	bnez	t3,9d007ac4 <__udivdi3+0x98>
9d007aac:	24e2ffff 	addiu	v0,a3,-1
9d007ab0:	0089582b 	sltu	t3,a0,t1
9d007ab4:	51600004 	beqzl	t3,9d007ac8 <__udivdi3+0x9c>
9d007ab8:	00892023 	subu	a0,a0,t1
9d007abc:	24e2fffe 	addiu	v0,a3,-2
9d007ac0:	00882021 	addu	a0,a0,t0
9d007ac4:	00892023 	subu	a0,a0,t1
9d007ac8:	0086001b 	divu	zero,a0,a2
9d007acc:	00c001f4 	teq	a2,zero,0x7
9d007ad0:	00003010 	mfhi	a2
9d007ad4:	00063400 	sll	a2,a2,0x10
9d007ad8:	00002012 	mflo	a0
9d007adc:	70a43802 	mul	a3,a1,a0
9d007ae0:	3145ffff 	andi	a1,t2,0xffff
9d007ae4:	00c52825 	or	a1,a2,a1
9d007ae8:	00a7482b 	sltu	t1,a1,a3
9d007aec:	11200008 	beqz	t1,9d007b10 <__udivdi3+0xe4>
9d007af0:	00803025 	move	a2,a0
9d007af4:	01052821 	addu	a1,t0,a1
9d007af8:	00a8402b 	sltu	t0,a1,t0
9d007afc:	15000004 	bnez	t0,9d007b10 <__udivdi3+0xe4>
9d007b00:	2486ffff 	addiu	a2,a0,-1
9d007b04:	00a7282b 	sltu	a1,a1,a3
9d007b08:	54a00001 	bnezl	a1,9d007b10 <__udivdi3+0xe4>
9d007b0c:	2486fffe 	addiu	a2,a0,-2
9d007b10:	00021400 	sll	v0,v0,0x10
9d007b14:	03e00008 	jr	ra
9d007b18:	00461025 	or	v0,v0,a2
9d007b1c:	15000004 	bnez	t0,9d007b30 <__udivdi3+0x104>
9d007b20:	24020001 	li	v0,1
9d007b24:	0048001b 	divu	zero,v0,t0
9d007b28:	010001f4 	teq	t0,zero,0x7
9d007b2c:	00004012 	mflo	t0
9d007b30:	710b5820 	clz	t3,t0
9d007b34:	15600023 	bnez	t3,9d007bc4 <__udivdi3+0x198>
9d007b38:	24070020 	li	a3,32
9d007b3c:	00a82823 	subu	a1,a1,t0
9d007b40:	24030001 	li	v1,1
9d007b44:	00083402 	srl	a2,t0,0x10
9d007b48:	00a6001b 	divu	zero,a1,a2
9d007b4c:	00c001f4 	teq	a2,zero,0x7
9d007b50:	3107ffff 	andi	a3,t0,0xffff
9d007b54:	000a2402 	srl	a0,t2,0x10
9d007b58:	00002812 	mflo	a1
9d007b5c:	00001010 	mfhi	v0
9d007b60:	00021400 	sll	v0,v0,0x10
9d007b64:	00442025 	or	a0,v0,a0
9d007b68:	70e54802 	mul	t1,a3,a1
9d007b6c:	0089582b 	sltu	t3,a0,t1
9d007b70:	1160000a 	beqz	t3,9d007b9c <__udivdi3+0x170>
9d007b74:	00a01025 	move	v0,a1
9d007b78:	00882021 	addu	a0,a0,t0
9d007b7c:	0088582b 	sltu	t3,a0,t0
9d007b80:	15600006 	bnez	t3,9d007b9c <__udivdi3+0x170>
9d007b84:	24a2ffff 	addiu	v0,a1,-1
9d007b88:	0089582b 	sltu	t3,a0,t1
9d007b8c:	51600004 	beqzl	t3,9d007ba0 <__udivdi3+0x174>
9d007b90:	00892023 	subu	a0,a0,t1
9d007b94:	24a2fffe 	addiu	v0,a1,-2
9d007b98:	00882021 	addu	a0,a0,t0
9d007b9c:	00892023 	subu	a0,a0,t1
9d007ba0:	0086001b 	divu	zero,a0,a2
9d007ba4:	00c001f4 	teq	a2,zero,0x7
9d007ba8:	314affff 	andi	t2,t2,0xffff
9d007bac:	00002810 	mfhi	a1
9d007bb0:	00052c00 	sll	a1,a1,0x10
9d007bb4:	00aa2825 	or	a1,a1,t2
9d007bb8:	00002012 	mflo	a0
9d007bbc:	1000ffca 	b	9d007ae8 <__udivdi3+0xbc>
9d007bc0:	70e43802 	mul	a3,a3,a0
9d007bc4:	00eb3823 	subu	a3,a3,t3
9d007bc8:	01684004 	sllv	t0,t0,t3
9d007bcc:	00e44806 	srlv	t1,a0,a3
9d007bd0:	00083402 	srl	a2,t0,0x10
9d007bd4:	00e53806 	srlv	a3,a1,a3
9d007bd8:	00e6001b 	divu	zero,a3,a2
9d007bdc:	00c001f4 	teq	a2,zero,0x7
9d007be0:	01651004 	sllv	v0,a1,t3
9d007be4:	01224825 	or	t1,t1,v0
9d007be8:	3102ffff 	andi	v0,t0,0xffff
9d007bec:	00091c02 	srl	v1,t1,0x10
9d007bf0:	00002812 	mflo	a1
9d007bf4:	00003810 	mfhi	a3
9d007bf8:	00073c00 	sll	a3,a3,0x10
9d007bfc:	00e33825 	or	a3,a3,v1
9d007c00:	70455002 	mul	t2,v0,a1
9d007c04:	00ea602b 	sltu	t4,a3,t2
9d007c08:	1180000a 	beqz	t4,9d007c34 <__udivdi3+0x208>
9d007c0c:	00a01825 	move	v1,a1
9d007c10:	00e83821 	addu	a3,a3,t0
9d007c14:	00e8602b 	sltu	t4,a3,t0
9d007c18:	15800006 	bnez	t4,9d007c34 <__udivdi3+0x208>
9d007c1c:	24a3ffff 	addiu	v1,a1,-1
9d007c20:	00ea602b 	sltu	t4,a3,t2
9d007c24:	51800004 	beqzl	t4,9d007c38 <__udivdi3+0x20c>
9d007c28:	00ea3823 	subu	a3,a3,t2
9d007c2c:	24a3fffe 	addiu	v1,a1,-2
9d007c30:	00e83821 	addu	a3,a3,t0
9d007c34:	00ea3823 	subu	a3,a3,t2
9d007c38:	00e6001b 	divu	zero,a3,a2
9d007c3c:	00c001f4 	teq	a2,zero,0x7
9d007c40:	3125ffff 	andi	a1,t1,0xffff
9d007c44:	00003012 	mflo	a2
9d007c48:	00003810 	mfhi	a3
9d007c4c:	00073c00 	sll	a3,a3,0x10
9d007c50:	00e52825 	or	a1,a3,a1
9d007c54:	70461002 	mul	v0,v0,a2
9d007c58:	00a2482b 	sltu	t1,a1,v0
9d007c5c:	1120000a 	beqz	t1,9d007c88 <__udivdi3+0x25c>
9d007c60:	00c03825 	move	a3,a2
9d007c64:	00a82821 	addu	a1,a1,t0
9d007c68:	00a8482b 	sltu	t1,a1,t0
9d007c6c:	15200006 	bnez	t1,9d007c88 <__udivdi3+0x25c>
9d007c70:	24c7ffff 	addiu	a3,a2,-1
9d007c74:	00a2482b 	sltu	t1,a1,v0
9d007c78:	51200004 	beqzl	t1,9d007c8c <__udivdi3+0x260>
9d007c7c:	00031c00 	sll	v1,v1,0x10
9d007c80:	24c7fffe 	addiu	a3,a2,-2
9d007c84:	00a82821 	addu	a1,a1,t0
9d007c88:	00031c00 	sll	v1,v1,0x10
9d007c8c:	01645004 	sllv	t2,a0,t3
9d007c90:	00a22823 	subu	a1,a1,v0
9d007c94:	1000ffab 	b	9d007b44 <__udivdi3+0x118>
9d007c98:	00671825 	or	v1,v1,a3
9d007c9c:	00a7402b 	sltu	t0,a1,a3
9d007ca0:	00001825 	move	v1,zero
9d007ca4:	1500004e 	bnez	t0,9d007de0 <__udivdi3+0x3b4>
9d007ca8:	00001025 	move	v0,zero
9d007cac:	70ea5020 	clz	t2,a3
9d007cb0:	15400007 	bnez	t2,9d007cd0 <__udivdi3+0x2a4>
9d007cb4:	24090020 	li	t1,32
9d007cb8:	00e5282b 	sltu	a1,a3,a1
9d007cbc:	14a00048 	bnez	a1,9d007de0 <__udivdi3+0x3b4>
9d007cc0:	24020001 	li	v0,1
9d007cc4:	0086102b 	sltu	v0,a0,a2
9d007cc8:	03e00008 	jr	ra
9d007ccc:	38420001 	xori	v0,v0,0x1
9d007cd0:	012a4823 	subu	t1,t1,t2
9d007cd4:	01261006 	srlv	v0,a2,t1
9d007cd8:	01473804 	sllv	a3,a3,t2
9d007cdc:	00473825 	or	a3,v0,a3
9d007ce0:	01451804 	sllv	v1,a1,t2
9d007ce4:	00074402 	srl	t0,a3,0x10
9d007ce8:	01252806 	srlv	a1,a1,t1
9d007cec:	00a8001b 	divu	zero,a1,t0
9d007cf0:	010001f4 	teq	t0,zero,0x7
9d007cf4:	30ebffff 	andi	t3,a3,0xffff
9d007cf8:	01241006 	srlv	v0,a0,t1
9d007cfc:	00431025 	or	v0,v0,v1
9d007d00:	00021c02 	srl	v1,v0,0x10
9d007d04:	00002812 	mflo	a1
9d007d08:	00004810 	mfhi	t1
9d007d0c:	00094c00 	sll	t1,t1,0x10
9d007d10:	01234825 	or	t1,t1,v1
9d007d14:	71656002 	mul	t4,t3,a1
9d007d18:	012c682b 	sltu	t5,t1,t4
9d007d1c:	11a0000a 	beqz	t5,9d007d48 <__udivdi3+0x31c>
9d007d20:	00a01825 	move	v1,a1
9d007d24:	01274821 	addu	t1,t1,a3
9d007d28:	0127682b 	sltu	t5,t1,a3
9d007d2c:	15a00006 	bnez	t5,9d007d48 <__udivdi3+0x31c>
9d007d30:	24a3ffff 	addiu	v1,a1,-1
9d007d34:	012c682b 	sltu	t5,t1,t4
9d007d38:	51a00004 	beqzl	t5,9d007d4c <__udivdi3+0x320>
9d007d3c:	012c4823 	subu	t1,t1,t4
9d007d40:	24a3fffe 	addiu	v1,a1,-2
9d007d44:	01274821 	addu	t1,t1,a3
9d007d48:	012c4823 	subu	t1,t1,t4
9d007d4c:	0128001b 	divu	zero,t1,t0
9d007d50:	010001f4 	teq	t0,zero,0x7
9d007d54:	3045ffff 	andi	a1,v0,0xffff
9d007d58:	00004012 	mflo	t0
9d007d5c:	00004810 	mfhi	t1
9d007d60:	00094c00 	sll	t1,t1,0x10
9d007d64:	01252825 	or	a1,t1,a1
9d007d68:	71685802 	mul	t3,t3,t0
9d007d6c:	00ab102b 	sltu	v0,a1,t3
9d007d70:	1040000a 	beqz	v0,9d007d9c <__udivdi3+0x370>
9d007d74:	01004825 	move	t1,t0
9d007d78:	00a72821 	addu	a1,a1,a3
9d007d7c:	00a7102b 	sltu	v0,a1,a3
9d007d80:	14400006 	bnez	v0,9d007d9c <__udivdi3+0x370>
9d007d84:	2509ffff 	addiu	t1,t0,-1
9d007d88:	00ab102b 	sltu	v0,a1,t3
9d007d8c:	10400004 	beqz	v0,9d007da0 <__udivdi3+0x374>
9d007d90:	00031400 	sll	v0,v1,0x10
9d007d94:	2509fffe 	addiu	t1,t0,-2
9d007d98:	00a72821 	addu	a1,a1,a3
9d007d9c:	00031400 	sll	v0,v1,0x10
9d007da0:	01463004 	sllv	a2,a2,t2
9d007da4:	00491025 	or	v0,v0,t1
9d007da8:	00c20019 	multu	a2,v0
9d007dac:	00ab2823 	subu	a1,a1,t3
9d007db0:	00003810 	mfhi	a3
9d007db4:	00a7182b 	sltu	v1,a1,a3
9d007db8:	14600007 	bnez	v1,9d007dd8 <__udivdi3+0x3ac>
9d007dbc:	00003012 	mflo	a2
9d007dc0:	14a70007 	bne	a1,a3,9d007de0 <__udivdi3+0x3b4>
9d007dc4:	00001825 	move	v1,zero
9d007dc8:	01442004 	sllv	a0,a0,t2
9d007dcc:	0086202b 	sltu	a0,a0,a2
9d007dd0:	10800003 	beqz	a0,9d007de0 <__udivdi3+0x3b4>
9d007dd4:	00000000 	nop
9d007dd8:	2442ffff 	addiu	v0,v0,-1
9d007ddc:	00001825 	move	v1,zero
9d007de0:	03e00008 	jr	ra
9d007de4:	00000000 	nop

9d007de8 <__umoddi3>:
9d007de8:	00c04825 	move	t1,a2
9d007dec:	00801025 	move	v0,a0
9d007df0:	14e0008b 	bnez	a3,9d008020 <__umoddi3+0x238>
9d007df4:	00a01825 	move	v1,a1
9d007df8:	00a6302b 	sltu	a2,a1,a2
9d007dfc:	10c00033 	beqz	a2,9d007ecc <__umoddi3+0xe4>
9d007e00:	712a5020 	clz	t2,t1
9d007e04:	11400008 	beqz	t2,9d007e28 <__umoddi3+0x40>
9d007e08:	00095c02 	srl	t3,t1,0x10
9d007e0c:	01451804 	sllv	v1,a1,t2
9d007e10:	000a2823 	negu	a1,t2
9d007e14:	00a42806 	srlv	a1,a0,a1
9d007e18:	01494804 	sllv	t1,t1,t2
9d007e1c:	00a31825 	or	v1,a1,v1
9d007e20:	01441004 	sllv	v0,a0,t2
9d007e24:	00095c02 	srl	t3,t1,0x10
9d007e28:	006b001b 	divu	zero,v1,t3
9d007e2c:	016001f4 	teq	t3,zero,0x7
9d007e30:	3124ffff 	andi	a0,t1,0xffff
9d007e34:	00001812 	mflo	v1
9d007e38:	00002810 	mfhi	a1
9d007e3c:	70643002 	mul	a2,v1,a0
9d007e40:	00051c00 	sll	v1,a1,0x10
9d007e44:	00022c02 	srl	a1,v0,0x10
9d007e48:	00651825 	or	v1,v1,a1
9d007e4c:	0066282b 	sltu	a1,v1,a2
9d007e50:	50a00008 	beqzl	a1,9d007e74 <__umoddi3+0x8c>
9d007e54:	00661823 	subu	v1,v1,a2
9d007e58:	00691821 	addu	v1,v1,t1
9d007e5c:	0069282b 	sltu	a1,v1,t1
9d007e60:	14a00003 	bnez	a1,9d007e70 <__umoddi3+0x88>
9d007e64:	0066282b 	sltu	a1,v1,a2
9d007e68:	54a00001 	bnezl	a1,9d007e70 <__umoddi3+0x88>
9d007e6c:	00691821 	addu	v1,v1,t1
9d007e70:	00661823 	subu	v1,v1,a2
9d007e74:	006b001b 	divu	zero,v1,t3
9d007e78:	016001f4 	teq	t3,zero,0x7
9d007e7c:	3042ffff 	andi	v0,v0,0xffff
9d007e80:	00003010 	mfhi	a2
9d007e84:	00001812 	mflo	v1
9d007e88:	70645802 	mul	t3,v1,a0
9d007e8c:	00061c00 	sll	v1,a2,0x10
9d007e90:	00621025 	or	v0,v1,v0
9d007e94:	004b182b 	sltu	v1,v0,t3
9d007e98:	50600009 	beqzl	v1,9d007ec0 <__umoddi3+0xd8>
9d007e9c:	004b1023 	subu	v0,v0,t3
9d007ea0:	00491021 	addu	v0,v0,t1
9d007ea4:	0049182b 	sltu	v1,v0,t1
9d007ea8:	54600005 	bnezl	v1,9d007ec0 <__umoddi3+0xd8>
9d007eac:	004b1023 	subu	v0,v0,t3
9d007eb0:	004b182b 	sltu	v1,v0,t3
9d007eb4:	54600001 	bnezl	v1,9d007ebc <__umoddi3+0xd4>
9d007eb8:	00491021 	addu	v0,v0,t1
9d007ebc:	004b1023 	subu	v0,v0,t3
9d007ec0:	01421006 	srlv	v0,v0,t2
9d007ec4:	03e00008 	jr	ra
9d007ec8:	00001825 	move	v1,zero
9d007ecc:	15200004 	bnez	t1,9d007ee0 <__umoddi3+0xf8>
9d007ed0:	24030001 	li	v1,1
9d007ed4:	0069001b 	divu	zero,v1,t1
9d007ed8:	012001f4 	teq	t1,zero,0x7
9d007edc:	00004812 	mflo	t1
9d007ee0:	712a5020 	clz	t2,t1
9d007ee4:	1540001f 	bnez	t2,9d007f64 <__umoddi3+0x17c>
9d007ee8:	24070020 	li	a3,32
9d007eec:	00a92823 	subu	a1,a1,t1
9d007ef0:	00095c02 	srl	t3,t1,0x10
9d007ef4:	00ab001b 	divu	zero,a1,t3
9d007ef8:	016001f4 	teq	t3,zero,0x7
9d007efc:	3124ffff 	andi	a0,t1,0xffff
9d007f00:	00002812 	mflo	a1
9d007f04:	00001810 	mfhi	v1
9d007f08:	70a43002 	mul	a2,a1,a0
9d007f0c:	00032c00 	sll	a1,v1,0x10
9d007f10:	00021c02 	srl	v1,v0,0x10
9d007f14:	00a32825 	or	a1,a1,v1
9d007f18:	00a6182b 	sltu	v1,a1,a2
9d007f1c:	50600008 	beqzl	v1,9d007f40 <__umoddi3+0x158>
9d007f20:	00a63023 	subu	a2,a1,a2
9d007f24:	00a92821 	addu	a1,a1,t1
9d007f28:	00a9182b 	sltu	v1,a1,t1
9d007f2c:	14600003 	bnez	v1,9d007f3c <__umoddi3+0x154>
9d007f30:	00a6182b 	sltu	v1,a1,a2
9d007f34:	54600001 	bnezl	v1,9d007f3c <__umoddi3+0x154>
9d007f38:	00a92821 	addu	a1,a1,t1
9d007f3c:	00a63023 	subu	a2,a1,a2
9d007f40:	00cb001b 	divu	zero,a2,t3
9d007f44:	016001f4 	teq	t3,zero,0x7
9d007f48:	3042ffff 	andi	v0,v0,0xffff
9d007f4c:	00002810 	mfhi	a1
9d007f50:	00003012 	mflo	a2
9d007f54:	70c45802 	mul	t3,a2,a0
9d007f58:	00053400 	sll	a2,a1,0x10
9d007f5c:	1000ffcd 	b	9d007e94 <__umoddi3+0xac>
9d007f60:	00c21025 	or	v0,a2,v0
9d007f64:	00ea3823 	subu	a3,a3,t2
9d007f68:	01494804 	sllv	t1,t1,t2
9d007f6c:	00e41806 	srlv	v1,a0,a3
9d007f70:	00093402 	srl	a2,t1,0x10
9d007f74:	00e53806 	srlv	a3,a1,a3
9d007f78:	00e6001b 	divu	zero,a3,a2
9d007f7c:	00c001f4 	teq	a2,zero,0x7
9d007f80:	01451004 	sllv	v0,a1,t2
9d007f84:	3128ffff 	andi	t0,t1,0xffff
9d007f88:	00621825 	or	v1,v1,v0
9d007f8c:	00032c02 	srl	a1,v1,0x10
9d007f90:	00003812 	mflo	a3
9d007f94:	00006010 	mfhi	t4
9d007f98:	70e81002 	mul	v0,a3,t0
9d007f9c:	000c3c00 	sll	a3,t4,0x10
9d007fa0:	00e53825 	or	a3,a3,a1
9d007fa4:	00e2282b 	sltu	a1,a3,v0
9d007fa8:	50a00008 	beqzl	a1,9d007fcc <__umoddi3+0x1e4>
9d007fac:	00e23823 	subu	a3,a3,v0
9d007fb0:	00e93821 	addu	a3,a3,t1
9d007fb4:	00e9282b 	sltu	a1,a3,t1
9d007fb8:	14a00003 	bnez	a1,9d007fc8 <__umoddi3+0x1e0>
9d007fbc:	00e2282b 	sltu	a1,a3,v0
9d007fc0:	54a00001 	bnezl	a1,9d007fc8 <__umoddi3+0x1e0>
9d007fc4:	00e93821 	addu	a3,a3,t1
9d007fc8:	00e23823 	subu	a3,a3,v0
9d007fcc:	00e6001b 	divu	zero,a3,a2
9d007fd0:	00c001f4 	teq	a2,zero,0x7
9d007fd4:	3065ffff 	andi	a1,v1,0xffff
9d007fd8:	00003012 	mflo	a2
9d007fdc:	00003810 	mfhi	a3
9d007fe0:	00073c00 	sll	a3,a3,0x10
9d007fe4:	00e52825 	or	a1,a3,a1
9d007fe8:	70c83002 	mul	a2,a2,t0
9d007fec:	00a6102b 	sltu	v0,a1,a2
9d007ff0:	10400009 	beqz	v0,9d008018 <__umoddi3+0x230>
9d007ff4:	01441004 	sllv	v0,a0,t2
9d007ff8:	00a92821 	addu	a1,a1,t1
9d007ffc:	00a9102b 	sltu	v0,a1,t1
9d008000:	14400005 	bnez	v0,9d008018 <__umoddi3+0x230>
9d008004:	01441004 	sllv	v0,a0,t2
9d008008:	00a6102b 	sltu	v0,a1,a2
9d00800c:	54400001 	bnezl	v0,9d008014 <__umoddi3+0x22c>
9d008010:	00a92821 	addu	a1,a1,t1
9d008014:	01441004 	sllv	v0,a0,t2
9d008018:	1000ffb5 	b	9d007ef0 <__umoddi3+0x108>
9d00801c:	00a62823 	subu	a1,a1,a2
9d008020:	00a7402b 	sltu	t0,a1,a3
9d008024:	1500005c 	bnez	t0,9d008198 <__umoddi3+0x3b0>
9d008028:	70ee7020 	clz	t6,a3
9d00802c:	15c0000a 	bnez	t6,9d008058 <__umoddi3+0x270>
9d008030:	00e5402b 	sltu	t0,a3,a1
9d008034:	15000003 	bnez	t0,9d008044 <__umoddi3+0x25c>
9d008038:	0086402b 	sltu	t0,a0,a2
9d00803c:	15000056 	bnez	t0,9d008198 <__umoddi3+0x3b0>
9d008040:	00000000 	nop
9d008044:	00861023 	subu	v0,a0,a2
9d008048:	00a72823 	subu	a1,a1,a3
9d00804c:	0082182b 	sltu	v1,a0,v0
9d008050:	03e00008 	jr	ra
9d008054:	00a31823 	subu	v1,a1,v1
9d008058:	240b0020 	li	t3,32
9d00805c:	016e5823 	subu	t3,t3,t6
9d008060:	01666006 	srlv	t4,a2,t3
9d008064:	01c73804 	sllv	a3,a3,t6
9d008068:	01873825 	or	a3,t4,a3
9d00806c:	01c54004 	sllv	t0,a1,t6
9d008070:	00074c02 	srl	t1,a3,0x10
9d008074:	01652806 	srlv	a1,a1,t3
9d008078:	00a9001b 	divu	zero,a1,t1
9d00807c:	012001f4 	teq	t1,zero,0x7
9d008080:	01641006 	srlv	v0,a0,t3
9d008084:	00481025 	or	v0,v0,t0
9d008088:	30e8ffff 	andi	t0,a3,0xffff
9d00808c:	00026402 	srl	t4,v0,0x10
9d008090:	00002812 	mflo	a1
9d008094:	00005010 	mfhi	t2
9d008098:	000a5400 	sll	t2,t2,0x10
9d00809c:	014c5025 	or	t2,t2,t4
9d0080a0:	71051802 	mul	v1,t0,a1
9d0080a4:	0143602b 	sltu	t4,t2,v1
9d0080a8:	1180000a 	beqz	t4,9d0080d4 <__umoddi3+0x2ec>
9d0080ac:	00a06825 	move	t5,a1
9d0080b0:	01475021 	addu	t2,t2,a3
9d0080b4:	0147602b 	sltu	t4,t2,a3
9d0080b8:	15800006 	bnez	t4,9d0080d4 <__umoddi3+0x2ec>
9d0080bc:	24adffff 	addiu	t5,a1,-1
9d0080c0:	0143602b 	sltu	t4,t2,v1
9d0080c4:	51800004 	beqzl	t4,9d0080d8 <__umoddi3+0x2f0>
9d0080c8:	01435023 	subu	t2,t2,v1
9d0080cc:	24adfffe 	addiu	t5,a1,-2
9d0080d0:	01475021 	addu	t2,t2,a3
9d0080d4:	01435023 	subu	t2,t2,v1
9d0080d8:	0149001b 	divu	zero,t2,t1
9d0080dc:	012001f4 	teq	t1,zero,0x7
9d0080e0:	00004812 	mflo	t1
9d0080e4:	00005010 	mfhi	t2
9d0080e8:	000a5400 	sll	t2,t2,0x10
9d0080ec:	71092802 	mul	a1,t0,t1
9d0080f0:	3048ffff 	andi	t0,v0,0xffff
9d0080f4:	01484025 	or	t0,t2,t0
9d0080f8:	0105102b 	sltu	v0,t0,a1
9d0080fc:	1040000a 	beqz	v0,9d008128 <__umoddi3+0x340>
9d008100:	01205025 	move	t2,t1
9d008104:	01074021 	addu	t0,t0,a3
9d008108:	0107102b 	sltu	v0,t0,a3
9d00810c:	14400006 	bnez	v0,9d008128 <__umoddi3+0x340>
9d008110:	252affff 	addiu	t2,t1,-1
9d008114:	0105102b 	sltu	v0,t0,a1
9d008118:	10400004 	beqz	v0,9d00812c <__umoddi3+0x344>
9d00811c:	000d6400 	sll	t4,t5,0x10
9d008120:	252afffe 	addiu	t2,t1,-2
9d008124:	01074021 	addu	t0,t0,a3
9d008128:	000d6400 	sll	t4,t5,0x10
9d00812c:	01c61004 	sllv	v0,a2,t6
9d008130:	018a6025 	or	t4,t4,t2
9d008134:	01820019 	multu	t4,v0
9d008138:	01054023 	subu	t0,t0,a1
9d00813c:	01c41804 	sllv	v1,a0,t6
9d008140:	00006810 	mfhi	t5
9d008144:	010d202b 	sltu	a0,t0,t5
9d008148:	01a02825 	move	a1,t5
9d00814c:	00006012 	mflo	t4
9d008150:	14800005 	bnez	a0,9d008168 <__umoddi3+0x380>
9d008154:	00003012 	mflo	a2
9d008158:	150d0007 	bne	t0,t5,9d008178 <__umoddi3+0x390>
9d00815c:	006c202b 	sltu	a0,v1,t4
9d008160:	10800006 	beqz	a0,9d00817c <__umoddi3+0x394>
9d008164:	00663023 	subu	a2,v1,a2
9d008168:	01823023 	subu	a2,t4,v0
9d00816c:	01a73823 	subu	a3,t5,a3
9d008170:	0186602b 	sltu	t4,t4,a2
9d008174:	00ec2823 	subu	a1,a3,t4
9d008178:	00663023 	subu	a2,v1,a2
9d00817c:	0066182b 	sltu	v1,v1,a2
9d008180:	01054023 	subu	t0,t0,a1
9d008184:	01031823 	subu	v1,t0,v1
9d008188:	01631004 	sllv	v0,v1,t3
9d00818c:	01c63006 	srlv	a2,a2,t6
9d008190:	00461025 	or	v0,v0,a2
9d008194:	01c31806 	srlv	v1,v1,t6
9d008198:	03e00008 	jr	ra
9d00819c:	00000000 	nop

Disassembly of section .text.__fmt_x:

9d0081a0 <__fmt_x>:
9d0081a0:	8ca20004 	lw	v0,4(a1)
9d0081a4:	27bdffa8 	addiu	sp,sp,-88
9d0081a8:	afb60048 	sw	s6,72(sp)
9d0081ac:	afb3003c 	sw	s3,60(sp)
9d0081b0:	afb20038 	sw	s2,56(sp)
9d0081b4:	afbf0054 	sw	ra,84(sp)
9d0081b8:	afbe0050 	sw	s8,80(sp)
9d0081bc:	afb7004c 	sw	s7,76(sp)
9d0081c0:	afb50044 	sw	s5,68(sp)
9d0081c4:	afb40040 	sw	s4,64(sp)
9d0081c8:	afb10034 	sw	s1,52(sp)
9d0081cc:	afb00030 	sw	s0,48(sp)
9d0081d0:	00809825 	move	s3,a0
9d0081d4:	00a09025 	move	s2,a1
9d0081d8:	00e04025 	move	t0,a3
9d0081dc:	0440004d 	bltz	v0,9d008314 <__fmt_x+0x174>
9d0081e0:	8cb60000 	lw	s6,0(a1)
9d0081e4:	7c160844 	ins	s6,zero,0x1,0x1
9d0081e8:	8e470008 	lw	a3,8(s2)
9d0081ec:	32c90010 	andi	t1,s6,0x10
9d0081f0:	8cd40000 	lw	s4,0(a2)
9d0081f4:	8cd70004 	lw	s7,4(a2)
9d0081f8:	11200004 	beqz	t1,9d00820c <__fmt_x+0x6c>
9d0081fc:	00e08825 	move	s1,a3
9d008200:	02971825 	or	v1,s4,s7
9d008204:	54600001 	bnezl	v1,9d00820c <__fmt_x+0x6c>
9d008208:	24f1fffe 	addiu	s1,a3,-2
9d00820c:	32ca0008 	andi	t2,s6,0x8
9d008210:	55400001 	bnezl	t2,9d008218 <__fmt_x+0x78>
9d008214:	2631ffff 	addiu	s1,s1,-1
9d008218:	8e500010 	lw	s0,16(s2)
9d00821c:	8e55000c 	lw	s5,12(s2)
9d008220:	251effbf 	addiu	s8,t0,-65
9d008224:	2610ffff 	addiu	s0,s0,-1
9d008228:	02b01821 	addu	v1,s5,s0
9d00822c:	a0600000 	sb	zero,0(v1)
9d008230:	00512823 	subu	a1,v0,s1
9d008234:	32cb0002 	andi	t3,s6,0x2
9d008238:	2fde001a 	sltiu	s8,s8,26
9d00823c:	2a020002 	slti	v0,s0,2
9d008240:	1440000a 	bnez	v0,9d00826c <__fmt_x+0xcc>
9d008244:	02971025 	or	v0,s4,s7
9d008248:	14400034 	bnez	v0,9d00831c <__fmt_x+0x17c>
9d00824c:	3283000f 	andi	v1,s4,0xf
9d008250:	00b11021 	addu	v0,a1,s1
9d008254:	1c400032 	bgtz	v0,9d008320 <__fmt_x+0x180>
9d008258:	2864000a 	slti	a0,v1,10
9d00825c:	1a200003 	blez	s1,9d00826c <__fmt_x+0xcc>
9d008260:	00000000 	nop
9d008264:	1560002e 	bnez	t3,9d008320 <__fmt_x+0x180>
9d008268:	00000000 	nop
9d00826c:	1120000b 	beqz	t1,9d00829c <__fmt_x+0xfc>
9d008270:	00000000 	nop
9d008274:	8cc20000 	lw	v0,0(a2)
9d008278:	8cc30004 	lw	v1,4(a2)
9d00827c:	00431025 	or	v0,v0,v1
9d008280:	10400006 	beqz	v0,9d00829c <__fmt_x+0xfc>
9d008284:	02b01021 	addu	v0,s5,s0
9d008288:	2610fffe 	addiu	s0,s0,-2
9d00828c:	a048ffff 	sb	t0,-1(v0)
9d008290:	24030030 	li	v1,48
9d008294:	02b01021 	addu	v0,s5,s0
9d008298:	a0430000 	sb	v1,0(v0)
9d00829c:	11400004 	beqz	t2,9d0082b0 <__fmt_x+0x110>
9d0082a0:	24030020 	li	v1,32
9d0082a4:	2610ffff 	addiu	s0,s0,-1
9d0082a8:	02b01021 	addu	v0,s5,s0
9d0082ac:	a0430000 	sb	v1,0(v0)
9d0082b0:	8e460010 	lw	a2,16(s2)
9d0082b4:	afb60010 	sw	s6,16(sp)
9d0082b8:	02b02821 	addu	a1,s5,s0
9d0082bc:	24c6ffff 	addiu	a2,a2,-1
9d0082c0:	00d03023 	subu	a2,a2,s0
9d0082c4:	0f40225f 	jal	9d00897c <__pad>
9d0082c8:	02602025 	move	a0,s3
9d0082cc:	8e630004 	lw	v1,4(s3)
9d0082d0:	30630100 	andi	v1,v1,0x100
9d0082d4:	10600004 	beqz	v1,9d0082e8 <__fmt_x+0x148>
9d0082d8:	8fbf0054 	lw	ra,84(sp)
9d0082dc:	8e430004 	lw	v1,4(s2)
9d0082e0:	0043202a 	slt	a0,v0,v1
9d0082e4:	0064100b 	movn	v0,v1,a0
9d0082e8:	8fbe0050 	lw	s8,80(sp)
9d0082ec:	8fb7004c 	lw	s7,76(sp)
9d0082f0:	8fb60048 	lw	s6,72(sp)
9d0082f4:	8fb50044 	lw	s5,68(sp)
9d0082f8:	8fb40040 	lw	s4,64(sp)
9d0082fc:	8fb3003c 	lw	s3,60(sp)
9d008300:	8fb20038 	lw	s2,56(sp)
9d008304:	8fb10034 	lw	s1,52(sp)
9d008308:	8fb00030 	lw	s0,48(sp)
9d00830c:	03e00008 	jr	ra
9d008310:	27bd0058 	addiu	sp,sp,88
9d008314:	1000ffb4 	b	9d0081e8 <__fmt_x+0x48>
9d008318:	24020001 	li	v0,1
9d00831c:	2864000a 	slti	a0,v1,10
9d008320:	10800002 	beqz	a0,9d00832c <__fmt_x+0x18c>
9d008324:	24620057 	addiu	v0,v1,87
9d008328:	24620030 	addiu	v0,v1,48
9d00832c:	13c00015 	beqz	s8,9d008384 <__fmt_x+0x1e4>
9d008330:	34430020 	ori	v1,v0,0x20
9d008334:	2463ff9f 	addiu	v1,v1,-97
9d008338:	2c63001a 	sltiu	v1,v1,26
9d00833c:	50600012 	beqzl	v1,9d008388 <__fmt_x+0x1e8>
9d008340:	2610ffff 	addiu	s0,s0,-1
9d008344:	00402025 	move	a0,v0
9d008348:	afab0028 	sw	t3,40(sp)
9d00834c:	afa50024 	sw	a1,36(sp)
9d008350:	afa80064 	sw	t0,100(sp)
9d008354:	afa60060 	sw	a2,96(sp)
9d008358:	afa70020 	sw	a3,32(sp)
9d00835c:	afaa001c 	sw	t2,28(sp)
9d008360:	0f40251f 	jal	9d00947c <toupper>
9d008364:	afa90018 	sw	t1,24(sp)
9d008368:	8fab0028 	lw	t3,40(sp)
9d00836c:	8fa50024 	lw	a1,36(sp)
9d008370:	8fa80064 	lw	t0,100(sp)
9d008374:	8fa60060 	lw	a2,96(sp)
9d008378:	8fa70020 	lw	a3,32(sp)
9d00837c:	8faa001c 	lw	t2,28(sp)
9d008380:	8fa90018 	lw	t1,24(sp)
9d008384:	2610ffff 	addiu	s0,s0,-1
9d008388:	02b01821 	addu	v1,s5,s0
9d00838c:	a0620000 	sb	v0,0(v1)
9d008390:	0014a102 	srl	s4,s4,0x4
9d008394:	00171700 	sll	v0,s7,0x1c
9d008398:	2631ffff 	addiu	s1,s1,-1
9d00839c:	0054a025 	or	s4,v0,s4
9d0083a0:	1000ffa6 	b	9d00823c <__fmt_x+0x9c>
9d0083a4:	0017b902 	srl	s7,s7,0x4

Disassembly of section .text:

9d0083a8 <NU32DIP_Startup>:
#include "nu32dip.h"

void NU32DIP_Startup() {
9d0083a8:	27bdfff8 	addiu	sp,sp,-8
9d0083ac:	afbf0004 	sw	ra,4(sp)
    __builtin_disable_interrupts(); // disable interrupts while initializing things
9d0083b0:	41626000 	di	v0
9d0083b4:	000000c0 	ehb

    // set the CP0 CONFIG register to indicate that kseg0 is cacheable (0x3)
    __builtin_mtc0(_CP0_CONFIG, _CP0_CONFIG_SELECT, 0xa4210583);
9d0083b8:	3c02a421 	lui	v0,0xa421
9d0083bc:	24420583 	addiu	v0,v0,1411
9d0083c0:	40828000 	mtc0	v0,c0_config
9d0083c4:	000000c0 	ehb

    // 0 data RAM access wait states
    BMXCONbits.BMXWSDRM = 0x0;
9d0083c8:	3c02bf88 	lui	v0,0xbf88
9d0083cc:	8c432000 	lw	v1,8192(v0)
9d0083d0:	7c033184 	ins	v1,zero,0x6,0x1
9d0083d4:	ac432000 	sw	v1,8192(v0)

    // enable multi vector interrupts
    INTCONbits.MVEC = 0x1;
9d0083d8:	3c02bf88 	lui	v0,0xbf88
9d0083dc:	8c441000 	lw	a0,4096(v0)
9d0083e0:	24030001 	li	v1,1
9d0083e4:	7c646304 	ins	a0,v1,0xc,0x1
9d0083e8:	ac441000 	sw	a0,4096(v0)

    // disable JTAG to get pins back
    DDPCONbits.JTAGEN = 0;
9d0083ec:	3c02bf81 	lui	v0,0xbf81
9d0083f0:	9444f200 	lhu	a0,-3584(v0)
9d0083f4:	7c0418c4 	ins	a0,zero,0x3,0x1
9d0083f8:	a444f200 	sh	a0,-3584(v0)

    // do your TRIS and LAT commands here
    TRISBCLR = 0b110000; // B4 and B5 LEDs
9d0083fc:	3c02bf88 	lui	v0,0xbf88
9d008400:	24040030 	li	a0,48
9d008404:	ac446114 	sw	a0,24852(v0)
    TRISASET = 0b010000; // A4 user button
9d008408:	3c02bf88 	lui	v0,0xbf88
9d00840c:	24040010 	li	a0,16
9d008410:	ac446018 	sw	a0,24600(v0)
    //NU32_LED1 = 1; // LED1 is off
    NU32DIP_YELLOW = 1;
9d008414:	3c02bf88 	lui	v0,0xbf88
9d008418:	94446130 	lhu	a0,24880(v0)
9d00841c:	7c642944 	ins	a0,v1,0x5,0x1
9d008420:	a4446130 	sh	a0,24880(v0)
    //NU32_LED2 = 0; // LED2 is on
    NU32DIP_GREEN = 0;
9d008424:	94446130 	lhu	a0,24880(v0)
9d008428:	7c042104 	ins	a0,zero,0x4,0x1
9d00842c:	a4446130 	sh	a0,24880(v0)

    //UART1 pins
    U1RXRbits.U1RXR = 0b0000; // Set A2 to U1RX
9d008430:	3c02bf81 	lui	v0,0xbf81
9d008434:	9044fa50 	lbu	a0,-1456(v0)
9d008438:	7c041804 	ins	a0,zero,0x0,0x4
9d00843c:	a044fa50 	sb	a0,-1456(v0)
    RPB3Rbits.RPB3R = 0b0001; // Set B3 to U1TX
9d008440:	3c02bf81 	lui	v0,0xbf81
9d008444:	9044fb38 	lbu	a0,-1224(v0)
9d008448:	7c641804 	ins	a0,v1,0x0,0x4
9d00844c:	a044fb38 	sb	a0,-1224(v0)

    // turn on UART1 without an interrupt
    U1MODEbits.BRGH = 0; // set baud to NU32_DESIRED_BAUD
9d008450:	3c02bf80 	lui	v0,0xbf80
9d008454:	94446000 	lhu	a0,24576(v0)
9d008458:	7c0418c4 	ins	a0,zero,0x3,0x1
9d00845c:	a4446000 	sh	a0,24576(v0)
    U1BRG = ((NU32DIP_SYS_FREQ / NU32DIP_DESIRED_BAUD) / 16) - 1;
9d008460:	3c04bf80 	lui	a0,0xbf80
9d008464:	2405000c 	li	a1,12
9d008468:	ac856040 	sw	a1,24640(a0)

    // 8 bit, no parity bit, and 1 stop bit (8N1 setup)
    U1MODEbits.PDSEL = 0;
9d00846c:	94446000 	lhu	a0,24576(v0)
9d008470:	7c041044 	ins	a0,zero,0x1,0x2
9d008474:	a4446000 	sh	a0,24576(v0)
    U1MODEbits.STSEL = 0;
9d008478:	94446000 	lhu	a0,24576(v0)
9d00847c:	7c040004 	ins	a0,zero,0x0,0x1
9d008480:	a4446000 	sh	a0,24576(v0)

    // configure TX & RX pins as output & input pins
    U1STAbits.UTXEN = 1;
9d008484:	3c04bf80 	lui	a0,0xbf80
9d008488:	8c856010 	lw	a1,24592(a0)
9d00848c:	7c655284 	ins	a1,v1,0xa,0x1
9d008490:	ac856010 	sw	a1,24592(a0)
    U1STAbits.URXEN = 1;
9d008494:	8c856010 	lw	a1,24592(a0)
9d008498:	7c656304 	ins	a1,v1,0xc,0x1
9d00849c:	ac856010 	sw	a1,24592(a0)
    // configure without hardware flow control
    U1MODEbits.UEN = 0;
9d0084a0:	94446000 	lhu	a0,24576(v0)
9d0084a4:	7c044a04 	ins	a0,zero,0x8,0x2
9d0084a8:	a4446000 	sh	a0,24576(v0)

    // enable the uart
    U1MODEbits.ON = 1;
9d0084ac:	94446000 	lhu	a0,24576(v0)
9d0084b0:	7c647bc4 	ins	a0,v1,0xf,0x1
9d0084b4:	a4446000 	sh	a0,24576(v0)

    __builtin_enable_interrupts();
9d0084b8:	41626020 	ei	v0
}
9d0084bc:	8fbf0004 	lw	ra,4(sp)
9d0084c0:	03e00008 	jr	ra
9d0084c4:	27bd0008 	addiu	sp,sp,8

9d0084c8 <NU32DIP_ReadUART1>:
// block other functions until you get a '\r' or '\n'
// send the pointer to your char array and the number of elements in the array

void NU32DIP_ReadUART1(char * message, int maxLength) {
    char data = 0;
    int complete = 0, num_bytes = 0;
9d0084c8:	00001025 	move	v0,zero
    // loop until you get a '\r' or '\n'
    while (!complete) {
        if (U1STAbits.URXDA) { // if data is available
9d0084cc:	3c0abf80 	lui	t2,0xbf80
            data = U1RXREG; // read the data
9d0084d0:	3c09bf80 	lui	t1,0xbf80
            if ((data == '\n') || (data == '\r')) {
9d0084d4:	2408000a 	li	t0,10
9d0084d8:	2407000d 	li	a3,13
        if (U1STAbits.URXDA) { // if data is available
9d0084dc:	8d436010 	lw	v1,24592(t2)
9d0084e0:	30630001 	andi	v1,v1,0x1
9d0084e4:	1060fffd 	beqz	v1,9d0084dc <NU32DIP_ReadUART1+0x14>
9d0084e8:	00000000 	nop
            data = U1RXREG; // read the data
9d0084ec:	8d236030 	lw	v1,24624(t1)
9d0084f0:	7c031c20 	seb	v1,v1
            if ((data == '\n') || (data == '\r')) {
9d0084f4:	5068000b 	beql	v1,t0,9d008524 <NU32DIP_ReadUART1+0x5c>
9d0084f8:	00822021 	addu	a0,a0,v0
9d0084fc:	10670008 	beq	v1,a3,9d008520 <NU32DIP_ReadUART1+0x58>
9d008500:	24460001 	addiu	a2,v0,1
                complete = 1;
            } else {
                message[num_bytes] = data;
                ++num_bytes;
                // roll over if the array is too small
                if (num_bytes >= maxLength) {
9d008504:	00c5302a 	slt	a2,a2,a1
                    num_bytes = 0;
9d008508:	244b0001 	addiu	t3,v0,1
                message[num_bytes] = data;
9d00850c:	00821021 	addu	v0,a0,v0
9d008510:	a0430000 	sb	v1,0(v0)
9d008514:	01601025 	move	v0,t3
9d008518:	1000fff0 	b	9d0084dc <NU32DIP_ReadUART1+0x14>
9d00851c:	0006100a 	movz	v0,zero,a2
                }
            }
        }
    }
    // end the string
    message[num_bytes] = '\0';
9d008520:	00822021 	addu	a0,a0,v0
}
9d008524:	03e00008 	jr	ra
9d008528:	a0800000 	sb	zero,0(a0)

9d00852c <NU32DIP_WriteUART1>:

// Write a character array using UART1

void NU32DIP_WriteUART1(const char * string) {
    while (*string != '\0') {
9d00852c:	80820000 	lb	v0,0(a0)
9d008530:	1040000b 	beqz	v0,9d008560 <NU32DIP_WriteUART1+0x34>
9d008534:	3c06bf80 	lui	a2,0xbf80
        while (U1STAbits.UTXBF) {
            ; // wait until tx buffer isn't full
        }
        U1TXREG = *string;
9d008538:	3c05bf80 	lui	a1,0xbf80
        while (U1STAbits.UTXBF) {
9d00853c:	8cc36010 	lw	v1,24592(a2)
9d008540:	7c630240 	ext	v1,v1,0x9,0x1
9d008544:	1460fffd 	bnez	v1,9d00853c <NU32DIP_WriteUART1+0x10>
9d008548:	00000000 	nop
        U1TXREG = *string;
9d00854c:	aca26020 	sw	v0,24608(a1)
        ++string;
9d008550:	24840001 	addiu	a0,a0,1
    while (*string != '\0') {
9d008554:	80820000 	lb	v0,0(a0)
9d008558:	1440fff8 	bnez	v0,9d00853c <NU32DIP_WriteUART1+0x10>
9d00855c:	00000000 	nop
    }
}
9d008560:	03e00008 	jr	ra
9d008564:	00000000 	nop

Disassembly of section .text.__pop_int:

9d008568 <__pop_int>:
9d008568:	24020088 	li	v0,136
9d00856c:	10a2003f 	beq	a1,v0,9d00866c <__pop_int+0x104>
9d008570:	28a20089 	slti	v0,a1,137
9d008574:	1040001a 	beqz	v0,9d0085e0 <__pop_int+0x78>
9d008578:	24020081 	li	v0,129
9d00857c:	10a20054 	beq	a1,v0,9d0086d0 <__pop_int+0x168>
9d008580:	28a20082 	slti	v0,a1,130
9d008584:	10400005 	beqz	v0,9d00859c <__pop_int+0x34>
9d008588:	24020080 	li	v0,128
9d00858c:	50a20051 	beql	a1,v0,9d0086d4 <__pop_int+0x16c>
9d008590:	8ce20000 	lw	v0,0(a3)
9d008594:	03e00008 	jr	ra
9d008598:	00001025 	move	v0,zero
9d00859c:	24020082 	li	v0,130
9d0085a0:	50a2003b 	beql	a1,v0,9d008690 <__pop_int+0x128>
9d0085a4:	8ce20000 	lw	v0,0(a3)
9d0085a8:	24020084 	li	v0,132
9d0085ac:	14a2fff9 	bne	a1,v0,9d008594 <__pop_int+0x2c>
9d0085b0:	00000000 	nop
9d0085b4:	8ce20000 	lw	v0,0(a3)
9d0085b8:	24430004 	addiu	v1,v0,4
9d0085bc:	8c420000 	lw	v0,0(v0)
9d0085c0:	10c00027 	beqz	a2,9d008660 <__pop_int+0xf8>
9d0085c4:	ace30000 	sw	v1,0(a3)
9d0085c8:	7c021620 	seh	v0,v0
9d0085cc:	ac820000 	sw	v0,0(a0)
9d0085d0:	000217c3 	sra	v0,v0,0x1f
9d0085d4:	ac820004 	sw	v0,4(a0)
9d0085d8:	03e00008 	jr	ra
9d0085dc:	24020001 	li	v0,1
9d0085e0:	240200a0 	li	v0,160
9d0085e4:	50a20036 	beql	a1,v0,9d0086c0 <__pop_int+0x158>
9d0085e8:	8ce20000 	lw	v0,0(a3)
9d0085ec:	28a200a1 	slti	v0,a1,161
9d0085f0:	10400010 	beqz	v0,9d008634 <__pop_int+0xcc>
9d0085f4:	24020090 	li	v0,144
9d0085f8:	14a2ffe6 	bne	a1,v0,9d008594 <__pop_int+0x2c>
9d0085fc:	00000000 	nop
9d008600:	8ce20000 	lw	v0,0(a3)
9d008604:	24420007 	addiu	v0,v0,7
9d008608:	7c021004 	ins	v0,zero,0x0,0x3
9d00860c:	8c480000 	lw	t0,0(v0)
9d008610:	8c490004 	lw	t1,4(v0)
9d008614:	24420008 	addiu	v0,v0,8
9d008618:	ace20000 	sw	v0,0(a3)
9d00861c:	ac880000 	sw	t0,0(a0)
9d008620:	ac890004 	sw	t1,4(a0)
9d008624:	10c00001 	beqz	a2,9d00862c <__pop_int+0xc4>
9d008628:	24020001 	li	v0,1
9d00862c:	03e00008 	jr	ra
9d008630:	00000000 	nop
9d008634:	240200c0 	li	v0,192
9d008638:	50a20005 	beql	a1,v0,9d008650 <__pop_int+0xe8>
9d00863c:	8ce20000 	lw	v0,0(a3)
9d008640:	240200f0 	li	v0,240
9d008644:	14a2ffd3 	bne	a1,v0,9d008594 <__pop_int+0x2c>
9d008648:	00000000 	nop
9d00864c:	8ce20000 	lw	v0,0(a3)
9d008650:	24430004 	addiu	v1,v0,4
9d008654:	ace30000 	sw	v1,0(a3)
9d008658:	10000002 	b	9d008664 <__pop_int+0xfc>
9d00865c:	8c420000 	lw	v0,0(v0)
9d008660:	3042ffff 	andi	v0,v0,0xffff
9d008664:	10000020 	b	9d0086e8 <__pop_int+0x180>
9d008668:	ac820000 	sw	v0,0(a0)
9d00866c:	8ce20000 	lw	v0,0(a3)
9d008670:	24430004 	addiu	v1,v0,4
9d008674:	8c420000 	lw	v0,0(v0)
9d008678:	10c00003 	beqz	a2,9d008688 <__pop_int+0x120>
9d00867c:	ace30000 	sw	v1,0(a3)
9d008680:	1000ffd2 	b	9d0085cc <__pop_int+0x64>
9d008684:	7c021420 	seb	v0,v0
9d008688:	1000fff6 	b	9d008664 <__pop_int+0xfc>
9d00868c:	304200ff 	andi	v0,v0,0xff
9d008690:	24420007 	addiu	v0,v0,7
9d008694:	7c021004 	ins	v0,zero,0x0,0x3
9d008698:	8c480000 	lw	t0,0(v0)
9d00869c:	8c490004 	lw	t1,4(v0)
9d0086a0:	24420008 	addiu	v0,v0,8
9d0086a4:	ace20000 	sw	v0,0(a3)
9d0086a8:	ac880000 	sw	t0,0(a0)
9d0086ac:	ac890004 	sw	t1,4(a0)
9d0086b0:	10c0ffde 	beqz	a2,9d00862c <__pop_int+0xc4>
9d0086b4:	24020001 	li	v0,1
9d0086b8:	03e00008 	jr	ra
9d0086bc:	00000000 	nop
9d0086c0:	24430004 	addiu	v1,v0,4
9d0086c4:	ace30000 	sw	v1,0(a3)
9d0086c8:	1000ffc0 	b	9d0085cc <__pop_int+0x64>
9d0086cc:	8c420000 	lw	v0,0(v0)
9d0086d0:	8ce20000 	lw	v0,0(a3)
9d0086d4:	24430004 	addiu	v1,v0,4
9d0086d8:	ace30000 	sw	v1,0(a3)
9d0086dc:	8c420000 	lw	v0,0(v0)
9d0086e0:	14c0ffbb 	bnez	a2,9d0085d0 <__pop_int+0x68>
9d0086e4:	ac820000 	sw	v0,0(a0)
9d0086e8:	1000ffbb 	b	9d0085d8 <__pop_int+0x70>
9d0086ec:	ac800004 	sw	zero,4(a0)

Disassembly of section .text.__fmt_d:

9d0086f0 <__fmt_d>:
9d0086f0:	27bdffc0 	addiu	sp,sp,-64
9d0086f4:	afb1002c 	sw	s1,44(sp)
9d0086f8:	00808825 	move	s1,a0
9d0086fc:	00c02025 	move	a0,a2
9d008700:	8c870004 	lw	a3,4(a0)
9d008704:	8ca20000 	lw	v0,0(a1)
9d008708:	afb40038 	sw	s4,56(sp)
9d00870c:	0007a7c2 	srl	s4,a3,0x1f
9d008710:	afb30034 	sw	s3,52(sp)
9d008714:	afb20030 	sw	s2,48(sp)
9d008718:	afb00028 	sw	s0,40(sp)
9d00871c:	afbf003c 	sw	ra,60(sp)
9d008720:	00a08025 	move	s0,a1
9d008724:	8ca30004 	lw	v1,4(a1)
9d008728:	8cb20008 	lw	s2,8(a1)
9d00872c:	afa20020 	sw	v0,32(sp)
9d008730:	8cb3000c 	lw	s3,12(a1)
9d008734:	1280003e 	beqz	s4,9d008830 <__fmt_d+0x140>
9d008738:	8cc60000 	lw	a2,0(a2)
9d00873c:	00063023 	negu	a2,a2
9d008740:	0006202b 	sltu	a0,zero,a2
9d008744:	00073823 	negu	a3,a3
9d008748:	04600008 	bltz	v1,9d00876c <__fmt_d+0x7c>
9d00874c:	00e43823 	subu	a3,a3,a0
9d008750:	7c020844 	ins	v0,zero,0x1,0x1
9d008754:	16800005 	bnez	s4,9d00876c <__fmt_d+0x7c>
9d008758:	afa20020 	sw	v0,32(sp)
9d00875c:	8fa20020 	lw	v0,32(sp)
9d008760:	30430004 	andi	v1,v0,0x4
9d008764:	1060002a 	beqz	v1,9d008810 <__fmt_d+0x120>
9d008768:	7c4200c0 	ext	v0,v0,0x3,0x1
9d00876c:	2642ffff 	addiu	v0,s2,-1
9d008770:	27a30020 	addiu	v1,sp,32
9d008774:	afa30018 	sw	v1,24(sp)
9d008778:	2403000a 	li	v1,10
9d00877c:	afa30014 	sw	v1,20(sp)
9d008780:	afa20010 	sw	v0,16(sp)
9d008784:	0f402210 	jal	9d008840 <__cvt_u>
9d008788:	02002025 	move	a0,s0
9d00878c:	16800006 	bnez	s4,9d0087a8 <__fmt_d+0xb8>
9d008790:	2403002d 	li	v1,45
9d008794:	8fa30020 	lw	v1,32(sp)
9d008798:	30640004 	andi	a0,v1,0x4
9d00879c:	1080001e 	beqz	a0,9d008818 <__fmt_d+0x128>
9d0087a0:	30630008 	andi	v1,v1,0x8
9d0087a4:	2403002b 	li	v1,43
9d0087a8:	2442ffff 	addiu	v0,v0,-1
9d0087ac:	02622021 	addu	a0,s3,v0
9d0087b0:	a0830000 	sb	v1,0(a0)
9d0087b4:	8e060010 	lw	a2,16(s0)
9d0087b8:	8fa30020 	lw	v1,32(sp)
9d0087bc:	02403825 	move	a3,s2
9d0087c0:	24c6ffff 	addiu	a2,a2,-1
9d0087c4:	afa30010 	sw	v1,16(sp)
9d0087c8:	00c23023 	subu	a2,a2,v0
9d0087cc:	02622821 	addu	a1,s3,v0
9d0087d0:	0f40225f 	jal	9d00897c <__pad>
9d0087d4:	02202025 	move	a0,s1
9d0087d8:	8e230004 	lw	v1,4(s1)
9d0087dc:	30630100 	andi	v1,v1,0x100
9d0087e0:	10600004 	beqz	v1,9d0087f4 <__fmt_d+0x104>
9d0087e4:	8fbf003c 	lw	ra,60(sp)
9d0087e8:	8e030004 	lw	v1,4(s0)
9d0087ec:	0043202a 	slt	a0,v0,v1
9d0087f0:	0064100b 	movn	v0,v1,a0
9d0087f4:	8fb40038 	lw	s4,56(sp)
9d0087f8:	8fb30034 	lw	s3,52(sp)
9d0087fc:	8fb20030 	lw	s2,48(sp)
9d008800:	8fb1002c 	lw	s1,44(sp)
9d008804:	8fb00028 	lw	s0,40(sp)
9d008808:	03e00008 	jr	ra
9d00880c:	27bd0040 	addiu	sp,sp,64
9d008810:	1000ffd7 	b	9d008770 <__fmt_d+0x80>
9d008814:	02421023 	subu	v0,s2,v0
9d008818:	1060ffe6 	beqz	v1,9d0087b4 <__fmt_d+0xc4>
9d00881c:	24040020 	li	a0,32
9d008820:	2442ffff 	addiu	v0,v0,-1
9d008824:	02621821 	addu	v1,s3,v0
9d008828:	1000ffe2 	b	9d0087b4 <__fmt_d+0xc4>
9d00882c:	a0640000 	sb	a0,0(v1)
9d008830:	0463ffc8 	bgezl	v1,9d008754 <__fmt_d+0x64>
9d008834:	7c020844 	ins	v0,zero,0x1,0x1
9d008838:	1000ffc9 	b	9d008760 <__fmt_d+0x70>
9d00883c:	8fa20020 	lw	v0,32(sp)

Disassembly of section .text.__cvt_u:

9d008840 <__cvt_u>:
9d008840:	8c820004 	lw	v0,4(a0)
9d008844:	27bdffc0 	addiu	sp,sp,-64
9d008848:	afbe0038 	sw	s8,56(sp)
9d00884c:	afb40028 	sw	s4,40(sp)
9d008850:	afb20020 	sw	s2,32(sp)
9d008854:	afb1001c 	sw	s1,28(sp)
9d008858:	afbf003c 	sw	ra,60(sp)
9d00885c:	afb70034 	sw	s7,52(sp)
9d008860:	afb60030 	sw	s6,48(sp)
9d008864:	afb5002c 	sw	s5,44(sp)
9d008868:	afb30024 	sw	s3,36(sp)
9d00886c:	afb00018 	sw	s0,24(sp)
9d008870:	00c08825 	move	s1,a2
9d008874:	00e09025 	move	s2,a3
9d008878:	8fb40054 	lw	s4,84(sp)
9d00887c:	04410002 	bgez	v0,9d008888 <__cvt_u+0x48>
9d008880:	8fbe0058 	lw	s8,88(sp)
9d008884:	24020001 	li	v0,1
9d008888:	8c900010 	lw	s0,16(a0)
9d00888c:	8c95000c 	lw	s5,12(a0)
9d008890:	8fd70000 	lw	s7,0(s8)
9d008894:	8fb30050 	lw	s3,80(sp)
9d008898:	2610ffff 	addiu	s0,s0,-1
9d00889c:	02b01821 	addu	v1,s5,s0
9d0088a0:	a0600000 	sb	zero,0(v1)
9d0088a4:	24090001 	li	t1,1
9d0088a8:	00534023 	subu	t0,v0,s3
9d0088ac:	32f70002 	andi	s7,s7,0x2
9d0088b0:	0014b7c3 	sra	s6,s4,0x1f
9d0088b4:	1e000010 	bgtz	s0,9d0088f8 <__cvt_u+0xb8>
9d0088b8:	02321025 	or	v0,s1,s2
9d0088bc:	5120002c 	beqzl	t1,9d008970 <__cvt_u+0x130>
9d0088c0:	8fc20000 	lw	v0,0(s8)
9d0088c4:	8fbf003c 	lw	ra,60(sp)
9d0088c8:	02001025 	move	v0,s0
9d0088cc:	8fbe0038 	lw	s8,56(sp)
9d0088d0:	8fb70034 	lw	s7,52(sp)
9d0088d4:	8fb60030 	lw	s6,48(sp)
9d0088d8:	8fb5002c 	lw	s5,44(sp)
9d0088dc:	8fb40028 	lw	s4,40(sp)
9d0088e0:	8fb30024 	lw	s3,36(sp)
9d0088e4:	8fb20020 	lw	s2,32(sp)
9d0088e8:	8fb1001c 	lw	s1,28(sp)
9d0088ec:	8fb00018 	lw	s0,24(sp)
9d0088f0:	03e00008 	jr	ra
9d0088f4:	27bd0040 	addiu	sp,sp,64
9d0088f8:	14400007 	bnez	v0,9d008918 <__cvt_u+0xd8>
9d0088fc:	01131021 	addu	v0,t0,s3
9d008900:	1c400006 	bgtz	v0,9d00891c <__cvt_u+0xdc>
9d008904:	02202025 	move	a0,s1
9d008908:	1a60ffec 	blez	s3,9d0088bc <__cvt_u+0x7c>
9d00890c:	00000000 	nop
9d008910:	12e0ffea 	beqz	s7,9d0088bc <__cvt_u+0x7c>
9d008914:	00000000 	nop
9d008918:	02202025 	move	a0,s1
9d00891c:	02402825 	move	a1,s2
9d008920:	02803025 	move	a2,s4
9d008924:	02c03825 	move	a3,s6
9d008928:	afa80014 	sw	t0,20(sp)
9d00892c:	0f401f7a 	jal	9d007de8 <__umoddi3>
9d008930:	2610ffff 	addiu	s0,s0,-1
9d008934:	afa20010 	sw	v0,16(sp)
9d008938:	02b01821 	addu	v1,s5,s0
9d00893c:	24420030 	addiu	v0,v0,48
9d008940:	02202025 	move	a0,s1
9d008944:	02402825 	move	a1,s2
9d008948:	a0620000 	sb	v0,0(v1)
9d00894c:	02803025 	move	a2,s4
9d008950:	0f401e8b 	jal	9d007a2c <__udivdi3>
9d008954:	02c03825 	move	a3,s6
9d008958:	2673ffff 	addiu	s3,s3,-1
9d00895c:	00408825 	move	s1,v0
9d008960:	00609025 	move	s2,v1
9d008964:	8fa80014 	lw	t0,20(sp)
9d008968:	1000ffd2 	b	9d0088b4 <__cvt_u+0x74>
9d00896c:	8fa90010 	lw	t1,16(sp)
9d008970:	7c022104 	ins	v0,zero,0x4,0x1
9d008974:	1000ffd3 	b	9d0088c4 <__cvt_u+0x84>
9d008978:	afc20000 	sw	v0,0(s8)

Disassembly of section .text.__pad:

9d00897c <__pad>:
9d00897c:	27bdffc0 	addiu	sp,sp,-64
9d008980:	afb3002c 	sw	s3,44(sp)
9d008984:	8fb30050 	lw	s3,80(sp)
9d008988:	afb60038 	sw	s6,56(sp)
9d00898c:	afb40030 	sw	s4,48(sp)
9d008990:	32730001 	andi	s3,s3,0x1
9d008994:	afb20028 	sw	s2,40(sp)
9d008998:	afb10024 	sw	s1,36(sp)
9d00899c:	afb00020 	sw	s0,32(sp)
9d0089a0:	afbf003c 	sw	ra,60(sp)
9d0089a4:	afb50034 	sw	s5,52(sp)
9d0089a8:	00809025 	move	s2,a0
9d0089ac:	00a0b025 	move	s6,a1
9d0089b0:	00c08025 	move	s0,a2
9d0089b4:	00e08825 	move	s1,a3
9d0089b8:	16600003 	bnez	s3,9d0089c8 <__pad+0x4c>
9d0089bc:	00c7a02b 	sltu	s4,a2,a3
9d0089c0:	56800013 	bnezl	s4,9d008a10 <__pad+0x94>
9d0089c4:	0230a023 	subu	s4,s1,s0
9d0089c8:	02003025 	move	a2,s0
9d0089cc:	02c02825 	move	a1,s6
9d0089d0:	0f402422 	jal	9d009088 <__out>
9d0089d4:	02402025 	move	a0,s2
9d0089d8:	1680000d 	bnez	s4,9d008a10 <__pad+0x94>
9d0089dc:	0230a023 	subu	s4,s1,s0
9d0089e0:	02008825 	move	s1,s0
9d0089e4:	8fbf003c 	lw	ra,60(sp)
9d0089e8:	02201025 	move	v0,s1
9d0089ec:	8fb60038 	lw	s6,56(sp)
9d0089f0:	8fb50034 	lw	s5,52(sp)
9d0089f4:	8fb40030 	lw	s4,48(sp)
9d0089f8:	8fb3002c 	lw	s3,44(sp)
9d0089fc:	8fb20028 	lw	s2,40(sp)
9d008a00:	8fb10024 	lw	s1,36(sp)
9d008a04:	8fb00020 	lw	s0,32(sp)
9d008a08:	03e00008 	jr	ra
9d008a0c:	27bd0040 	addiu	sp,sp,64
9d008a10:	2e860011 	sltiu	a2,s4,17
9d008a14:	24020010 	li	v0,16
9d008a18:	0286100b 	movn	v0,s4,a2
9d008a1c:	00403025 	move	a2,v0
9d008a20:	24050020 	li	a1,32
9d008a24:	27a40010 	addiu	a0,sp,16
9d008a28:	0f402500 	jal	9d009400 <memset>
9d008a2c:	0280a825 	move	s5,s4
9d008a30:	2ea20010 	sltiu	v0,s5,16
9d008a34:	1040000b 	beqz	v0,9d008a64 <__pad+0xe8>
9d008a38:	3286000f 	andi	a2,s4,0xf
9d008a3c:	27a50010 	addiu	a1,sp,16
9d008a40:	0f402422 	jal	9d009088 <__out>
9d008a44:	02402025 	move	a0,s2
9d008a48:	1660ffe6 	bnez	s3,9d0089e4 <__pad+0x68>
9d008a4c:	02003025 	move	a2,s0
9d008a50:	02c02825 	move	a1,s6
9d008a54:	0f402422 	jal	9d009088 <__out>
9d008a58:	02402025 	move	a0,s2
9d008a5c:	1000ffe2 	b	9d0089e8 <__pad+0x6c>
9d008a60:	8fbf003c 	lw	ra,60(sp)
9d008a64:	24060010 	li	a2,16
9d008a68:	27a50010 	addiu	a1,sp,16
9d008a6c:	0f402422 	jal	9d009088 <__out>
9d008a70:	02402025 	move	a0,s2
9d008a74:	1000ffee 	b	9d008a30 <__pad+0xb4>
9d008a78:	26b5fff0 	addiu	s5,s5,-16

Disassembly of section .text.__fmt_o:

9d008a7c <__fmt_o>:
9d008a7c:	8ca20000 	lw	v0,0(a1)
9d008a80:	8ca30004 	lw	v1,4(a1)
9d008a84:	27bdffc0 	addiu	sp,sp,-64
9d008a88:	afb30038 	sw	s3,56(sp)
9d008a8c:	afb20034 	sw	s2,52(sp)
9d008a90:	afb10030 	sw	s1,48(sp)
9d008a94:	afb0002c 	sw	s0,44(sp)
9d008a98:	afbf003c 	sw	ra,60(sp)
9d008a9c:	00809025 	move	s2,a0
9d008aa0:	00a08025 	move	s0,a1
9d008aa4:	8cb30008 	lw	s3,8(a1)
9d008aa8:	afa20020 	sw	v0,32(sp)
9d008aac:	04600003 	bltz	v1,9d008abc <__fmt_o+0x40>
9d008ab0:	8cb1000c 	lw	s1,12(a1)
9d008ab4:	7c020844 	ins	v0,zero,0x1,0x1
9d008ab8:	afa20020 	sw	v0,32(sp)
9d008abc:	27a20020 	addiu	v0,sp,32
9d008ac0:	afa20018 	sw	v0,24(sp)
9d008ac4:	24020008 	li	v0,8
9d008ac8:	afa20014 	sw	v0,20(sp)
9d008acc:	afb30010 	sw	s3,16(sp)
9d008ad0:	8cc70004 	lw	a3,4(a2)
9d008ad4:	8cc60000 	lw	a2,0(a2)
9d008ad8:	0f402210 	jal	9d008840 <__cvt_u>
9d008adc:	02002025 	move	a0,s0
9d008ae0:	8fa30020 	lw	v1,32(sp)
9d008ae4:	30630010 	andi	v1,v1,0x10
9d008ae8:	10600004 	beqz	v1,9d008afc <__fmt_o+0x80>
9d008aec:	24040030 	li	a0,48
9d008af0:	2442ffff 	addiu	v0,v0,-1
9d008af4:	02221821 	addu	v1,s1,v0
9d008af8:	a0640000 	sb	a0,0(v1)
9d008afc:	8fa30020 	lw	v1,32(sp)
9d008b00:	30630008 	andi	v1,v1,0x8
9d008b04:	10600004 	beqz	v1,9d008b18 <__fmt_o+0x9c>
9d008b08:	24040020 	li	a0,32
9d008b0c:	2442ffff 	addiu	v0,v0,-1
9d008b10:	02221821 	addu	v1,s1,v0
9d008b14:	a0640000 	sb	a0,0(v1)
9d008b18:	8e060010 	lw	a2,16(s0)
9d008b1c:	8fa30020 	lw	v1,32(sp)
9d008b20:	02603825 	move	a3,s3
9d008b24:	24c6ffff 	addiu	a2,a2,-1
9d008b28:	afa30010 	sw	v1,16(sp)
9d008b2c:	00c23023 	subu	a2,a2,v0
9d008b30:	02222821 	addu	a1,s1,v0
9d008b34:	0f40225f 	jal	9d00897c <__pad>
9d008b38:	02402025 	move	a0,s2
9d008b3c:	8e430004 	lw	v1,4(s2)
9d008b40:	30630100 	andi	v1,v1,0x100
9d008b44:	10600004 	beqz	v1,9d008b58 <__fmt_o+0xdc>
9d008b48:	8fbf003c 	lw	ra,60(sp)
9d008b4c:	8e030004 	lw	v1,4(s0)
9d008b50:	0043202a 	slt	a0,v0,v1
9d008b54:	0064100b 	movn	v0,v1,a0
9d008b58:	8fb30038 	lw	s3,56(sp)
9d008b5c:	8fb20034 	lw	s2,52(sp)
9d008b60:	8fb10030 	lw	s1,48(sp)
9d008b64:	8fb0002c 	lw	s0,44(sp)
9d008b68:	03e00008 	jr	ra
9d008b6c:	27bd0040 	addiu	sp,sp,64

Disassembly of section .text.__pop_ptr:

9d008b70 <__pop_ptr>:
9d008b70:	24020084 	li	v0,132
9d008b74:	50a20022 	beql	a1,v0,9d008c00 <__pop_ptr+0x90>
9d008b78:	8ce20000 	lw	v0,0(a3)
9d008b7c:	28a20085 	slti	v0,a1,133
9d008b80:	10400010 	beqz	v0,9d008bc4 <__pop_ptr+0x54>
9d008b84:	24020081 	li	v0,129
9d008b88:	50a20008 	beql	a1,v0,9d008bac <__pop_ptr+0x3c>
9d008b8c:	8ce20000 	lw	v0,0(a3)
9d008b90:	24020082 	li	v0,130
9d008b94:	50a20027 	beql	a1,v0,9d008c34 <__pop_ptr+0xc4>
9d008b98:	8ce20000 	lw	v0,0(a3)
9d008b9c:	24020080 	li	v0,128
9d008ba0:	14a20010 	bne	a1,v0,9d008be4 <__pop_ptr+0x74>
9d008ba4:	00000000 	nop
9d008ba8:	8ce20000 	lw	v0,0(a3)
9d008bac:	24430004 	addiu	v1,v0,4
9d008bb0:	ace30000 	sw	v1,0(a3)
9d008bb4:	8c420000 	lw	v0,0(v0)
9d008bb8:	ac820000 	sw	v0,0(a0)
9d008bbc:	10000015 	b	9d008c14 <__pop_ptr+0xa4>
9d008bc0:	ac460000 	sw	a2,0(v0)
9d008bc4:	24020090 	li	v0,144
9d008bc8:	50a2001a 	beql	a1,v0,9d008c34 <__pop_ptr+0xc4>
9d008bcc:	8ce20000 	lw	v0,0(a3)
9d008bd0:	28a20091 	slti	v0,a1,145
9d008bd4:	10400005 	beqz	v0,9d008bec <__pop_ptr+0x7c>
9d008bd8:	24020088 	li	v0,136
9d008bdc:	50a2000f 	beql	a1,v0,9d008c1c <__pop_ptr+0xac>
9d008be0:	8ce20000 	lw	v0,0(a3)
9d008be4:	03e00008 	jr	ra
9d008be8:	00001025 	move	v0,zero
9d008bec:	240200a0 	li	v0,160
9d008bf0:	50a2ffee 	beql	a1,v0,9d008bac <__pop_ptr+0x3c>
9d008bf4:	8ce20000 	lw	v0,0(a3)
9d008bf8:	1000ffe9 	b	9d008ba0 <__pop_ptr+0x30>
9d008bfc:	240200c0 	li	v0,192
9d008c00:	24430004 	addiu	v1,v0,4
9d008c04:	ace30000 	sw	v1,0(a3)
9d008c08:	8c420000 	lw	v0,0(v0)
9d008c0c:	ac820000 	sw	v0,0(a0)
9d008c10:	a4460000 	sh	a2,0(v0)
9d008c14:	03e00008 	jr	ra
9d008c18:	24020001 	li	v0,1
9d008c1c:	24430004 	addiu	v1,v0,4
9d008c20:	ace30000 	sw	v1,0(a3)
9d008c24:	8c420000 	lw	v0,0(v0)
9d008c28:	ac820000 	sw	v0,0(a0)
9d008c2c:	1000fff9 	b	9d008c14 <__pop_ptr+0xa4>
9d008c30:	a0460000 	sb	a2,0(v0)
9d008c34:	24430004 	addiu	v1,v0,4
9d008c38:	ace30000 	sw	v1,0(a3)
9d008c3c:	8c420000 	lw	v0,0(v0)
9d008c40:	ac820000 	sw	v0,0(a0)
9d008c44:	ac460000 	sw	a2,0(v0)
9d008c48:	000637c3 	sra	a2,a2,0x1f
9d008c4c:	1000fff1 	b	9d008c14 <__pop_ptr+0xa4>
9d008c50:	ac460004 	sw	a2,4(v0)

Disassembly of section .text.general_exception:

9d008c54 <_general_exception_context>:
9d008c54:	27bdffa8 	addiu	sp,sp,-88
9d008c58:	afa10004 	sw	at,4(sp)
9d008c5c:	afa20008 	sw	v0,8(sp)
9d008c60:	afa3000c 	sw	v1,12(sp)
9d008c64:	afa40010 	sw	a0,16(sp)
9d008c68:	afa50014 	sw	a1,20(sp)
9d008c6c:	afa60018 	sw	a2,24(sp)
9d008c70:	afa7001c 	sw	a3,28(sp)
9d008c74:	afa80020 	sw	t0,32(sp)
9d008c78:	afa90024 	sw	t1,36(sp)
9d008c7c:	afaa0028 	sw	t2,40(sp)
9d008c80:	afab002c 	sw	t3,44(sp)
9d008c84:	afac0030 	sw	t4,48(sp)
9d008c88:	afad0034 	sw	t5,52(sp)
9d008c8c:	afae0038 	sw	t6,56(sp)
9d008c90:	afaf003c 	sw	t7,60(sp)
9d008c94:	afb80040 	sw	t8,64(sp)
9d008c98:	afb90044 	sw	t9,68(sp)
9d008c9c:	afbf0048 	sw	ra,72(sp)
9d008ca0:	00004012 	mflo	t0
9d008ca4:	afa8004c 	sw	t0,76(sp)
9d008ca8:	00004010 	mfhi	t0
9d008cac:	afa80050 	sw	t0,80(sp)
9d008cb0:	3c1a9d01 	lui	k0,0x9d01
9d008cb4:	275a9274 	addiu	k0,k0,-28044
9d008cb8:	00000000 	nop
9d008cbc:	40046800 	mfc0	a0,c0_cause
9d008cc0:	40056000 	mfc0	a1,c0_status
9d008cc4:	0340f809 	jalr	k0
9d008cc8:	00000000 	nop
9d008ccc:	8fa80050 	lw	t0,80(sp)
9d008cd0:	01000011 	mthi	t0
9d008cd4:	8fa8004c 	lw	t0,76(sp)
9d008cd8:	01000013 	mtlo	t0
9d008cdc:	8fa10004 	lw	at,4(sp)
9d008ce0:	8fa20008 	lw	v0,8(sp)
9d008ce4:	8fa3000c 	lw	v1,12(sp)
9d008ce8:	8fa40010 	lw	a0,16(sp)
9d008cec:	8fa50014 	lw	a1,20(sp)
9d008cf0:	8fa60018 	lw	a2,24(sp)
9d008cf4:	8fa7001c 	lw	a3,28(sp)
9d008cf8:	8fa80020 	lw	t0,32(sp)
9d008cfc:	8fa90024 	lw	t1,36(sp)
9d008d00:	8faa0028 	lw	t2,40(sp)
9d008d04:	8fab002c 	lw	t3,44(sp)
9d008d08:	8fac0030 	lw	t4,48(sp)
9d008d0c:	8fad0034 	lw	t5,52(sp)
9d008d10:	8fae0038 	lw	t6,56(sp)
9d008d14:	8faf003c 	lw	t7,60(sp)
9d008d18:	8fb80040 	lw	t8,64(sp)
9d008d1c:	8fb90044 	lw	t9,68(sp)
9d008d20:	8fbf0048 	lw	ra,72(sp)
9d008d24:	27bd0058 	addiu	sp,sp,88
9d008d28:	000000c0 	ehb
9d008d2c:	42000018 	eret

Disassembly of section .text.__fmt_u:

9d008d30 <__fmt_u>:
9d008d30:	8ca20000 	lw	v0,0(a1)
9d008d34:	8ca30004 	lw	v1,4(a1)
9d008d38:	27bdffc0 	addiu	sp,sp,-64
9d008d3c:	afb30038 	sw	s3,56(sp)
9d008d40:	afb20034 	sw	s2,52(sp)
9d008d44:	afb10030 	sw	s1,48(sp)
9d008d48:	afb0002c 	sw	s0,44(sp)
9d008d4c:	afbf003c 	sw	ra,60(sp)
9d008d50:	00808825 	move	s1,a0
9d008d54:	00a08025 	move	s0,a1
9d008d58:	8cb20008 	lw	s2,8(a1)
9d008d5c:	afa20020 	sw	v0,32(sp)
9d008d60:	04600003 	bltz	v1,9d008d70 <__fmt_u+0x40>
9d008d64:	8cb3000c 	lw	s3,12(a1)
9d008d68:	7c020844 	ins	v0,zero,0x1,0x1
9d008d6c:	afa20020 	sw	v0,32(sp)
9d008d70:	27a20020 	addiu	v0,sp,32
9d008d74:	afa20018 	sw	v0,24(sp)
9d008d78:	2402000a 	li	v0,10
9d008d7c:	afa20014 	sw	v0,20(sp)
9d008d80:	afb20010 	sw	s2,16(sp)
9d008d84:	8cc70004 	lw	a3,4(a2)
9d008d88:	8cc60000 	lw	a2,0(a2)
9d008d8c:	0f402210 	jal	9d008840 <__cvt_u>
9d008d90:	02002025 	move	a0,s0
9d008d94:	8e060010 	lw	a2,16(s0)
9d008d98:	8fa30020 	lw	v1,32(sp)
9d008d9c:	02403825 	move	a3,s2
9d008da0:	24c6ffff 	addiu	a2,a2,-1
9d008da4:	afa30010 	sw	v1,16(sp)
9d008da8:	00c23023 	subu	a2,a2,v0
9d008dac:	02622821 	addu	a1,s3,v0
9d008db0:	0f40225f 	jal	9d00897c <__pad>
9d008db4:	02202025 	move	a0,s1
9d008db8:	8e230004 	lw	v1,4(s1)
9d008dbc:	30630100 	andi	v1,v1,0x100
9d008dc0:	10600004 	beqz	v1,9d008dd4 <__fmt_u+0xa4>
9d008dc4:	8fbf003c 	lw	ra,60(sp)
9d008dc8:	8e030004 	lw	v1,4(s0)
9d008dcc:	0043202a 	slt	a0,v0,v1
9d008dd0:	0064100b 	movn	v0,v1,a0
9d008dd4:	8fb30038 	lw	s3,56(sp)
9d008dd8:	8fb20034 	lw	s2,52(sp)
9d008ddc:	8fb10030 	lw	s1,48(sp)
9d008de0:	8fb0002c 	lw	s0,44(sp)
9d008de4:	03e00008 	jr	ra
9d008de8:	27bd0040 	addiu	sp,sp,64

Disassembly of section .text.__fmt_s:

9d008dec <__fmt_s>:
9d008dec:	3c036c75 	lui	v1,0x6c75
9d008df0:	27bdffc8 	addiu	sp,sp,-56
9d008df4:	24636e28 	addiu	v1,v1,28200
9d008df8:	afa30018 	sw	v1,24(sp)
9d008dfc:	2403296c 	li	v1,10604
9d008e00:	afb20028 	sw	s2,40(sp)
9d008e04:	afb00020 	sw	s0,32(sp)
9d008e08:	afbf0034 	sw	ra,52(sp)
9d008e0c:	afb40030 	sw	s4,48(sp)
9d008e10:	afb3002c 	sw	s3,44(sp)
9d008e14:	afb10024 	sw	s1,36(sp)
9d008e18:	00809025 	move	s2,a0
9d008e1c:	00e01025 	move	v0,a3
9d008e20:	a7a3001c 	sh	v1,28(sp)
9d008e24:	a3a0001e 	sb	zero,30(sp)
9d008e28:	10c00002 	beqz	a2,9d008e34 <__fmt_s+0x48>
9d008e2c:	27b00018 	addiu	s0,sp,24
9d008e30:	00c08025 	move	s0,a2
9d008e34:	8cb10004 	lw	s1,4(a1)
9d008e38:	8cb30008 	lw	s3,8(a1)
9d008e3c:	14400003 	bnez	v0,9d008e4c <__fmt_s+0x60>
9d008e40:	8cb40000 	lw	s4,0(a1)
9d008e44:	0f402540 	jal	9d009500 <strlen>
9d008e48:	02002025 	move	a0,s0
9d008e4c:	06200002 	bltz	s1,9d008e58 <__fmt_s+0x6c>
9d008e50:	0222182b 	sltu	v1,s1,v0
9d008e54:	0223100b 	movn	v0,s1,v1
9d008e58:	afb40010 	sw	s4,16(sp)
9d008e5c:	02603825 	move	a3,s3
9d008e60:	02002825 	move	a1,s0
9d008e64:	02402025 	move	a0,s2
9d008e68:	0f40225f 	jal	9d00897c <__pad>
9d008e6c:	00403025 	move	a2,v0
9d008e70:	8fbf0034 	lw	ra,52(sp)
9d008e74:	8fb40030 	lw	s4,48(sp)
9d008e78:	8fb3002c 	lw	s3,44(sp)
9d008e7c:	8fb20028 	lw	s2,40(sp)
9d008e80:	8fb10024 	lw	s1,36(sp)
9d008e84:	8fb00020 	lw	s0,32(sp)
9d008e88:	03e00008 	jr	ra
9d008e8c:	27bd0038 	addiu	sp,sp,56

Disassembly of section .text.dinit.startup:

9d008e90 <__pic32_data_init_impl>:
9d008e90:	3c089d01 	lui	t0,0x9d01
9d008e94:	25089518 	addiu	t0,t0,-27368
9d008e98:	1100001b 	beqz	t0,9d008f08 <_dinit_end+0x18>
9d008e9c:	00000000 	nop
9d008ea0:	8d090000 	lw	t1,0(t0)
9d008ea4:	11200018 	beqz	t1,9d008f08 <_dinit_end+0x18>
9d008ea8:	25080004 	addiu	t0,t0,4
9d008eac:	8d0a0000 	lw	t2,0(t0)
9d008eb0:	25080004 	addiu	t0,t0,4
9d008eb4:	8d0b0000 	lw	t3,0(t0)
9d008eb8:	11600009 	beqz	t3,9d008ee0 <_dinit_clear>
9d008ebc:	25080004 	addiu	t0,t0,4

9d008ec0 <_dinit_copy>:
9d008ec0:	910c0000 	lbu	t4,0(t0)
9d008ec4:	254affff 	addiu	t2,t2,-1
9d008ec8:	25080001 	addiu	t0,t0,1
9d008ecc:	a12c0000 	sb	t4,0(t1)
9d008ed0:	1540fffb 	bnez	t2,9d008ec0 <_dinit_copy>
9d008ed4:	25290001 	addiu	t1,t1,1
9d008ed8:	10000005 	b	9d008ef0 <_dinit_end>
9d008edc:	00000000 	nop

9d008ee0 <_dinit_clear>:
9d008ee0:	a1200000 	sb	zero,0(t1)
9d008ee4:	254affff 	addiu	t2,t2,-1
9d008ee8:	1540fffd 	bnez	t2,9d008ee0 <_dinit_clear>
9d008eec:	25290001 	addiu	t1,t1,1

9d008ef0 <_dinit_end>:
9d008ef0:	25080003 	addiu	t0,t0,3
9d008ef4:	240afffc 	li	t2,-4
9d008ef8:	01484024 	and	t0,t2,t0
9d008efc:	8d090000 	lw	t1,0(t0)
9d008f00:	1520ffe7 	bnez	t1,9d008ea0 <__pic32_data_init_impl+0x10>
9d008f04:	00000000 	nop
9d008f08:	03e00008 	jr	ra
9d008f0c:	00000000 	nop

Disassembly of section .text.__vsnprintf:

9d008f10 <__vsnprintf>:
9d008f10:	27bdffc8 	addiu	sp,sp,-56
9d008f14:	2403ffff 	li	v1,-1
9d008f18:	afa30010 	sw	v1,16(sp)
9d008f1c:	24030102 	li	v1,258
9d008f20:	00a01025 	move	v0,a1
9d008f24:	afbf0034 	sw	ra,52(sp)
9d008f28:	00c02825 	move	a1,a2
9d008f2c:	afa30014 	sw	v1,20(sp)
9d008f30:	14800002 	bnez	a0,9d008f3c <__vsnprintf+0x2c>
9d008f34:	00e03025 	move	a2,a3
9d008f38:	27a4002c 	addiu	a0,sp,44
9d008f3c:	afa40018 	sw	a0,24(sp)
9d008f40:	afa2001c 	sw	v0,28(sp)
9d008f44:	10400002 	beqz	v0,9d008f50 <__vsnprintf+0x40>
9d008f48:	00001825 	move	v1,zero
9d008f4c:	2443ffff 	addiu	v1,v0,-1
9d008f50:	04410008 	bgez	v0,9d008f74 <__vsnprintf+0x64>
9d008f54:	afa30020 	sw	v1,32(sp)
9d008f58:	3c02a000 	lui	v0,0xa000
9d008f5c:	2403004f 	li	v1,79
9d008f60:	ac430000 	sw	v1,0(v0)
9d008f64:	2402ffff 	li	v0,-1
9d008f68:	8fbf0034 	lw	ra,52(sp)
9d008f6c:	03e00008 	jr	ra
9d008f70:	27bd0038 	addiu	sp,sp,56
9d008f74:	afa40028 	sw	a0,40(sp)
9d008f78:	afa40024 	sw	a0,36(sp)
9d008f7c:	a0800000 	sb	zero,0(a0)
9d008f80:	0f4024d2 	jal	9d009348 <__vfprintf>
9d008f84:	27a40010 	addiu	a0,sp,16
9d008f88:	1000fff8 	b	9d008f6c <__vsnprintf+0x5c>
9d008f8c:	8fbf0034 	lw	ra,52(sp)

Disassembly of section .text:

9d008f90 <main>:
#include "nu32dip.h"
#define MAX_MESSAGE_LENGTH 200

int main(void){
9d008f90:	27bdff10 	addiu	sp,sp,-240
9d008f94:	afbf00ec 	sw	ra,236(sp)
9d008f98:	afb300e8 	sw	s3,232(sp)
9d008f9c:	afb200e4 	sw	s2,228(sp)
9d008fa0:	afb100e0 	sw	s1,224(sp)
    char message [MAX_MESSAGE_LENGTH]; 
    NU32DIP_Startup();
9d008fa4:	0f4020ea 	jal	9d0083a8 <NU32DIP_Startup>
9d008fa8:	afb000dc 	sw	s0,220(sp)
    NU32DIP_WriteUART1("Hello!\r\n");
9d008fac:	3c049d00 	lui	a0,0x9d00
9d008fb0:	0f40214b 	jal	9d00852c <NU32DIP_WriteUART1>
9d008fb4:	24847490 	addiu	a0,a0,29840
    int i = 0;
9d008fb8:	00009025 	move	s2,zero
    while(1){
        //delay
        _CP0_SET_COUNT(0);
9d008fbc:	00009825 	move	s3,zero
        //print i
        sprintf(message,"%d\r\n",i);
9d008fc0:	3c119d00 	lui	s1,0x9d00
9d008fc4:	2631749c 	addiu	s1,s1,29852
        NU32DIP_WriteUART1(message);
        //update i
        i++; 
        while(_CP0_GET_COUNT()<24000000){} // 1sec
9d008fc8:	3c10016e 	lui	s0,0x16e
9d008fcc:	26103600 	addiu	s0,s0,13824
        _CP0_SET_COUNT(0);
9d008fd0:	40934800 	mtc0	s3,c0_count
9d008fd4:	000000c0 	ehb
        sprintf(message,"%d\r\n",i);
9d008fd8:	02403025 	move	a2,s2
9d008fdc:	02202825 	move	a1,s1
9d008fe0:	0f4024ec 	jal	9d0093b0 <_dsprintf_cdnopuxX>
9d008fe4:	27a40010 	addiu	a0,sp,16
        NU32DIP_WriteUART1(message);
9d008fe8:	0f40214b 	jal	9d00852c <NU32DIP_WriteUART1>
9d008fec:	27a40010 	addiu	a0,sp,16
        i++; 
9d008ff0:	26520001 	addiu	s2,s2,1
        while(_CP0_GET_COUNT()<24000000){} // 1sec
9d008ff4:	40024800 	mfc0	v0,c0_count
9d008ff8:	0050102b 	sltu	v0,v0,s0
9d008ffc:	1440fffd 	bnez	v0,9d008ff4 <main+0x64>
9d009000:	00000000 	nop
9d009004:	1000fff2 	b	9d008fd0 <main+0x40>
9d009008:	00000000 	nop

Disassembly of section .text.atoi:

9d00900c <atoi>:
9d00900c:	24050020 	li	a1,32
9d009010:	80820000 	lb	v0,0(a0)
9d009014:	1045000d 	beq	v0,a1,9d00904c <atoi+0x40>
9d009018:	2443fff7 	addiu	v1,v0,-9
9d00901c:	2c630005 	sltiu	v1,v1,5
9d009020:	1460000a 	bnez	v1,9d00904c <atoi+0x40>
9d009024:	2403002b 	li	v1,43
9d009028:	1043000a 	beq	v0,v1,9d009054 <atoi+0x48>
9d00902c:	2403002d 	li	v1,45
9d009030:	14430003 	bne	v0,v1,9d009040 <atoi+0x34>
9d009034:	00002825 	move	a1,zero
9d009038:	24050001 	li	a1,1
9d00903c:	24840001 	addiu	a0,a0,1
9d009040:	00001025 	move	v0,zero
9d009044:	10000007 	b	9d009064 <atoi+0x58>
9d009048:	2407000a 	li	a3,10
9d00904c:	1000fff0 	b	9d009010 <atoi+0x4>
9d009050:	24840001 	addiu	a0,a0,1
9d009054:	1000fff9 	b	9d00903c <atoi+0x30>
9d009058:	00002825 	move	a1,zero
9d00905c:	24840001 	addiu	a0,a0,1
9d009060:	00431023 	subu	v0,v0,v1
9d009064:	80830000 	lb	v1,0(a0)
9d009068:	2463ffd0 	addiu	v1,v1,-48
9d00906c:	2c66000a 	sltiu	a2,v1,10
9d009070:	54c0fffa 	bnezl	a2,9d00905c <atoi+0x50>
9d009074:	70471002 	mul	v0,v0,a3
9d009078:	50a00001 	beqzl	a1,9d009080 <atoi+0x74>
9d00907c:	00021023 	negu	v0,v0
9d009080:	03e00008 	jr	ra
9d009084:	00000000 	nop

Disassembly of section .text.__string_out:

9d009088 <__out>:
9d009088:	8c820010 	lw	v0,16(a0)
9d00908c:	27bdffe0 	addiu	sp,sp,-32
9d009090:	afb00014 	sw	s0,20(sp)
9d009094:	00808025 	move	s0,a0
9d009098:	8c840014 	lw	a0,20(a0)
9d00909c:	afb10018 	sw	s1,24(sp)
9d0090a0:	00c2882b 	sltu	s1,a2,v0
9d0090a4:	0051300a 	movz	a2,v0,s1
9d0090a8:	afbf001c 	sw	ra,28(sp)
9d0090ac:	0f4024e1 	jal	9d009384 <memcpy>
9d0090b0:	00c08825 	move	s1,a2
9d0090b4:	8e020014 	lw	v0,20(s0)
9d0090b8:	8e060010 	lw	a2,16(s0)
9d0090bc:	00511021 	addu	v0,v0,s1
9d0090c0:	00d18823 	subu	s1,a2,s1
9d0090c4:	ae110010 	sw	s1,16(s0)
9d0090c8:	ae020014 	sw	v0,20(s0)
9d0090cc:	a0400000 	sb	zero,0(v0)
9d0090d0:	8fbf001c 	lw	ra,28(sp)
9d0090d4:	8fb10018 	lw	s1,24(sp)
9d0090d8:	8fb00014 	lw	s0,20(sp)
9d0090dc:	03e00008 	jr	ra
9d0090e0:	27bd0020 	addiu	sp,sp,32

Disassembly of section .text.__fmt_state:

9d0090e4 <__fmt_state>:
9d0090e4:	3c069d01 	lui	a2,0x9d01
9d0090e8:	00001025 	move	v0,zero
9d0090ec:	24c694e8 	addiu	a2,a2,-27416
9d0090f0:	00021840 	sll	v1,v0,0x1
9d0090f4:	00661821 	addu	v1,v1,a2
9d0090f8:	80670000 	lb	a3,0(v1)
9d0090fc:	54e00003 	bnezl	a3,9d00910c <__fmt_state+0x28>
9d009100:	8c850000 	lw	a1,0(a0)
9d009104:	03e00008 	jr	ra
9d009108:	90620001 	lbu	v0,1(v1)
9d00910c:	24420001 	addiu	v0,v0,1
9d009110:	80a80000 	lb	t0,0(a1)
9d009114:	15070004 	bne	t0,a3,9d009128 <__fmt_state+0x44>
9d009118:	304200ff 	andi	v0,v0,0xff
9d00911c:	90620001 	lbu	v0,1(v1)
9d009120:	24a50001 	addiu	a1,a1,1
9d009124:	ac850000 	sw	a1,0(a0)
9d009128:	2c43000b 	sltiu	v1,v0,11
9d00912c:	1460fff1 	bnez	v1,9d0090f4 <__fmt_state+0x10>
9d009130:	00021840 	sll	v1,v0,0x1
9d009134:	03e00008 	jr	ra
9d009138:	00000000 	nop

Disassembly of section .text.main_entry:

9d00913c <_main_entry>:
9d00913c:	3c040000 	lui	a0,0x0
9d009140:	27bdffe8 	addiu	sp,sp,-24
9d009144:	24840000 	addiu	a0,a0,0
9d009148:	10800003 	beqz	a0,9d009158 <_main_entry+0x1c>
9d00914c:	afbf0014 	sw	ra,20(sp)
9d009150:	0080f809 	jalr	a0
9d009154:	00000000 	nop
9d009158:	30840000 	andi	a0,a0,0x0
9d00915c:	30a50000 	andi	a1,a1,0x0
9d009160:	3c089d01 	lui	t0,0x9d01
9d009164:	25088f90 	addiu	t0,t0,-28784
9d009168:	0100f809 	jalr	t0
9d00916c:	00000000 	nop

9d009170 <__crt0_exit>:
9d009170:	3c020000 24420000 10400003 00000000     ...<..B$..@.....
9d009180:	0040f809 00000000 1000fff9 00000000     ..@.............

Disassembly of section .text.__pop_float:

9d009190 <__pop_float>:
9d009190:	28a30080 	slti	v1,a1,128
9d009194:	14600010 	bnez	v1,9d0091d8 <__pop_float+0x48>
9d009198:	00001025 	move	v0,zero
9d00919c:	28a30082 	slti	v1,a1,130
9d0091a0:	14600003 	bnez	v1,9d0091b0 <__pop_float+0x20>
9d0091a4:	24030083 	li	v1,131
9d0091a8:	14a3000b 	bne	a1,v1,9d0091d8 <__pop_float+0x48>
9d0091ac:	00000000 	nop
9d0091b0:	8cc20000 	lw	v0,0(a2)
9d0091b4:	24420007 	addiu	v0,v0,7
9d0091b8:	7c021004 	ins	v0,zero,0x0,0x3
9d0091bc:	24430008 	addiu	v1,v0,8
9d0091c0:	acc30000 	sw	v1,0(a2)
9d0091c4:	8c430004 	lw	v1,4(v0)
9d0091c8:	8c420000 	lw	v0,0(v0)
9d0091cc:	ac830004 	sw	v1,4(a0)
9d0091d0:	ac820000 	sw	v0,0(a0)
9d0091d4:	24020001 	li	v0,1
9d0091d8:	03e00008 	jr	ra
9d0091dc:	00000000 	nop

Disassembly of section .text.__sio_sprintf_doux:

9d0091e0 <__sio_sprintf_doux>:
9d0091e0:	27bdffe8 	addiu	sp,sp,-24
9d0091e4:	afbf0014 	sw	ra,20(sp)
9d0091e8:	0f4021bc 	jal	9d0086f0 <__fmt_d>
9d0091ec:	00000000 	nop
9d0091f0:	0f40229f 	jal	9d008a7c <__fmt_o>
9d0091f4:	00000000 	nop
9d0091f8:	0f40234c 	jal	9d008d30 <__fmt_u>
9d0091fc:	00000000 	nop
9d009200:	0f402068 	jal	9d0081a0 <__fmt_x>
9d009204:	00000000 	nop
9d009208:	0f40237b 	jal	9d008dec <__fmt_s>
9d00920c:	00000000 	nop
9d009210:	0f4022dc 	jal	9d008b70 <__pop_ptr>
9d009214:	00000000 	nop
9d009218:	0f40215a 	jal	9d008568 <__pop_int>
9d00921c:	00000000 	nop
9d009220:	8fbf0014 	lw	ra,20(sp)
9d009224:	03e00008 	jr	ra
9d009228:	27bd0018 	addiu	sp,sp,24

Disassembly of section .text._bootstrap_exception_handler:

9d00922c <_bootstrap_exception_handler>:
9d00922c:	3c020000 	lui	v0,0x0
9d009230:	24420000 	addiu	v0,v0,0
9d009234:	10400005 	beqz	v0,9d00924c <_bootstrap_exception_handler+0x20>
9d009238:	3c020000 	lui	v0,0x0
9d00923c:	24420000 	addiu	v0,v0,0
9d009240:	10400003 	beqz	v0,9d009250 <_bootstrap_exception_handler+0x24>
9d009244:	3c029d01 	lui	v0,0x9d01
9d009248:	7000003f 	sdbbp
9d00924c:	3c029d01 	lui	v0,0x9d01
9d009250:	24429304 	addiu	v0,v0,-27900
9d009254:	10400005 	beqz	v0,9d00926c <_bootstrap_exception_handler+0x40>
9d009258:	00000000 	nop
9d00925c:	27bdffe8 	addiu	sp,sp,-24
9d009260:	afbf0014 	sw	ra,20(sp)
9d009264:	0040f809 	jalr	v0
9d009268:	00000000 	nop
9d00926c:	1000ffff 	b	9d00926c <_bootstrap_exception_handler+0x40>
9d009270:	00000000 	nop

Disassembly of section .text._general_exception_handler:

9d009274 <_general_exception_handler>:
9d009274:	3c020000 	lui	v0,0x0
9d009278:	24420000 	addiu	v0,v0,0
9d00927c:	10400005 	beqz	v0,9d009294 <_general_exception_handler+0x20>
9d009280:	3c020000 	lui	v0,0x0
9d009284:	24420000 	addiu	v0,v0,0
9d009288:	10400003 	beqz	v0,9d009298 <_general_exception_handler+0x24>
9d00928c:	3c029d01 	lui	v0,0x9d01
9d009290:	7000003f 	sdbbp
9d009294:	3c029d01 	lui	v0,0x9d01
9d009298:	24429304 	addiu	v0,v0,-27900
9d00929c:	10400005 	beqz	v0,9d0092b4 <_general_exception_handler+0x40>
9d0092a0:	00000000 	nop
9d0092a4:	27bdffe8 	addiu	sp,sp,-24
9d0092a8:	afbf0014 	sw	ra,20(sp)
9d0092ac:	0040f809 	jalr	v0
9d0092b0:	00000000 	nop
9d0092b4:	1000ffff 	b	9d0092b4 <_general_exception_handler+0x40>
9d0092b8:	00000000 	nop

Disassembly of section .vector_default:

9d0092bc <_DefaultInterrupt>:
9d0092bc:	3c020000 	lui	v0,0x0
9d0092c0:	24420000 	addiu	v0,v0,0
9d0092c4:	10400007 	beqz	v0,9d0092e4 <_DefaultInterrupt+0x28>
9d0092c8:	3c020000 	lui	v0,0x0
9d0092cc:	24420000 	addiu	v0,v0,0
9d0092d0:	50400005 	beqzl	v0,9d0092e8 <_DefaultInterrupt+0x2c>
9d0092d4:	3c029d01 	lui	v0,0x9d01
9d0092d8:	7000003f 	sdbbp
9d0092dc:	03e00008 	jr	ra
9d0092e0:	00000000 	nop
9d0092e4:	3c029d01 	lui	v0,0x9d01
9d0092e8:	24429304 	addiu	v0,v0,-27900
9d0092ec:	10400003 	beqz	v0,9d0092fc <_DefaultInterrupt+0x40>
9d0092f0:	00000000 	nop
9d0092f4:	0040f809 	jalr	v0
9d0092f8:	00000000 	nop
9d0092fc:	03e00008 	jr	ra
9d009300:	00000000 	nop

Disassembly of section .text:

9d009304 <__pic32_software_reset>:
9d009304:	41606000 	di
9d009308:	000000c0 	ehb
9d00930c:	3c03aa99 	lui	v1,0xaa99
9d009310:	3c02bf81 	lui	v0,0xbf81
9d009314:	24636655 	addiu	v1,v1,26197
9d009318:	ac40f230 	sw	zero,-3536(v0)
9d00931c:	ac43f230 	sw	v1,-3536(v0)
9d009320:	3c035566 	lui	v1,0x5566
9d009324:	346399aa 	ori	v1,v1,0x99aa
9d009328:	ac43f230 	sw	v1,-3536(v0)
9d00932c:	3c02bf81 	lui	v0,0xbf81
9d009330:	24030001 	li	v1,1
9d009334:	ac43f618 	sw	v1,-2536(v0)
9d009338:	3c02bf81 	lui	v0,0xbf81
9d00933c:	8c42f610 	lw	v0,-2544(v0)
9d009340:	0b4024c3 	j	9d00930c <__pic32_software_reset+0x8>
9d009344:	00000000 	nop

Disassembly of section .text.__vfprintf:

9d009348 <__vfprintf>:
9d009348:	27bdffe0 	addiu	sp,sp,-32
9d00934c:	afb00018 	sw	s0,24(sp)
9d009350:	afa60010 	sw	a2,16(sp)
9d009354:	00808025 	move	s0,a0
9d009358:	afbf001c 	sw	ra,28(sp)
9d00935c:	0f401d2b 	jal	9d0074ac <__printf_core>
9d009360:	27a60010 	addiu	a2,sp,16
9d009364:	8e030004 	lw	v1,4(s0)
9d009368:	8fbf001c 	lw	ra,28(sp)
9d00936c:	2404ffff 	li	a0,-1
9d009370:	30630010 	andi	v1,v1,0x10
9d009374:	0083100b 	movn	v0,a0,v1
9d009378:	8fb00018 	lw	s0,24(sp)
9d00937c:	03e00008 	jr	ra
9d009380:	27bd0020 	addiu	sp,sp,32

Disassembly of section .text.memcpy:

9d009384 <memcpy>:
9d009384:	00801025 	move	v0,a0
9d009388:	00001825 	move	v1,zero
9d00938c:	14c30003 	bne	a2,v1,9d00939c <memcpy+0x18>
9d009390:	00a33821 	addu	a3,a1,v1
9d009394:	03e00008 	jr	ra
9d009398:	00000000 	nop
9d00939c:	90e70000 	lbu	a3,0(a3)
9d0093a0:	00432021 	addu	a0,v0,v1
9d0093a4:	24630001 	addiu	v1,v1,1
9d0093a8:	1000fff8 	b	9d00938c <memcpy+0x8>
9d0093ac:	a0870000 	sb	a3,0(a0)

Disassembly of section .text.__wrap_sprintf:

9d0093b0 <_dsprintf_cdnopuxX>:
9d0093b0:	27bdffe0 	addiu	sp,sp,-32
9d0093b4:	afa60028 	sw	a2,40(sp)
9d0093b8:	27a60028 	addiu	a2,sp,40
9d0093bc:	afbf001c 	sw	ra,28(sp)
9d0093c0:	afa7002c 	sw	a3,44(sp)
9d0093c4:	0f4024f6 	jal	9d0093d8 <__vsprintf>
9d0093c8:	afa60010 	sw	a2,16(sp)
9d0093cc:	8fbf001c 	lw	ra,28(sp)
9d0093d0:	03e00008 	jr	ra
9d0093d4:	27bd0020 	addiu	sp,sp,32

Disassembly of section .text.__vsprintf:

9d0093d8 <__vsprintf>:
9d0093d8:	00c03825 	move	a3,a2
9d0093dc:	00a03025 	move	a2,a1
9d0093e0:	3c057fff 	lui	a1,0x7fff
9d0093e4:	27bdffe8 	addiu	sp,sp,-24
9d0093e8:	afbf0014 	sw	ra,20(sp)
9d0093ec:	0f4023c4 	jal	9d008f10 <__vsnprintf>
9d0093f0:	34a5ffff 	ori	a1,a1,0xffff
9d0093f4:	8fbf0014 	lw	ra,20(sp)
9d0093f8:	03e00008 	jr	ra
9d0093fc:	27bd0018 	addiu	sp,sp,24

Disassembly of section .text.memset:

9d009400 <memset>:
9d009400:	00801025 	move	v0,a0
9d009404:	00863021 	addu	a2,a0,a2
9d009408:	00801825 	move	v1,a0
9d00940c:	14660003 	bne	v1,a2,9d00941c <memset+0x1c>
9d009410:	24630001 	addiu	v1,v1,1
9d009414:	03e00008 	jr	ra
9d009418:	00000000 	nop
9d00941c:	1000fffb 	b	9d00940c <memset+0xc>
9d009420:	a065ffff 	sb	a1,-1(v1)

Disassembly of section .text.dinit.startup:

9d009424 <__pic32_data_init>:
9d009424:	03e01825 	move	v1,ra
9d009428:	3c089d01 	lui	t0,0x9d01
9d00942c:	25088e90 	addiu	t0,t0,-29040
9d009430:	0100f809 	jalr	t0
9d009434:	00000000 	nop
9d009438:	0060f825 	move	ra,v1
9d00943c:	03e00008 	jr	ra
9d009440:	00000000 	nop

Disassembly of section .text.tolower:

9d009444 <tolower>:
9d009444:	2483ffbf 	addiu	v1,a0,-65
9d009448:	2c63001a 	sltiu	v1,v1,26
9d00944c:	10600002 	beqz	v1,9d009458 <tolower+0x14>
9d009450:	00801025 	move	v0,a0
9d009454:	34820020 	ori	v0,a0,0x20
9d009458:	03e00008 	jr	ra
9d00945c:	00000000 	nop

Disassembly of section .text.__tolower_l:

9d009460 <__tolower_l>:
9d009460:	27bdffe8 	addiu	sp,sp,-24
9d009464:	afbf0014 	sw	ra,20(sp)
9d009468:	0f402511 	jal	9d009444 <tolower>
9d00946c:	00000000 	nop
9d009470:	8fbf0014 	lw	ra,20(sp)
9d009474:	03e00008 	jr	ra
9d009478:	27bd0018 	addiu	sp,sp,24

Disassembly of section .text.toupper:

9d00947c <toupper>:
9d00947c:	2483ff9f 	addiu	v1,a0,-97
9d009480:	2c63001a 	sltiu	v1,v1,26
9d009484:	10600002 	beqz	v1,9d009490 <toupper+0x14>
9d009488:	00801025 	move	v0,a0
9d00948c:	3082005f 	andi	v0,a0,0x5f
9d009490:	03e00008 	jr	ra
9d009494:	00000000 	nop

Disassembly of section .text.__toupper_l:

9d009498 <__toupper_l>:
9d009498:	27bdffe8 	addiu	sp,sp,-24
9d00949c:	afbf0014 	sw	ra,20(sp)
9d0094a0:	0f40251f 	jal	9d00947c <toupper>
9d0094a4:	00000000 	nop
9d0094a8:	8fbf0014 	lw	ra,20(sp)
9d0094ac:	03e00008 	jr	ra
9d0094b0:	27bd0018 	addiu	sp,sp,24

Disassembly of section .text:

9d0094d0 <_nmi_handler>:
9d0094d0:	401a6000 	mfc0	k0,c0_status
9d0094d4:	3c1bffbf 	lui	k1,0xffbf
9d0094d8:	377bffff 	ori	k1,k1,0xffff
9d0094dc:	035bd024 	and	k0,k0,k1
9d0094e0:	409a6000 	mtc0	k0,c0_status
9d0094e4:	42000018 	eret

Disassembly of section .rodata:

9d0094e8 <state_table>:
9d0094e8:	096c0768 906a834c c07aa074 88688000     h.l.L.j.t.z...h.
9d0094f8:	826c8400 00008100                       ..l.....

Disassembly of section .text.strlen:

9d009500 <strlen>:
9d009500:	00801025 	move	v0,a0
9d009504:	80430000 	lb	v1,0(v0)
9d009508:	5460fffe 	bnezl	v1,9d009504 <strlen+0x4>
9d00950c:	24420001 	addiu	v0,v0,1
9d009510:	03e00008 	jr	ra
9d009514:	00441023 	subu	v0,v0,a0

Disassembly of section .dinit:

9d009518 <.dinit>:
9d009518:	a0000000 	sb	zero,0(zero)
9d00951c:	00000004 	sllv	zero,zero,zero
	...

Disassembly of section .text._on_reset:

9d009528 <_on_reset>:
9d009528:	03e00008 	jr	ra
9d00952c:	00000000 	nop

Disassembly of section .text._on_bootstrap:

9d009530 <_on_bootstrap>:
9d009530:	03e00008 	jr	ra
9d009534:	00000000 	nop

Disassembly of section .text.__dummy_fmt3:

9d009538 <__dummy_fmt3>:
9d009538:	03e00008 	jr	ra
9d00953c:	00001025 	move	v0,zero

Disassembly of section .text.__dummy_fmt4:

9d009540 <__fmt_a>:
9d009540:	03e00008 	jr	ra
9d009544:	00001025 	move	v0,zero

Disassembly of section .text.__dummy_fmts:

9d009548 <__dummy_fmts>:
9d009548:	03e00008 	jr	ra
9d00954c:	00001025 	move	v0,zero
